 raymarch_art_demo

 Timestamp is 61c3c0c0 (Wed Dec 22 19:20:16 2021)

 Preferred load address is 0000000180000000

 Start         Length     Name                   Class
 0001:00000000 0009c7b0H .text$mn                CODE
 0001:0009c7b0 00000040H .text$mn$00             CODE
 0001:0009c7f0 000009cdH .text$x                 CODE
 0002:00000000 000002c0H .idata$5                DATA
 0002:000002c0 00000018H .00cfg                  DATA
 0002:000002d8 00000008H .CRT$XCA                DATA
 0002:000002e0 00000008H .CRT$XCZ                DATA
 0002:000002e8 00000008H .CRT$XIA                DATA
 0002:000002f0 00000020H .CRT$XIC                DATA
 0002:00000310 00000008H .CRT$XIZ                DATA
 0002:00000318 00000008H .CRT$XLA                DATA
 0002:00000320 00000008H .CRT$XLZ                DATA
 0002:00000328 00000008H .CRT$XPA                DATA
 0002:00000330 00000010H .CRT$XPX                DATA
 0002:00000340 00000008H .CRT$XPXA               DATA
 0002:00000348 00000008H .CRT$XPZ                DATA
 0002:00000350 00000008H .CRT$XTA                DATA
 0002:00000358 00000008H .CRT$XTZ                DATA
 0002:00000360 00000000H .gfids$y                DATA
 0002:00000360 0001c690H .rdata                  DATA
 0002:0001c9f0 00000028H .rdata$T                DATA
 0002:0001ca18 0000016cH .rdata$r                DATA
 0002:0001cb84 00000394H .rdata$zzzdbg           DATA
 0002:0001cf18 00000008H .rtc$IAA                DATA
 0002:0001cf20 00000008H .rtc$IZZ                DATA
 0002:0001cf28 00000008H .rtc$TAA                DATA
 0002:0001cf30 00000008H .rtc$TZZ                DATA
 0002:0001cf38 00000008H .tls                    DATA
 0002:0001cf40 00000010H .tls$                   DATA
 0002:0001cf50 00000010H .tls$ZZZ                DATA
 0002:0001cf60 000027f0H .xdata                  DATA
 0002:0001f750 00000090H .xdata$x                DATA
 0002:0001f7e0 000000a4H .edata                  DATA
 0002:0001f884 00000014H .idata$2                DATA
 0002:0001f898 00000018H .idata$3                DATA
 0002:0001f8b0 000002c0H .idata$4                DATA
 0002:0001fb70 00000636H .idata$6                DATA
 0003:00000000 00000b20H .data                   DATA
 0003:00000b20 00000070H .data$r                 DATA
 0003:00000b90 00001bc0H .bss                    DATA
 0004:00000000 00005d00H .pdata                  DATA
 0005:00000000 00005e20H .gxfg$y                 DATA
 0006:00000000 0000001cH .gehcont$y              DATA

  Address         Publics by Value              Rva+Base               Lib:Object

 0000:00000000       __guard_longjmp_table      0000000000000000     <absolute>
 0000:00000000       __guard_iat_table          0000000000000000     <absolute>
 0000:00000000       __guard_fids_count         0000000000000000     <absolute>
 0000:00000000       __hybrid_code_map_count    0000000000000000     <absolute>
 0000:00000000       __hybrid_code_map          0000000000000000     <absolute>
 0000:00000000       __guard_longjmp_count      0000000000000000     <absolute>
 0000:00000000       __guard_iat_count          0000000000000000     <absolute>
 0000:00000000       __volatile_metadata        0000000000000000     <absolute>
 0000:00000000       __enclave_config           0000000000000000     <absolute>
 0000:00000000       ___safe_se_handler_table   0000000000000000     <absolute>
 0000:00000000       ___safe_se_handler_count   0000000000000000     <absolute>
 0000:00000000       __guard_fids_table         0000000000000000     <absolute>
 0000:00000000       __hybrid_auxiliary_iat     0000000000000000     <absolute>
 0000:00000000       __dynamic_value_reloc_table 0000000000000000     <absolute>
 0000:00000100       __guard_flags              0000000000000100     <absolute>
 0000:00000000       __ImageBase                0000000180000000     <linker-defined>
 0001:00000030       stbi_load_from_memory      0000000180001030 f   raymarch_art_demo.obj
 0001:000000d0       stbi_load_from_callbacks   00000001800010d0 f   raymarch_art_demo.obj
 0001:00000170       stbi_load                  0000000180001170 f   raymarch_art_demo.obj
 0001:00000220       stbi_load_from_file        0000000180001220 f   raymarch_art_demo.obj
 0001:000002f0       stbi_load_gif_from_memory  00000001800012f0 f   raymarch_art_demo.obj
 0001:00000440       stbi_load_16_from_memory   0000000180001440 f   raymarch_art_demo.obj
 0001:000004e0       stbi_load_16_from_callbacks 00000001800014e0 f   raymarch_art_demo.obj
 0001:00000580       stbi_load_16               0000000180001580 f   raymarch_art_demo.obj
 0001:00000630       stbi_load_from_file_16     0000000180001630 f   raymarch_art_demo.obj
 0001:00000700       stbi_loadf_from_memory     0000000180001700 f   raymarch_art_demo.obj
 0001:000007a0       stbi_loadf_from_callbacks  00000001800017a0 f   raymarch_art_demo.obj
 0001:00000840       stbi_loadf                 0000000180001840 f   raymarch_art_demo.obj
 0001:000008f0       stbi_loadf_from_file       00000001800018f0 f   raymarch_art_demo.obj
 0001:00000980       stbi_hdr_to_ldr_gamma      0000000180001980 f   raymarch_art_demo.obj
 0001:000009b0       stbi_hdr_to_ldr_scale      00000001800019b0 f   raymarch_art_demo.obj
 0001:000009e0       stbi_ldr_to_hdr_gamma      00000001800019e0 f   raymarch_art_demo.obj
 0001:00000a00       stbi_ldr_to_hdr_scale      0000000180001a00 f   raymarch_art_demo.obj
 0001:00000a20       stbi_is_hdr_from_callbacks 0000000180001a20 f   raymarch_art_demo.obj
 0001:00000a90       stbi_is_hdr_from_memory    0000000180001a90 f   raymarch_art_demo.obj
 0001:00000b00       stbi_is_hdr                0000000180001b00 f   raymarch_art_demo.obj
 0001:00000b60       stbi_is_hdr_from_file      0000000180001b60 f   raymarch_art_demo.obj
 0001:00000bf0       stbi_failure_reason        0000000180001bf0 f   raymarch_art_demo.obj
 0001:00000c20       stbi_image_free            0000000180001c20 f   raymarch_art_demo.obj
 0001:00000c40       stbi_info_from_memory      0000000180001c40 f   raymarch_art_demo.obj
 0001:00000cd0       stbi_info_from_callbacks   0000000180001cd0 f   raymarch_art_demo.obj
 0001:00000d60       stbi_is_16_bit_from_memory 0000000180001d60 f   raymarch_art_demo.obj
 0001:00000dd0       stbi_is_16_bit_from_callbacks 0000000180001dd0 f   raymarch_art_demo.obj
 0001:00000e40       stbi_info                  0000000180001e40 f   raymarch_art_demo.obj
 0001:00000ec0       stbi_info_from_file        0000000180001ec0 f   raymarch_art_demo.obj
 0001:00000f70       stbi_is_16_bit             0000000180001f70 f   raymarch_art_demo.obj
 0001:00000fd0       stbi_is_16_bit_from_file   0000000180001fd0 f   raymarch_art_demo.obj
 0001:00001060       stbi_set_unpremultiply_on_load 0000000180002060 f   raymarch_art_demo.obj
 0001:00001080       stbi_convert_iphone_png_to_rgb 0000000180002080 f   raymarch_art_demo.obj
 0001:000010a0       stbi_set_flip_vertically_on_load 00000001800020a0 f   raymarch_art_demo.obj
 0001:000010c0       stbi_set_flip_vertically_on_load_thread 00000001800020c0 f   raymarch_art_demo.obj
 0001:00001110       stbi_zlib_decode_malloc_guesssize 0000000180002110 f   raymarch_art_demo.obj
 0001:00001210       stbi_zlib_decode_malloc_guesssize_headerflag 0000000180002210 f   raymarch_art_demo.obj
 0001:00001320       stbi_zlib_decode_malloc    0000000180002320 f   raymarch_art_demo.obj
 0001:00001360       stbi_zlib_decode_buffer    0000000180002360 f   raymarch_art_demo.obj
 0001:00001420       stbi_zlib_decode_noheader_malloc 0000000180002420 f   raymarch_art_demo.obj
 0001:00001520       stbi_zlib_decode_noheader_buffer 0000000180002520 f   raymarch_art_demo.obj
 0001:0001abf0       stbtt_BakeFontBitmap       000000018001bbf0 f   raymarch_art_demo.obj
 0001:0001ac70       stbtt_GetBakedQuad         000000018001bc70 f   raymarch_art_demo.obj
 0001:0001aea0       stbtt_GetScaledFontVMetrics 000000018001bea0 f   raymarch_art_demo.obj
 0001:0001afb0       stbtt_PackBegin            000000018001bfb0 f   raymarch_art_demo.obj
 0001:0001b160       stbtt_PackEnd              000000018001c160 f   raymarch_art_demo.obj
 0001:0001b190       stbtt_PackFontRange        000000018001c190 f   raymarch_art_demo.obj
 0001:0001b220       stbtt_PackFontRanges       000000018001c220 f   raymarch_art_demo.obj
 0001:0001b480       stbtt_PackSetOversampling  000000018001c480 f   raymarch_art_demo.obj
 0001:0001b510       stbtt_PackSetSkipMissingCodepoints 000000018001c510 f   raymarch_art_demo.obj
 0001:0001b530       stbtt_GetPackedQuad        000000018001c530 f   raymarch_art_demo.obj
 0001:0001b7a0       stbtt_PackFontRangesGatherRects 000000018001c7a0 f   raymarch_art_demo.obj
 0001:0001baf0       stbtt_PackFontRangesPackRects 000000018001caf0 f   raymarch_art_demo.obj
 0001:0001bb30       stbtt_PackFontRangesRenderIntoRects 000000018001cb30 f   raymarch_art_demo.obj
 0001:0001c330       stbtt_GetNumberOfFonts     000000018001d330 f   raymarch_art_demo.obj
 0001:0001c350       stbtt_GetFontOffsetForIndex 000000018001d350 f   raymarch_art_demo.obj
 0001:0001c380       stbtt_InitFont             000000018001d380 f   raymarch_art_demo.obj
 0001:0001c3c0       stbtt_FindGlyphIndex       000000018001d3c0 f   raymarch_art_demo.obj
 0001:0001c9e0       stbtt_ScaleForPixelHeight  000000018001d9e0 f   raymarch_art_demo.obj
 0001:0001ca60       stbtt_ScaleForMappingEmToPixels 000000018001da60 f   raymarch_art_demo.obj
 0001:0001cac0       stbtt_GetFontVMetrics      000000018001dac0 f   raymarch_art_demo.obj
 0001:0001cb70       stbtt_GetFontVMetricsOS2   000000018001db70 f   raymarch_art_demo.obj
 0001:0001cc50       stbtt_GetFontBoundingBox   000000018001dc50 f   raymarch_art_demo.obj
 0001:0001cd10       stbtt_GetCodepointHMetrics 000000018001dd10 f   raymarch_art_demo.obj
 0001:0001cd60       stbtt_GetCodepointKernAdvance 000000018001dd60 f   raymarch_art_demo.obj
 0001:0001cdd0       stbtt_GetCodepointBox      000000018001ddd0 f   raymarch_art_demo.obj
 0001:0001ce30       stbtt_GetGlyphHMetrics     000000018001de30 f   raymarch_art_demo.obj
 0001:0001cfa0       stbtt_GetGlyphKernAdvance  000000018001dfa0 f   raymarch_art_demo.obj
 0001:0001d020       stbtt_GetGlyphBox          000000018001e020 f   raymarch_art_demo.obj
 0001:0001d150       stbtt_GetKerningTableLength 000000018001e150 f   raymarch_art_demo.obj
 0001:0001d1e0       stbtt_GetKerningTable      000000018001e1e0 f   raymarch_art_demo.obj
 0001:0001d350       stbtt_IsGlyphEmpty         000000018001e350 f   raymarch_art_demo.obj
 0001:0001d410       stbtt_GetCodepointShape    000000018001e410 f   raymarch_art_demo.obj
 0001:0001d450       stbtt_GetGlyphShape        000000018001e450 f   raymarch_art_demo.obj
 0001:0001d4b0       stbtt_FreeShape            000000018001e4b0 f   raymarch_art_demo.obj
 0001:0001d4e0       stbtt_GetCodepointSVG      000000018001e4e0 f   raymarch_art_demo.obj
 0001:0001d520       stbtt_GetGlyphSVG          000000018001e520 f   raymarch_art_demo.obj
 0001:0001d5d0       stbtt_FreeBitmap           000000018001e5d0 f   raymarch_art_demo.obj
 0001:0001d600       stbtt_GetCodepointBitmap   000000018001e600 f   raymarch_art_demo.obj
 0001:0001d690       stbtt_GetCodepointBitmapSubpixel 000000018001e690 f   raymarch_art_demo.obj
 0001:0001d730       stbtt_MakeCodepointBitmap  000000018001e730 f   raymarch_art_demo.obj
 0001:0001d7c0       stbtt_MakeCodepointBitmapSubpixel 000000018001e7c0 f   raymarch_art_demo.obj
 0001:0001d860       stbtt_MakeCodepointBitmapSubpixelPrefilter 000000018001e860 f   raymarch_art_demo.obj
 0001:0001d940       stbtt_GetCodepointBitmapBox 000000018001e940 f   raymarch_art_demo.obj
 0001:0001d9d0       stbtt_GetCodepointBitmapBoxSubpixel 000000018001e9d0 f   raymarch_art_demo.obj
 0001:0001da70       stbtt_GetGlyphBitmap       000000018001ea70 f   raymarch_art_demo.obj
 0001:0001db00       stbtt_GetGlyphBitmapSubpixel 000000018001eb00 f   raymarch_art_demo.obj
 0001:0001ddb0       stbtt_MakeGlyphBitmap      000000018001edb0 f   raymarch_art_demo.obj
 0001:0001de40       stbtt_MakeGlyphBitmapSubpixel 000000018001ee40 f   raymarch_art_demo.obj
 0001:0001dfd0       stbtt_MakeGlyphBitmapSubpixelPrefilter 000000018001efd0 f   raymarch_art_demo.obj
 0001:0001e110       stbtt_GetGlyphBitmapBox    000000018001f110 f   raymarch_art_demo.obj
 0001:0001e1a0       stbtt_GetGlyphBitmapBoxSubpixel 000000018001f1a0 f   raymarch_art_demo.obj
 0001:0001e340       stbtt_Rasterize            000000018001f340 f   raymarch_art_demo.obj
 0001:0001e4b0       stbtt_FreeSDF              000000018001f4b0 f   raymarch_art_demo.obj
 0001:0001e4e0       stbtt_GetGlyphSDF          000000018001f4e0 f   raymarch_art_demo.obj
 0001:0001fd60       stbtt_GetCodepointSDF      0000000180020d60 f   raymarch_art_demo.obj
 0001:0001fe00       stbtt_FindMatchingFont     0000000180020e00 f   raymarch_art_demo.obj
 0001:0001fe40       stbtt_CompareUTF8toUTF16_bigendian 0000000180020e40 f   raymarch_art_demo.obj
 0001:0001fe80       stbtt_GetFontNameString    0000000180020e80 f   raymarch_art_demo.obj
 0001:00026130       ?stbtt_FindSVGDoc@@YAPEAEPEBUstbtt_fontinfo@@H@Z 0000000180027130 f   raymarch_art_demo.obj
 0001:0002c390       ?Init@@YAXPEAX_KPEAUHINSTANCE__@@2IIPEAUHWND__@@@Z 000000018002d390 f   raymarch_art_demo.obj
 0001:0002cc50       ?Destroy@@YAXXZ            000000018002dc50 f   raymarch_art_demo.obj
 0001:0002cc60       ?SwapChainChange@@YAXII@Z  000000018002dc60 f   raymarch_art_demo.obj
 0001:0002ccf0       ?CodeReload@@YAXPEAUHINSTANCE__@@PEAX_K@Z 000000018002dcf0 f   raymarch_art_demo.obj
 0001:0002cd80       ?MainLoop@@YAXPEAUframe_input@@0M@Z 000000018002dd80 f   raymarch_art_demo.obj
 0001:0002d310       ??Am4@@QEAAAEATv4@@I@Z     000000018002e310 f i raymarch_art_demo.obj
 0001:0002d340       ??D@YA?ATm4@@T0@0@Z        000000018002e340 f i raymarch_art_demo.obj
 0001:0002d610       ??D@YA?ATv2@@MT0@@Z        000000018002e610 f i raymarch_art_demo.obj
 0001:0002d680       ??D@YA?ATv2@@T0@0@Z        000000018002e680 f i raymarch_art_demo.obj
 0001:0002d6f0       ??D@YA?ATv3@@T0@M@Z        000000018002e6f0 f i raymarch_art_demo.obj
 0001:0002d7b0       ??D@YA?ATv4@@MT0@@Z        000000018002e7b0 f i raymarch_art_demo.obj
 0001:0002d8a0       ??D@YA?ATv4@@Tm4@@T0@@Z    000000018002e8a0 f i raymarch_art_demo.obj
 0001:0002dba0       ??G@YA?ATv2i@@T0@0@Z       000000018002eba0 f i raymarch_art_demo.obj
 0001:0002dc00       ??G@YA?ATv3@@T0@@Z         000000018002ec00 f i raymarch_art_demo.obj
 0001:0002dcb0       ??H@YA?ATv2@@T0@0@Z        000000018002ecb0 f i raymarch_art_demo.obj
 0001:0002dd20       ??H@YA?ATv4@@T0@0@Z        000000018002ed20 f i raymarch_art_demo.obj
 0001:0002de20       ??K@YA?ATv2@@T0@0@Z        000000018002ee20 f i raymarch_art_demo.obj
 0001:0002de90       ??X@YAAEATv3@@AEAT0@M@Z    000000018002ee90 f i raymarch_art_demo.obj
 0001:0002df30       ?AabbGetDim@@YA?ATv2i@@Uaabb2i@@@Z 000000018002ef30 f i raymarch_art_demo.obj
 0001:0002df80       ?AabbMinMax@@YA?AUaabb2i@@Tv2i@@0@Z 000000018002ef80 f i raymarch_art_demo.obj
 0001:0002dff0       ?Abs@@YAMM@Z               000000018002eff0 f i raymarch_art_demo.obj
 0001:0002e040       ?AdvanceString@@YAXPEAUstring@@_K@Z 000000018002f040 f i raymarch_art_demo.obj
 0001:0002e0a0       ?AlignAddress@@YA_K_K0@Z   000000018002f0a0 f i raymarch_art_demo.obj
 0001:0002e0a0       ?AlignAddress@@YA_KPEAX_K@Z 000000018002f0a0 f i raymarch_art_demo.obj
 0001:0002e0e0       ?ArenaClear@@YAXPEAUblock_arena@@@Z 000000018002f0e0 f i raymarch_art_demo.obj
 0001:0002e1e0       ?ArenaClear@@YAXPEAUplatform_block_arena@@@Z 000000018002f1e0 f i raymarch_art_demo.obj
 0001:0002e2a0       ?ArenaClear@@YAXPEAUvk_staging_arena@@@Z 000000018002f2a0 f i raymarch_art_demo.obj
 0001:0002e3a0       ?AssetsPushCube@@YA?AUprocedural_mesh@@XZ 000000018002f3a0 f i raymarch_art_demo.obj
 0001:0002f1d0       ?BarrierMask@@YA?AUbarrier_mask@@II@Z 00000001800301d0 f i raymarch_art_demo.obj
 0001:0002f210       ?BeginTempMem@@YA?AUtemp_mem@@PEAUlinear_arena@@@Z 0000000180030210 f i raymarch_art_demo.obj
 0001:0002f270       ?BlockArenaCreate@@YA?AUblock_arena@@PEAUplatform_block_arena@@@Z 0000000180030270 f i raymarch_art_demo.obj
 0001:0002f2d0       ?BlockArenaCreate@@YA?AUblock_arena@@PEAUplatform_block_arena@@_K@Z 00000001800302d0 f i raymarch_art_demo.obj
 0001:0002f360       ?BlockArenaGetBlockSize@@YA_KPEAUblock_arena@@@Z 0000000180030360 f i raymarch_art_demo.obj
 0001:0002f380       ?BlockGetData_@@YAPEAXPEAUblock@@@Z 0000000180030380 f i raymarch_art_demo.obj
 0001:0002f3a0       ?CharToUInt@@YAID@Z        00000001800303a0 f i raymarch_art_demo.obj
 0001:0002f3e0       ?Clamp@@YAHHHH@Z           00000001800303e0 f i raymarch_art_demo.obj
 0001:0002f420       ?Clamp@@YAMMMM@Z           0000000180030420 f i raymarch_art_demo.obj
 0001:0002f470       ?Copy@@YAXPEBXPEAX_K@Z     0000000180030470 f i raymarch_art_demo.obj
 0001:0002f4f0       ?CubeMapGenerateProjections@@YAXTm4@@PEAE@Z 00000001800304f0 f i raymarch_art_demo.obj
 0001:00030450       ?DegreeToRadians@@YAMM@Z   0000000180031450 f i raymarch_art_demo.obj
 0001:00030480       ?DemoAllocGlobals@@YAXPEAUlinear_arena@@@Z 0000000180031480 f i raymarch_art_demo.obj
 0001:000304d0       ?Dot@@YAMTv3@@0@Z          00000001800314d0 f i raymarch_art_demo.obj
 0001:00030530       ?EndTempMem@@YAXUtemp_mem@@@Z 0000000180031530 f i raymarch_art_demo.obj
 0001:00030550       ?FloorU32@@YAIM@Z          0000000180031550 f i raymarch_art_demo.obj
 0001:000305a0       ?FullScreenPassRender@@YAXPEAUvk_commands@@PEAUvk_pipeline@@IPEAPEAUVkDescriptorSet_T@@@Z 00000001800315a0 f i raymarch_art_demo.obj
 0001:00030680       ?FullScreenPipelineBuilderCreate@@YA?AUvk_pipeline_builder@@PEAD0@Z 0000000180031680 f i raymarch_art_demo.obj
 0001:000307c0       ?FullScreenPipelineCreate@@YAPEAUvk_pipeline@@PEAD0PEAUVkRenderPass_T@@IIPEAPEAUVkDescriptorSetLayout_T@@@Z 00000001800317c0 f i raymarch_art_demo.obj
 0001:00030900       ?GetAlignOffset@@YA_K_K0@Z 0000000180031900 f i raymarch_art_demo.obj
 0001:00030950       ?IsUInt@@YAID@Z            0000000180031950 f i raymarch_art_demo.obj
 0001:00030990       ?Length@@YAMTv3@@@Z        0000000180031990 f i raymarch_art_demo.obj
 0001:000309e0       ?LengthSquared@@YAMTv3@@@Z 00000001800319e0 f i raymarch_art_demo.obj
 0001:00030a40       ?Lerp@@YAMMMM@Z            0000000180031a40 f i raymarch_art_demo.obj
 0001:00030a80       ?LinearArenaCreate@@YA?AUlinear_arena@@PEAX_K@Z 0000000180031a80 f i raymarch_art_demo.obj
 0001:00030ae0       ?LinearSubArena@@YA?AUlinear_arena@@PEAU1@_K@Z 0000000180031ae0 f i raymarch_art_demo.obj
 0001:00030b60       ?LookAtM4@@YA?ATm4@@Tv3@@000@Z 0000000180031b60 f i raymarch_art_demo.obj
 0001:00030fd0       ?M4@@YA?ATm4@@Tv4@@000@Z   0000000180031fd0 f i raymarch_art_demo.obj
 0001:00031070       ?M4Identity@@YA?ATm4@@XZ   0000000180032070 f i raymarch_art_demo.obj
 0001:00031260       ?M4Pos@@YA?ATm4@@Tv3@@@Z   0000000180032260 f i raymarch_art_demo.obj
 0001:00031470       ?Max@@YAHHH@Z              0000000180032470 f i raymarch_art_demo.obj
 0001:000314b0       ?Max@@YAIII@Z              00000001800324b0 f i raymarch_art_demo.obj
 0001:000314f0       ?Max@@YAMMM@Z              00000001800324f0 f i raymarch_art_demo.obj
 0001:00031540       ?Max@@YA_K_K0@Z            0000000180032540 f i raymarch_art_demo.obj
 0001:00031590       ?MemoryAllocate@@YAPEAX_K@Z 0000000180032590 f i raymarch_art_demo.obj
 0001:000315d0       ?MemoryFree@@YAXPEAX@Z     00000001800325d0 f i raymarch_art_demo.obj
 0001:00031620       ?Min@@YAHHH@Z              0000000180032620 f i raymarch_art_demo.obj
 0001:00031660       ?Min@@YAIII@Z              0000000180032660 f i raymarch_art_demo.obj
 0001:000316a0       ?Min@@YAMMM@Z              00000001800326a0 f i raymarch_art_demo.obj
 0001:000316f0       ?Min@@YA_K_K0@Z            00000001800326f0 f i raymarch_art_demo.obj
 0001:00031740       ?PlatformBlockArenaAllocate@@YAPEAUblock@@PEAUplatform_block_arena@@@Z 0000000180032740 f i raymarch_art_demo.obj
 0001:00031b40       ?PlatformBlockArenaCreate@@YA?AUplatform_block_arena@@_K0@Z 0000000180032b40 f i raymarch_art_demo.obj
 0001:00031bb0       ?PlatformBlockArenaFree@@YAXPEAUplatform_block_arena@@PEAUblock@@@Z 0000000180032bb0 f i raymarch_art_demo.obj
 0001:00031cf0       ?PlatformBlockArenaNumBlocks@@YA_KPEAUplatform_block_arena@@@Z 0000000180032cf0 f i raymarch_art_demo.obj
 0001:00031d20       ?PreMulAlpha@@YA?ATv4@@T1@@Z 0000000180032d20 f i raymarch_art_demo.obj
 0001:00031da0       ?PushSizeAligned@@YAPEAXPEAUblock_arena@@_K1@Z 0000000180032da0 f i raymarch_art_demo.obj
 0001:00031ee0       ?PushSizeAligned@@YAPEAXPEAUlinear_arena@@_K1@Z 0000000180032ee0 f i raymarch_art_demo.obj
 0001:00031f70       ?PushStringAligned@@YAPEADPEAUlinear_arena@@PEAD_K@Z 0000000180032f70 f i raymarch_art_demo.obj
 0001:00032090       ?ReadFloat@@YAIUstring@@PEAM@Z 0000000180033090 f i raymarch_art_demo.obj
 0001:000323b0       ?ReadInt@@YAIUstring@@PEAH@Z 00000001800333b0 f i raymarch_art_demo.obj
 0001:00032500       ?ReadUInt@@YAIUstring@@PEAI@Z 0000000180033500 f i raymarch_art_demo.obj
 0001:000325f0       ?RenderTargetAddTarget@@YAXPEAUrender_target_builder@@PEAUrender_target_entry@@TVkClearValue@@@Z 00000001800335f0 f i raymarch_art_demo.obj
 0001:000326b0       ?RenderTargetBuilderBegin@@YA?AUrender_target_builder@@PEAUlinear_arena@@0II@Z 00000001800336b0 f i raymarch_art_demo.obj
 0001:000327d0       ?RenderTargetBuilderEnd@@YA?AUrender_target@@PEAUrender_target_builder@@PEAUVkRenderPass_T@@@Z 00000001800337d0 f i raymarch_art_demo.obj
 0001:00032930       ?RenderTargetEntryCreate@@YA?AUrender_target_entry@@IIW4VkFormat@@PEAUVkImageView_T@@@Z 0000000180033930 f i raymarch_art_demo.obj
 0001:000329a0       ?RenderTargetEntryCreate@@YAXPEAUvk_linear_arena@@IIW4VkFormat@@IIPEAPEAUVkImage_T@@PEAUrender_target_entry@@@Z 00000001800339a0 f i raymarch_art_demo.obj
 0001:00032ac0       ?RenderTargetPassBegin@@YAXPEAUrender_target@@PEAUvk_commands@@I@Z 0000000180033ac0 f i raymarch_art_demo.obj
 0001:00032cf0       ?RenderTargetPassEnd@@YAXPEAUvk_commands@@@Z 0000000180033cf0 f i raymarch_art_demo.obj
 0001:00032d10       ?RenderTargetSwapChainEntryCreate@@YA?AUrender_target_entry@@IIW4VkFormat@@@Z 0000000180033d10 f i raymarch_art_demo.obj
 0001:00032d80       ?RenderTargetUpdateEntries@@YAXPEAUlinear_arena@@PEAUrender_target@@@Z 0000000180033d80 f i raymarch_art_demo.obj
 0001:00032f20       ?SquareRoot@@YAMM@Z        0000000180033f20 f i raymarch_art_demo.obj
 0001:00032f50       ?String@@YA?AUstring@@PEAD_K@Z 0000000180033f50 f i raymarch_art_demo.obj
 0001:00032fb0       ?Tan@@YAMM@Z               0000000180033fb0 f i raymarch_art_demo.obj
 0001:00032fe0       ?Transpose@@YA?ATm4@@T1@@Z 0000000180033fe0 f i raymarch_art_demo.obj
 0001:00033310       ?UiInteractionsAreSame@@YAIUui_interaction@@0@Z 0000000180034310 f i raymarch_art_demo.obj
 0001:00033350       ?UiInteractionsAreSame@@YAI_K0@Z 0000000180034350 f i raymarch_art_demo.obj
 0001:00033390       ?UiKeyDown@@YAIPEAUui_frame_input@@E@Z 0000000180034390 f i raymarch_art_demo.obj
 0001:000333c0       ?UiStateBegin@@YAXPEAUui_state@@MIIUui_frame_input@@@Z 00000001800343c0 f i raymarch_art_demo.obj
 0001:00033710       ?UiStateCreate@@YAXPEAUVkDevice_T@@PEAUlinear_arena@@1IPEAUvk_descriptor_manager@@PEAUvk_pipeline_manager@@PEAUvk_commands@@W4VkFormat@@W4VkImageLayout@@PEAUui_state@@@Z 0000000180034710 f i raymarch_art_demo.obj
 0001:00034d50       ?UiStateEnd@@YAXPEAUui_state@@PEAUvk_descriptor_manager@@@Z 0000000180035d50 f i raymarch_art_demo.obj
 0001:00036b90       ?UiStateRender@@YAXPEAUui_state@@PEAUVkDevice_T@@PEAUvk_commands@@PEAUVkImageView_T@@@Z 0000000180037b90 f i raymarch_art_demo.obj
 0001:00037530       ?UiStateResetClipRect@@YAXPEAUui_state@@@Z 0000000180038530 f i raymarch_art_demo.obj
 0001:000375f0       ?UiStateSetClipRect@@YAXPEAUui_state@@Uaabb2i@@@Z 00000001800385f0 f i raymarch_art_demo.obj
 0001:000376b0       ?UiTextBoxAddChar_@@YAXPEADHPEAH1D@Z 00000001800386b0 f i raymarch_art_demo.obj
 0001:00037750       ?UiTextBoxRemoveChar@@YAXPEADPEAHH@Z 0000000180038750 f i raymarch_art_demo.obj
 0001:000377d0       ?V2@@YA?ATv2@@HH@Z         00000001800387d0 f i raymarch_art_demo.obj
 0001:00037820       ?V2@@YA?ATv2@@II@Z         0000000180038820 f i raymarch_art_demo.obj
 0001:00037870       ?V2@@YA?ATv2@@M@Z          0000000180038870 f i raymarch_art_demo.obj
 0001:000378c0       ?V2@@YA?ATv2@@MM@Z         00000001800388c0 f i raymarch_art_demo.obj
 0001:00037910       ?V2@@YA?ATv2@@Tv2i@@@Z     0000000180038910 f i raymarch_art_demo.obj
 0001:00037960       ?V2i@@YA?ATv2i@@II@Z       0000000180038960 f i raymarch_art_demo.obj
 0001:00037960       ?V2i@@YA?ATv2i@@HH@Z       0000000180038960 f i raymarch_art_demo.obj
 0001:000379a0       ?V3@@YA?ATv3@@HHH@Z        00000001800389a0 f i raymarch_art_demo.obj
 0001:00037a20       ?V3@@YA?ATv3@@M@Z          0000000180038a20 f i raymarch_art_demo.obj
 0001:00037a90       ?V3@@YA?ATv3@@MMM@Z        0000000180038a90 f i raymarch_art_demo.obj
 0001:00037b10       ?V4@@YA?ATv4@@HHHH@Z       0000000180038b10 f i raymarch_art_demo.obj
 0001:00037ba0       ?V4@@YA?ATv4@@MMMM@Z       0000000180038ba0 f i raymarch_art_demo.obj
 0001:00037c30       ?V4@@YA?ATv4@@Tv3@@M@Z     0000000180038c30 f i raymarch_art_demo.obj
 0001:00037ce0       ?VkBarrierBufferAdd@@YAXPEAUvk_commands@@PEAUVkBuffer_T@@IIII@Z 0000000180038ce0 f i raymarch_art_demo.obj
 0001:00037dd0       ?VkBarrierBufferAdd@@YAXPEAUvk_commands@@Ubarrier_mask@@1PEAUVkBuffer_T@@@Z 0000000180038dd0 f i raymarch_art_demo.obj
 0001:00037e20       ?VkBarrierImageAdd@@YAXPEAUvk_commands@@PEAUVkImage_T@@IIIW4VkImageLayout@@II2@Z 0000000180038e20 f i raymarch_art_demo.obj
 0001:00037f50       ?VkBarrierImageAdd@@YAXPEAUvk_commands@@PEAUVkImage_T@@IUbarrier_mask@@W4VkImageLayout@@23@Z 0000000180038f50 f i raymarch_art_demo.obj
 0001:00037fc0       ?VkBufferBindMemory@@YA?AUvk_ptr@@PEAUVkDevice_T@@PEAUvk_linear_arena@@PEAUVkBuffer_T@@UVkMemoryRequirements@@@Z 0000000180038fc0 f i raymarch_art_demo.obj
 0001:00038090       ?VkBufferCreate@@YAPEAUVkBuffer_T@@PEAUVkDevice_T@@PEAUvk_linear_arena@@I_K@Z 0000000180039090 f i raymarch_art_demo.obj
 0001:00038100       ?VkBufferCreate@@YAXPEAUVkDevice_T@@PEAUVkDeviceMemory_T@@I_KPEAPEAUVkBuffer_T@@@Z 0000000180039100 f i raymarch_art_demo.obj
 0001:000381e0       ?VkBufferCreate@@YAXPEAUVkDevice_T@@PEAUvk_linear_arena@@I_KPEAPEAUVkBuffer_T@@PEAUvk_ptr@@@Z 00000001800391e0 f i raymarch_art_demo.obj
 0001:00038320       ?VkBufferGetMemoryRequirements@@YA?AUVkMemoryRequirements@@PEAUVkDevice_T@@PEAUVkBuffer_T@@@Z 0000000180039320 f i raymarch_art_demo.obj
 0001:00038390       ?VkBufferHandleCreate@@YAPEAUVkBuffer_T@@PEAUVkDevice_T@@I_K@Z 0000000180039390 f i raymarch_art_demo.obj
 0001:00038420       ?VkClearColorCreate@@YA?ATVkClearValue@@MMMM@Z 0000000180039420 f i raymarch_art_demo.obj
 0001:000384e0       ?VkClearDepthStencilCreate@@YA?ATVkClearValue@@MI@Z 00000001800394e0 f i raymarch_art_demo.obj
 0001:00038560       ?VkCommandsBarrierFlush@@YAXPEAUvk_commands@@@Z 0000000180039560 f i raymarch_art_demo.obj
 0001:00038940       ?VkCommandsBegin@@YAXPEAUvk_commands@@PEAUVkDevice_T@@@Z 0000000180039940 f i raymarch_art_demo.obj
 0001:00038a00       ?VkCommandsCreate@@YA?AUvk_commands@@PEAUVkDevice_T@@PEAUVkCommandPool_T@@PEAUplatform_block_arena@@II@Z 0000000180039a00 f i raymarch_art_demo.obj
 0001:00038cd0       ?VkCommandsEnd@@YAXPEAUvk_commands@@PEAUVkDevice_T@@@Z 0000000180039cd0 f i raymarch_art_demo.obj
 0001:00038d20       ?VkCommandsPushWrite@@YAPEAEPEAUvk_commands@@PEAUVkBuffer_T@@_K2Ubarrier_mask@@3@Z 0000000180039d20 f i raymarch_art_demo.obj
 0001:00038e90       ?VkCommandsPushWrite@@YAPEAEPEAUvk_commands@@PEAUVkBuffer_T@@_KUbarrier_mask@@3@Z 0000000180039e90 f i raymarch_art_demo.obj
 0001:00038ef0       ?VkCommandsPushWriteImage@@YAPEAEPEAUvk_commands@@PEAUVkImage_T@@IIIIII_KW4VkImageAspectFlagBits@@W4VkImageLayout@@4Ubarrier_mask@@5@Z 0000000180039ef0 f i raymarch_art_demo.obj
 0001:000390c0       ?VkCommandsPushWriteImage@@YAPEAEPEAUvk_commands@@PEAUVkImage_T@@IIII_KW4VkImageAspectFlagBits@@W4VkImageLayout@@4Ubarrier_mask@@5@Z 000000018003a0c0 f i raymarch_art_demo.obj
 0001:00039180       ?VkCommandsPushWriteImage@@YAPEAEPEAUvk_commands@@PEAUVkImage_T@@II_KW4VkImageAspectFlagBits@@W4VkImageLayout@@4Ubarrier_mask@@5@Z 000000018003a180 f i raymarch_art_demo.obj
 0001:00039220       ?VkCommandsSubmit@@YAXPEAUvk_commands@@PEAUVkDevice_T@@PEAUVkQueue_T@@@Z 000000018003a220 f i raymarch_art_demo.obj
 0001:000392d0       ?VkCommandsTransferFlush@@YAXPEAUvk_commands@@PEAUVkDevice_T@@@Z 000000018003a2d0 f i raymarch_art_demo.obj
 0001:00039d00       ?VkDescriptorBufferWrite@@YAXPEAUvk_descriptor_manager@@PEAUVkDescriptorSet_T@@IW4VkDescriptorType@@PEAUVkBuffer_T@@_K@Z 000000018003ad00 f i raymarch_art_demo.obj
 0001:00039e50       ?VkDescriptorImageWrite@@YAXPEAUvk_descriptor_manager@@PEAUVkDescriptorSet_T@@IIW4VkDescriptorType@@PEAUVkImageView_T@@PEAUVkSampler_T@@W4VkImageLayout@@@Z 000000018003ae50 f i raymarch_art_demo.obj
 0001:00039fb0       ?VkDescriptorImageWrite@@YAXPEAUvk_descriptor_manager@@PEAUVkDescriptorSet_T@@IW4VkDescriptorType@@PEAUVkImageView_T@@PEAUVkSampler_T@@W4VkImageLayout@@@Z 000000018003afb0 f i raymarch_art_demo.obj
 0001:0003a010       ?VkDescriptorLayoutAdd@@YAXPEAUvk_descriptor_layout_builder@@W4VkDescriptorType@@II@Z 000000018003b010 f i raymarch_art_demo.obj
 0001:0003a0f0       ?VkDescriptorLayoutBegin@@YA?AUvk_descriptor_layout_builder@@PEAPEAUVkDescriptorSetLayout_T@@@Z 000000018003b0f0 f i raymarch_art_demo.obj
 0001:0003a170       ?VkDescriptorLayoutEnd@@YAXPEAUVkDevice_T@@PEAUvk_descriptor_layout_builder@@@Z 000000018003b170 f i raymarch_art_demo.obj
 0001:0003a1e0       ?VkDescriptorManagerCreate@@YA?AUvk_descriptor_manager@@PEAUlinear_arena@@I@Z 000000018003b1e0 f i raymarch_art_demo.obj
 0001:0003a2e0       ?VkDescriptorManagerFlush@@YAXPEAUVkDevice_T@@PEAUvk_descriptor_manager@@@Z 000000018003b2e0 f i raymarch_art_demo.obj
 0001:0003a340       ?VkDescriptorSetAllocate@@YAPEAUVkDescriptorSet_T@@PEAUVkDevice_T@@PEAUVkDescriptorPool_T@@PEAUVkDescriptorSetLayout_T@@@Z 000000018003b340 f i raymarch_art_demo.obj
 0001:0003a3c0       ?VkFboCreate@@YAPEAUVkFramebuffer_T@@PEAUVkDevice_T@@PEAUVkRenderPass_T@@PEAPEAUVkImageView_T@@III@Z 000000018003b3c0 f i raymarch_art_demo.obj
 0001:0003a470       ?VkFboReCreate@@YAXPEAUVkDevice_T@@PEAUVkRenderPass_T@@PEAPEAUVkImageView_T@@IPEAPEAUVkFramebuffer_T@@II@Z 000000018003b470 f i raymarch_art_demo.obj
 0001:0003a4e0       ?VkGetDeviceFunctionPointers@@YAXXZ 000000018003b4e0 f i raymarch_art_demo.obj
 0001:0003b9b0       ?VkGetGlobalFunctionPointers@@YAXPEAUHINSTANCE__@@@Z 000000018003c9b0 f i raymarch_art_demo.obj
 0001:0003bae0       ?VkGetInstanceFunctionPointers@@YAXXZ 000000018003cae0 f i raymarch_art_demo.obj
 0001:0003bee0       ?VkGetMemoryType@@YAHPEAUVkPhysicalDeviceMemoryProperties@@II@Z 000000018003cee0 f i raymarch_art_demo.obj
 0001:0003bf80       ?VkImageBindMemory@@YA?AUvk_ptr@@PEAUVkDevice_T@@PEAUvk_linear_arena@@PEAUVkImage_T@@UVkMemoryRequirements@@@Z 000000018003cf80 f i raymarch_art_demo.obj
 0001:0003c030       ?VkImageCreate@@YA?AUvk_image@@PEAUVkDevice_T@@PEAUvk_linear_arena@@IIW4VkFormat@@IIW4VkSampleCountFlagBits@@@Z 000000018003d030 f i raymarch_art_demo.obj
 0001:0003c0f0       ?VkImageCreate@@YAPEAUVkImage_T@@PEAUVkDevice_T@@PEAUvk_linear_arena@@IIW4VkFormat@@IW4VkSampleCountFlagBits@@@Z 000000018003d0f0 f i raymarch_art_demo.obj
 0001:0003c220       ?VkImageCreate@@YAXPEAUVkDevice_T@@PEAUvk_linear_arena@@IIW4VkFormat@@IIW4VkSampleCountFlagBits@@PEAPEAUVkImage_T@@PEAPEAUVkImageView_T@@@Z 000000018003d220 f i raymarch_art_demo.obj
 0001:0003c2d0       ?VkImageDestroy@@YAXPEAUVkDevice_T@@Uvk_image@@@Z 000000018003d2d0 f i raymarch_art_demo.obj
 0001:0003c310       ?VkImageGetMemoryRequirements@@YA?AUVkMemoryRequirements@@PEAUVkDevice_T@@PEAUVkImage_T@@@Z 000000018003d310 f i raymarch_art_demo.obj
 0001:0003c380       ?VkImageHandleCreate@@YAPEAUVkImage_T@@PEAUVkDevice_T@@IIW4VkFormat@@IW4VkSampleCountFlagBits@@@Z 000000018003d380 f i raymarch_art_demo.obj
 0001:0003c490       ?VkImageViewCreate@@YAPEAUVkImageView_T@@PEAUVkDevice_T@@PEAUVkImage_T@@W4VkImageViewType@@W4VkFormat@@IIII@Z 000000018003d490 f i raymarch_art_demo.obj
 0001:0003c5a0       ?VkIncrementPointer@@YA_K_KUVkMemoryRequirements@@@Z 000000018003d5a0 f i raymarch_art_demo.obj
 0001:0003c5e0       ?VkInit@@YAXPEAUHINSTANCE__@@0PEAUHWND__@@PEAUlinear_arena@@2PEAUplatform_block_arena@@Urender_init_params@@@Z 000000018003d5e0 f i raymarch_art_demo.obj
 0001:0003ef90       ?VkLinearArenaCreate@@YA?AUvk_linear_arena@@PEAUVkDevice_T@@I_K@Z 000000018003ff90 f i raymarch_art_demo.obj
 0001:0003f000       ?VkLinearArenaDestroy@@YAXPEAUVkDevice_T@@PEAUvk_linear_arena@@@Z 0000000180040000 f i raymarch_art_demo.obj
 0001:0003f060       ?VkMemoryAllocate@@YAPEAUVkDeviceMemory_T@@PEAUVkDevice_T@@I_K@Z 0000000180040060 f i raymarch_art_demo.obj
 0001:0003f0e0       ?VkPerspProjM4@@YA?ATm4@@MMMM@Z 00000001800400e0 f i raymarch_art_demo.obj
 0001:0003f230       ?VkPipelineAddShaderRef@@YAXPEAUvk_pipeline_manager@@PEAUvk_pipeline_entry@@PEAD2W4VkShaderStageFlagBits@@@Z 0000000180040230 f i raymarch_art_demo.obj
 0001:0003f2f0       ?VkPipelineAddShaderRef@@YAXPEAUvk_pipeline_manager@@PEAUvk_pipeline_entry@@Uvk_pipeline_builder_shader@@@Z 00000001800402f0 f i raymarch_art_demo.obj
 0001:0003f340       ?VkPipelineBuilderBegin@@YA?AUvk_pipeline_builder@@PEAUlinear_arena@@@Z 0000000180040340 f i raymarch_art_demo.obj
 0001:0003f5a0       ?VkPipelineBuilderEnd@@YAPEAUvk_pipeline@@PEAUvk_pipeline_builder@@PEAUVkDevice_T@@PEAUvk_pipeline_manager@@PEAUVkRenderPass_T@@IPEAPEAUVkDescriptorSetLayout_T@@I@Z 00000001800405a0 f i raymarch_art_demo.obj
 0001:0003fa00       ?VkPipelineColorAttachmentAdd@@YAXPEAUvk_pipeline_builder@@W4VkBlendOp@@W4VkBlendFactor@@2122I@Z 0000000180040a00 f i raymarch_art_demo.obj
 0001:0003fad0       ?VkPipelineDepthStateAdd@@YAXPEAUvk_pipeline_builder@@IIW4VkCompareOp@@@Z 0000000180040ad0 f i raymarch_art_demo.obj
 0001:0003fb70       ?VkPipelineGetShaderModule@@YAPEAUVkShaderModule_T@@PEAUVkDevice_T@@PEAUlinear_arena@@PEAUvk_shader_ref@@@Z 0000000180040b70 f i raymarch_art_demo.obj
 0001:0003fc20       ?VkPipelineGetShaderModule@@YAPEAUVkShaderModule_T@@PEAUVkDevice_T@@PEAXPEAUlinear_arena@@PEAUvk_shader_ref@@@Z 0000000180040c20 f i raymarch_art_demo.obj
 0001:0003fe20       ?VkPipelineGraphicsCreate@@YAPEAUvk_pipeline@@PEAUVkDevice_T@@PEAUvk_pipeline_manager@@PEAUlinear_arena@@PEAUvk_pipeline_builder_shader@@IPEAUVkPipelineLayoutCreateInfo@@PEAUVkGraphicsPipelineCreateInfo@@@Z 0000000180040e20 f i raymarch_art_demo.obj
 0001:00040690       ?VkPipelineInputAssemblyAdd@@YAXPEAUvk_pipeline_builder@@W4VkPrimitiveTopology@@I@Z 0000000180041690 f i raymarch_art_demo.obj
 0001:000406d0       ?VkPipelineManagerCreate@@YA?AUvk_pipeline_manager@@PEAUlinear_arena@@@Z 00000001800416d0 f i raymarch_art_demo.obj
 0001:00040790       ?VkPipelineShaderAdd@@YAXPEAUvk_pipeline_builder@@PEAD1W4VkShaderStageFlagBits@@@Z 0000000180041790 f i raymarch_art_demo.obj
 0001:00040820       ?VkPipelineShaderStage@@YA?AUVkPipelineShaderStageCreateInfo@@W4VkShaderStageFlagBits@@PEAUVkShaderModule_T@@PEAD@Z 0000000180041820 f i raymarch_art_demo.obj
 0001:00040890       ?VkPipelineUpdateShaders@@YAXPEAUVkDevice_T@@PEAUlinear_arena@@PEAUvk_pipeline_manager@@@Z 0000000180041890 f i raymarch_art_demo.obj
 0001:00040e30       ?VkPipelineVertexAttributeAdd@@YAXPEAUvk_pipeline_builder@@W4VkFormat@@I@Z 0000000180041e30 f i raymarch_art_demo.obj
 0001:00040f20       ?VkPipelineVertexAttributeAddOffset@@YAXPEAUvk_pipeline_builder@@I@Z 0000000180041f20 f i raymarch_art_demo.obj
 0001:00040f50       ?VkPipelineVertexBindingBegin@@YAXPEAUvk_pipeline_builder@@@Z 0000000180041f50 f i raymarch_art_demo.obj
 0001:00040ff0       ?VkPipelineVertexBindingEnd@@YAXPEAUvk_pipeline_builder@@@Z 0000000180041ff0 f i raymarch_art_demo.obj
 0001:00041030       ?VkPushSize@@YA?AUvk_ptr@@PEAUvk_linear_arena@@_K1@Z 0000000180042030 f i raymarch_art_demo.obj
 0001:000410f0       ?VkRenderPassAttachmentAdd@@YAIPEAUvk_render_pass_builder@@W4VkFormat@@W4VkAttachmentLoadOp@@W4VkAttachmentStoreOp@@W4VkImageLayout@@4@Z 00000001800420f0 f i raymarch_art_demo.obj
 0001:00041150       ?VkRenderPassAttachmentAdd@@YAIPEAUvk_render_pass_builder@@W4VkFormat@@W4VkSampleCountFlagBits@@W4VkAttachmentLoadOp@@W4VkAttachmentStoreOp@@W4VkImageLayout@@5@Z 0000000180042150 f i raymarch_art_demo.obj
 0001:00041230       ?VkRenderPassBuilderBegin@@YA?AUvk_render_pass_builder@@PEAUlinear_arena@@@Z 0000000180042230 f i raymarch_art_demo.obj
 0001:00041410       ?VkRenderPassBuilderEnd@@YAPEAUVkRenderPass_T@@PEAUvk_render_pass_builder@@PEAUVkDevice_T@@@Z 0000000180042410 f i raymarch_art_demo.obj
 0001:00041570       ?VkRenderPassColorRefAdd@@YAXPEAUvk_render_pass_builder@@IW4VkImageLayout@@@Z 0000000180042570 f i raymarch_art_demo.obj
 0001:00041650       ?VkRenderPassDepthRefAdd@@YAXPEAUvk_render_pass_builder@@IW4VkImageLayout@@@Z 0000000180042650 f i raymarch_art_demo.obj
 0001:00041740       ?VkRenderPassSubPassBegin@@YAXPEAUvk_render_pass_builder@@W4VkPipelineBindPoint@@@Z 0000000180042740 f i raymarch_art_demo.obj
 0001:00041800       ?VkRenderPassSubPassEnd@@YAXPEAUvk_render_pass_builder@@@Z 0000000180042800 f i raymarch_art_demo.obj
 0001:00041820       ?VkSamplerCreate@@YAPEAUVkSampler_T@@PEAUVkDevice_T@@W4VkFilter@@W4VkSamplerAddressMode@@W4VkBorderColor@@M@Z 0000000180042820 f i raymarch_art_demo.obj
 0001:00041940       ?VkSamplerMipMapCreate@@YAPEAUVkSampler_T@@PEAUVkDevice_T@@W4VkFilter@@W4VkSamplerAddressMode@@MW4VkSamplerMipmapMode@@MMM@Z 0000000180042940 f i raymarch_art_demo.obj
 0001:00041a70       ?VkStagingArenaCreate@@YA?AUvk_staging_arena@@PEAUVkDevice_T@@_K1I@Z 0000000180042a70 f i raymarch_art_demo.obj
 0001:00041af0       ?VkStagingPushSize@@YA?AUvk_staging_ptr@@PEAUvk_staging_arena@@_K1@Z 0000000180042af0 f i raymarch_art_demo.obj
 0001:00041e40       ?VkSwapChainReCreate@@YAXPEAUlinear_arena@@IIW4VkPresentModeKHR@@@Z 0000000180042e40 f i raymarch_art_demo.obj
 0001:000425f0       ?ZeroMem@@YAXPEAX_K@Z      00000001800435f0 f i raymarch_art_demo.obj
 0001:00042650       ?acos@@YAMM@Z              0000000180043650 f i raymarch_art_demo.obj
 0001:00042670       ?ceil@@YAMM@Z              0000000180043670 f i raymarch_art_demo.obj
 0001:00042690       ?cos@@YAMM@Z               0000000180043690 f i raymarch_art_demo.obj
 0001:000426b0       ?fabs@@YAMM@Z              00000001800436b0 f i raymarch_art_demo.obj
 0001:000426d0       ?floor@@YAMM@Z             00000001800436d0 f i raymarch_art_demo.obj
 0001:000426f0       ?fmod@@YAMMM@Z             00000001800436f0 f i raymarch_art_demo.obj
 0001:00042720       ?pow@@YAMMM@Z              0000000180043720 f i raymarch_art_demo.obj
 0001:00042750       ?sqrt@@YAMM@Z              0000000180043750 f i raymarch_art_demo.obj
 0001:00042770       fabsf                      0000000180043770 f i raymarch_art_demo.obj
 0001:00042790       __GSHandlerCheck           0000000180043790 f   LIBCMTD:gshandler.obj
 0001:000427d0       __GSHandlerCheckCommon     00000001800437d0 f   LIBCMTD:gshandler.obj
 0001:000428e0       _alloca_probe              00000001800438e0 f   LIBCMTD:chkstk.obj
 0001:000428e0       __chkstk                   00000001800438e0 f   LIBCMTD:chkstk.obj
 0001:00042950       __security_check_cookie    0000000180043950 f   LIBCMTD:amdsecgs.obj
 0001:00042d70       _DllMainCRTStartup         0000000180043d70 f   LIBCMTD:dll_dllmain.obj
 0001:00042db0       __raise_securityfailure    0000000180043db0 f   LIBCMTD:gs_report.obj
 0001:00042df0       __report_gsfailure         0000000180043df0 f   LIBCMTD:gs_report.obj
 0001:00042ed0       __report_rangecheckfailure 0000000180043ed0 f   LIBCMTD:gs_report.obj
 0001:00042ef0       __report_securityfailure   0000000180043ef0 f   LIBCMTD:gs_report.obj
 0001:000431b0       __security_init_cookie     00000001800441b0 f   LIBCMTD:gs_support.obj
 0001:00043230       DllMain                    0000000180044230 f   LIBCMTD:dll_dllmain_stub.obj
 0001:00043250       ?__scrt_initialize_type_info@@YAXXZ 0000000180044250 f   LIBCMTD:tncleanup.obj
 0001:00043270       ?__scrt_uninitialize_type_info@@YAXXZ 0000000180044270 f   LIBCMTD:tncleanup.obj
 0001:00043290       __local_stdio_printf_options 0000000180044290 f i LIBCMTD:default_local_stdio_options.obj
 0001:000432a0       __local_stdio_scanf_options 00000001800442a0 f i LIBCMTD:default_local_stdio_options.obj
 0001:000432b0       __scrt_initialize_default_local_stdio_options 00000001800442b0 f   LIBCMTD:default_local_stdio_options.obj
 0001:00043300       ??$__crt_fast_decode_pointer@PEAP6AXXZ@@YAPEAP6AXXZQEAP6AXXZ@Z 0000000180044300 f i LIBCMTD:utility.obj
 0001:00043300       ??$__crt_fast_decode_pointer@P6AXXZ@@YAP6AXXZQ6AXXZ@Z 0000000180044300 f i libvcruntimed:purevirt.obj
 0001:00043300       ??$__crt_fast_decode_pointer@PEAX@@YAPEAXQEAX@Z 0000000180044300 f i libvcruntimed:winapi_downlevel.obj
 0001:00043340       ??$__crt_fast_encode_pointer@PEAP6AXXZ@@YAPEAP6AXXZQEAP6AXXZ@Z 0000000180044340 f i LIBCMTD:utility.obj
 0001:00043340       ??$__crt_fast_encode_pointer@PEAX@@YAPEAXQEAX@Z 0000000180044340 f i libvcruntimed:winapi_downlevel.obj
 0001:00043340       ??$__crt_fast_encode_pointer@P6AXXZ@@YAP6AXXZQ6AXXZ@Z 0000000180044340 f i libvcruntimed:purevirt_data.obj
 0001:00043380       ?__crt_rotate_pointer_value@@YA_K_KH@Z 0000000180044380 f i LIBCMTD:utility.obj
 0001:000433a0       ?configure_argv@__scrt_narrow_argv_policy@@SAHXZ 00000001800443a0 f i LIBCMTD:utility.obj
 0001:00043490       ?initialize_environment@__scrt_narrow_environment_policy@@SAHXZ 0000000180044490 f i LIBCMTD:utility.obj
 0001:00043530       NtCurrentTeb               0000000180044530 f i LIBCMTD:utility.obj
 0001:00043540       __scrt_acquire_startup_lock 0000000180044540 f   LIBCMTD:utility.obj
 0001:000435b0       __scrt_dllmain_after_initialize_c 00000001800445b0 f   LIBCMTD:utility.obj
 0001:000435e0       __scrt_dllmain_before_initialize_c 00000001800445e0 f   LIBCMTD:utility.obj
 0001:00043600       __scrt_dllmain_crt_thread_attach 0000000180044600 f   LIBCMTD:utility.obj
 0001:00043630       __scrt_dllmain_crt_thread_detach 0000000180044630 f   LIBCMTD:utility.obj
 0001:00043650       __scrt_dllmain_exception_filter 0000000180044650 f   LIBCMTD:utility.obj
 0001:000436b0       __scrt_dllmain_uninitialize_c 00000001800446b0 f   LIBCMTD:utility.obj
 0001:000436e0       __scrt_dllmain_uninitialize_critical 00000001800446e0 f   LIBCMTD:utility.obj
 0001:00043700       __scrt_initialize_crt      0000000180044700 f   LIBCMTD:utility.obj
 0001:00043750       __scrt_initialize_onexit_tables 0000000180044750 f   LIBCMTD:utility.obj
 0001:00043860       __scrt_is_nonwritable_in_current_image 0000000180044860 f   LIBCMTD:utility.obj
 0001:000438f0       __scrt_release_startup_lock 00000001800448f0 f   LIBCMTD:utility.obj
 0001:00043920       __scrt_uninitialize_crt    0000000180044920 f   LIBCMTD:utility.obj
 0001:00043960       __scrt_get_dyn_tls_init_callback 0000000180044960 f   LIBCMTD:dyn_tls_init.obj
 0001:00043970       __crt_debugger_hook        0000000180044970 f   LIBCMTD:utility_desktop.obj
 0001:00043980       __scrt_fastfail            0000000180044980 f   LIBCMTD:utility_desktop.obj
 0001:00043b20       _RTC_Initialize            0000000180044b20 f   LIBCMTD:initsect.obj
 0001:00043b70       _RTC_Terminate             0000000180044b70 f   LIBCMTD:initsect.obj
 0001:00043bc0       _guard_check_icall_nop     0000000180044bc0 f i LIBCMTD:guard_support.obj
 0001:00043bd0       ?__crt_interlocked_read_64@@YA_JPED_J@Z 0000000180044bd0 f i libvcruntimed:std_type_info.obj
 0001:00043bd0       ReadNoFence64              0000000180044bd0 f i LIBCMTD:guard_support.obj
 0001:00043bf0       ??$__crt_interlocked_read_pointer@X@@YAPEAXPEDSEAX@Z 0000000180044bf0 f i libvcruntimed:winapi_downlevel.obj
 0001:00043bf0       ReadPointerNoFence         0000000180044bf0 f i LIBCMTD:guard_support.obj
 0001:00043bf0       ??$__crt_interlocked_read_pointer@UHINSTANCE__@@@@YAPEAUHINSTANCE__@@PEDSEAU0@@Z 0000000180044bf0 f i libvcruntimed:winapi_downlevel.obj
 0001:00043c10       _guard_icall_checks_enforced 0000000180044c10 f i LIBCMTD:guard_support.obj
 0001:00043c50       __isa_available_init       0000000180044c50 f   LIBCMTD:cpu_disp.obj
 0001:00043fc0       _get_startup_argv_mode     0000000180044fc0 f   LIBCMTD:argv_mode.obj
 0001:00043fd0       __scrt_is_ucrt_dll_in_use  0000000180044fd0 f   LIBCMTD:ucrt_detection.obj
 0001:00044000       IsProcessorFeaturePresent  0000000180045000 f   kernel32:KERNEL32.dll
 0001:00044010       __C_specific_handler       0000000180045010 f   libvcruntimed:riscchandler.obj
 0001:00044450       ??$?RU__vcrt_ptd@@@__crt_internal_free_policy@@QEBAXQEBU__vcrt_ptd@@@Z 0000000180045450 f i libvcruntimed:per_thread_data.obj
 0001:00044450       ??$?RD@__crt_internal_free_policy@@QEBAXQEBD@Z 0000000180045450 f i libvcruntimed:std_type_info.obj
 0001:00044480       ??0?$__crt_unique_heap_ptr@DU__crt_public_free_policy@@@@QEAA@QEAD@Z 0000000180045480 f i libvcruntimed:std_exception.obj
 0001:00044480       ??0?$__crt_unique_heap_ptr@U__vcrt_ptd@@U__crt_internal_free_policy@@@@QEAA@QEAU__vcrt_ptd@@@Z 0000000180045480 f i libvcruntimed:per_thread_data.obj
 0001:00044480       ??0?$__crt_unique_heap_ptr@DU__crt_internal_free_policy@@@@QEAA@QEAD@Z 0000000180045480 f i libvcruntimed:std_type_info.obj
 0001:000444a0       ??1?$__crt_unique_heap_ptr@U__vcrt_ptd@@U__crt_internal_free_policy@@@@QEAA@XZ 00000001800454a0 f i libvcruntimed:per_thread_data.obj
 0001:000444a0       ??1?$__crt_unique_heap_ptr@DU__crt_internal_free_policy@@@@QEAA@XZ 00000001800454a0 f i libvcruntimed:std_type_info.obj
 0001:000444c0       ??B?$__crt_unique_heap_ptr@DU__crt_internal_free_policy@@@@QEBA_NXZ 00000001800454c0 f i libvcruntimed:std_type_info.obj
 0001:000444c0       ??B?$__crt_unique_heap_ptr@U__vcrt_ptd@@U__crt_internal_free_policy@@@@QEBA_NXZ 00000001800454c0 f i libvcruntimed:per_thread_data.obj
 0001:000444c0       ??B?$__crt_unique_heap_ptr@DU__crt_public_free_policy@@@@QEBA_NXZ 00000001800454c0 f i libvcruntimed:std_exception.obj
 0001:000444e0       ?getFuncInfo@TryBlockMap@__FrameHandler3@@QEAAPEBU_s_FuncInfo@@XZ 00000001800454e0 f i libvcruntimed:risctrnsctrl.obj
 0001:000444e0       ?get@?$__crt_unique_heap_ptr@DU__crt_internal_free_policy@@@@QEBAPEADXZ 00000001800454e0 f i libvcruntimed:std_type_info.obj
 0001:000444e0       ?get@?$__crt_unique_heap_ptr@U__vcrt_ptd@@U__crt_internal_free_policy@@@@QEBAPEAU__vcrt_ptd@@XZ 00000001800454e0 f i libvcruntimed:per_thread_data.obj
 0001:000444e0       ?get@?$__crt_unique_heap_ptr@DU__crt_public_free_policy@@@@QEBAPEADXZ 00000001800454e0 f i libvcruntimed:std_exception.obj
 0001:000444f0       ?is_valid@?$__crt_unique_heap_ptr@DU__crt_internal_free_policy@@@@QEBA_NXZ 00000001800454f0 f i libvcruntimed:std_type_info.obj
 0001:000444f0       ?is_valid@?$__crt_unique_heap_ptr@U__vcrt_ptd@@U__crt_internal_free_policy@@@@QEBA_NXZ 00000001800454f0 f i libvcruntimed:per_thread_data.obj
 0001:000444f0       ?is_valid@?$__crt_unique_heap_ptr@DU__crt_public_free_policy@@@@QEBA_NXZ 00000001800454f0 f i libvcruntimed:std_exception.obj
 0001:00044520       ?release@?$__crt_unique_heap_ptr@U__vcrt_ptd@@U__crt_internal_free_policy@@@@QEAAXXZ 0000000180045520 f i libvcruntimed:per_thread_data.obj
 0001:00044520       ?release@?$__crt_unique_heap_ptr@DU__crt_internal_free_policy@@@@QEAAXXZ 0000000180045520 f i libvcruntimed:std_type_info.obj
 0001:00044550       __std_type_info_compare    0000000180045550 f   libvcruntimed:std_type_info.obj
 0001:00044590       __std_type_info_destroy_list 0000000180045590 f   libvcruntimed:std_type_info.obj
 0001:000445f0       __vcrt_initialize          00000001800455f0 f   libvcruntimed:initialization.obj
 0001:00044630       __vcrt_thread_attach       0000000180045630 f   libvcruntimed:initialization.obj
 0001:00044650       __vcrt_thread_detach       0000000180045650 f   libvcruntimed:initialization.obj
 0001:00044670       __vcrt_uninitialize        0000000180045670 f   libvcruntimed:initialization.obj
 0001:000446a0       __vcrt_uninitialize_critical 00000001800456a0 f   libvcruntimed:initialization.obj
 0001:000446d0       _NLG_Notify                00000001800456d0 f   libvcruntimed:notify.obj
 0001:000446f0       __NLG_Dispatch2            00000001800456f0 f   libvcruntimed:notify.obj
 0001:00044700       __NLG_Return2              0000000180045700 f   libvcruntimed:notify.obj
 0001:00044710       __except_validate_context_record 0000000180045710 f   libvcruntimed:jbcxrval.obj
 0001:00044770       __DestructExceptionObject  0000000180045770 f   libvcruntimed:ehhelpers.obj
 0001:00044870       ?_CallMemberFunction0@@YAXQEAX0@Z 0000000180045870 f i libvcruntimed:ehhelpers.obj
 0001:000448a0       _IsExceptionObjectToBeDestroyed 00000001800458a0 f   libvcruntimed:ehhelpers.obj
 0001:000448f0       __AdjustPointer            00000001800458f0 f   libvcruntimed:ehhelpers.obj
 0001:00044970       __FrameUnwindFilter        0000000180045970 f   libvcruntimed:ehhelpers.obj
 0001:00044a00       _vsprintf_s_l              0000000180045a00 f i libvcruntimed:undname.obj
 0001:00044a70       sprintf_s                  0000000180045a70 f i libvcruntimed:undname.obj
 0001:00044b10       ?detach@?$__crt_unique_heap_ptr@U__vcrt_ptd@@U__crt_internal_free_policy@@@@QEAAPEAU__vcrt_ptd@@XZ 0000000180045b10 f i libvcruntimed:per_thread_data.obj
 0001:00044b10       ?detach@?$__crt_unique_heap_ptr@DU__crt_public_free_policy@@@@QEAAPEADXZ 0000000180045b10 f i libvcruntimed:std_exception.obj
 0001:00044b90       __vcrt_freefls             0000000180045b90 f   libvcruntimed:per_thread_data.obj
 0001:00044bd0       __vcrt_freeptd             0000000180045bd0 f   libvcruntimed:per_thread_data.obj
 0001:00044c30       __vcrt_getptd              0000000180045c30 f   libvcruntimed:per_thread_data.obj
 0001:00044c60       __vcrt_getptd_noexit       0000000180045c60 f   libvcruntimed:per_thread_data.obj
 0001:00044e00       __vcrt_initialize_ptd      0000000180045e00 f   libvcruntimed:per_thread_data.obj
 0001:00044e50       __vcrt_uninitialize_ptd    0000000180045e50 f   libvcruntimed:per_thread_data.obj
 0001:00044e80       __vcrt_initialize_locks    0000000180045e80 f   libvcruntimed:locks.obj
 0001:00044ef0       __vcrt_uninitialize_locks  0000000180045ef0 f   libvcruntimed:locks.obj
 0001:00044f50       ??$?BX@__crt_fast_encoded_nullptr_t@@QEBAPEAXXZ 0000000180045f50 f i libvcruntimed:winapi_downlevel.obj
 0001:00044f50       ??$?B$$A6AXXZ@__crt_fast_encoded_nullptr_t@@QEBAP6AXXZXZ 0000000180045f50 f i libvcruntimed:purevirt_data.obj
 0001:00044f70       ??$__crt_interlocked_exchange_pointer@XPEAX@@YAPEAXPEDSEAXQEAX@Z 0000000180045f70 f i libvcruntimed:winapi_downlevel.obj
 0001:00044f70       ??$__crt_interlocked_exchange_pointer@UHINSTANCE__@@PEAX@@YAPEAUHINSTANCE__@@PEDSEAU0@QEAX@Z 0000000180045f70 f i libvcruntimed:winapi_downlevel.obj
 0001:00044f70       ??$__crt_interlocked_exchange_pointer@UHINSTANCE__@@PEAU1@@@YAPEAUHINSTANCE__@@PEDSEAU0@QEAU0@@Z 0000000180045f70 f i libvcruntimed:winapi_downlevel.obj
 0001:00044f90       ?__crt_fast_encode_pointer@@YA?AU__crt_fast_encoded_nullptr_t@@$$T@Z 0000000180045f90 f i libvcruntimed:winapi_downlevel.obj
 0001:000454f0       __vcrt_FlsAlloc            00000001800464f0 f   libvcruntimed:winapi_downlevel.obj
 0001:00045540       __vcrt_FlsFree             0000000180046540 f   libvcruntimed:winapi_downlevel.obj
 0001:00045590       __vcrt_FlsGetValue         0000000180046590 f   libvcruntimed:winapi_downlevel.obj
 0001:000455e0       __vcrt_FlsSetValue         00000001800465e0 f   libvcruntimed:winapi_downlevel.obj
 0001:00045640       __vcrt_InitializeCriticalSectionEx 0000000180046640 f   libvcruntimed:winapi_downlevel.obj
 0001:000456a0       __vcrt_initialize_winapi_thunks 00000001800466a0 f   libvcruntimed:winapi_downlevel.obj
 0001:00045720       __vcrt_uninitialize_winapi_thunks 0000000180046720 f   libvcruntimed:winapi_downlevel.obj
 0001:000457c0       __vcrt_initialize_pure_virtual_call_handler 00000001800467c0 f   libvcruntimed:purevirt_data.obj
 0001:00045800       memcpy_repmovs             0000000180046800 f   libvcruntimed:memcpy.obj
 0001:00045820       memcpy                     0000000180046820 f   libvcruntimed:memcpy.obj
 0001:00045820       memmove                    0000000180046820 f   libvcruntimed:memcpy.obj
 0001:00045c60       ??$?0AEAViterator@TryBlockMap@__FrameHandler3@@AEAV012@$0A@@?$pair@Viterator@TryBlockMap@__FrameHandler3@@V123@@std@@QEAA@AEAViterator@TryBlockMap@__FrameHandler3@@0@Z 0000000180046c60 f i libvcruntimed:risctrnsctrl.obj
 0001:00045d70       ??$_CallSETranslator@V__FrameHandler3@@@@YAHPEAUEHExceptionRecord@@PEA_KPEAU_CONTEXT@@PEAU_xDISPATCHER_CONTEXT@@PEBU_s_FuncInfo@@K1@Z 0000000180046d70 f i libvcruntimed:risctrnsctrl.obj
 0001:00045df0       ??$forward@AEAViterator@TryBlockMap@__FrameHandler3@@@std@@YAAEAViterator@TryBlockMap@__FrameHandler3@@AEAV123@@Z 0000000180046df0 f i libvcruntimed:risctrnsctrl.obj
 0001:00045e00       ??0iterator@HandlerMap@__FrameHandler3@@QEAA@AEAV12@I@Z 0000000180046e00 f i libvcruntimed:frame.obj
 0001:00045e00       ??0iterator@TryBlockMap@__FrameHandler3@@QEAA@AEAV12@I@Z 0000000180046e00 f i libvcruntimed:risctrnsctrl.obj
 0001:00045e30       ?CatchTryBlock@__FrameHandler3@@SAPEBU_s_TryBlockMapEntry@@PEBU_s_FuncInfo@@H@Z 0000000180046e30 f   libvcruntimed:risctrnsctrl.obj
 0001:00045ed0       ?ExecutionInCatch@__FrameHandler3@@SA_NPEAU_xDISPATCHER_CONTEXT@@PEBU_s_FuncInfo@@@Z 0000000180046ed0 f   libvcruntimed:risctrnsctrl.obj
 0001:00045f20       ?FrameUnwindToEmptyState@__FrameHandler3@@SAXPEA_KPEAU_xDISPATCHER_CONTEXT@@PEBU_s_FuncInfo@@@Z 0000000180046f20 f   libvcruntimed:risctrnsctrl.obj
 0001:00045fc0       ?GetEstablisherFrame@__FrameHandler3@@SAPEA_KPEA_KPEAU_xDISPATCHER_CONTEXT@@PEBU_s_FuncInfo@@0@Z 0000000180046fc0 f   libvcruntimed:risctrnsctrl.obj
 0001:00046130       ?GetRangeOfTrysToCheck@__FrameHandler3@@SA?AU?$pair@Viterator@TryBlockMap@__FrameHandler3@@V123@@std@@AEAVTryBlockMap@1@HH@Z 0000000180047130 f   libvcruntimed:risctrnsctrl.obj
 0001:00046380       ?UnwindNestedFrames@__FrameHandler3@@SAXPEA_KPEAUEHExceptionRecord@@PEAU_CONTEXT@@0PEAXPEBU_s_FuncInfo@@HHPEBU_s_HandlerType@@PEAU_xDISPATCHER_CONTEXT@@E@Z 0000000180047380 f   libvcruntimed:risctrnsctrl.obj
 0001:000464f0       ?getpDC@TryBlockMap@__FrameHandler3@@QEAAPEAU_xDISPATCHER_CONTEXT@@XZ 00000001800474f0 f i libvcruntimed:risctrnsctrl.obj
 0001:00046500       _CreateFrameInfo           0000000180047500 f   libvcruntimed:risctrnsctrl.obj
 0001:00046570       _FindAndUnlinkFrame        0000000180047570 f   libvcruntimed:risctrnsctrl.obj
 0001:000465f0       _GetImageBase              00000001800475f0 f   libvcruntimed:risctrnsctrl.obj
 0001:00046610       _GetThrowImageBase         0000000180047610 f   libvcruntimed:risctrnsctrl.obj
 0001:00046630       _SetImageBase              0000000180047630 f   libvcruntimed:risctrnsctrl.obj
 0001:00046650       _SetThrowImageBase         0000000180047650 f   libvcruntimed:risctrnsctrl.obj
 0001:00046670       __CxxFrameHandler3         0000000180047670 f   libvcruntimed:risctrnsctrl.obj
 0001:00046730       ?GetCurrentState@__FrameHandler3@@SAHPEA_KPEAU_xDISPATCHER_CONTEXT@@PEBU_s_FuncInfo@@@Z 0000000180047730 f   libvcruntimed:ehstate.obj
 0001:00046790       ?GetUnwindTryBlock@__FrameHandler3@@SAHPEA_KPEAU_xDISPATCHER_CONTEXT@@PEBU_s_FuncInfo@@@Z 0000000180047790 f   libvcruntimed:ehstate.obj
 0001:000467e0       ?SetState@__FrameHandler3@@SAXPEA_KPEBU_s_FuncInfo@@H@Z 00000001800477e0 f   libvcruntimed:ehstate.obj
 0001:00046810       ?SetUnwindTryBlock@__FrameHandler3@@SAXPEA_KPEAU_xDISPATCHER_CONTEXT@@PEBU_s_FuncInfo@@H@Z 0000000180047810 f   libvcruntimed:ehstate.obj
 0001:00046880       ?StateFromControlPc@__FrameHandler3@@SAHPEBU_s_FuncInfo@@PEAU_xDISPATCHER_CONTEXT@@@Z 0000000180047880 f   libvcruntimed:ehstate.obj
 0001:000468c0       ?StateFromIp@__FrameHandler3@@SAHPEBU_s_FuncInfo@@PEAU_xDISPATCHER_CONTEXT@@_K@Z 00000001800478c0 f   libvcruntimed:ehstate.obj
 0001:00047b10       ??$TypeMatchHelper@V__FrameHandler3@@@@YAHPEBU_s_HandlerType@@PEBU_s_CatchableType@@PEBU_s_ThrowInfo@@@Z 0000000180048b10 f i libvcruntimed:frame.obj
 0001:00047d00       ??$__InternalCxxFrameHandler@V__FrameHandler3@@@@YA?AW4_EXCEPTION_DISPOSITION@@PEAUEHExceptionRecord@@PEA_KPEAU_CONTEXT@@PEAU_xDISPATCHER_CONTEXT@@PEBU_s_FuncInfo@@H1E@Z 0000000180048d00 f i libvcruntimed:frame.obj
 0001:00048180       ??0HandlerMap@__FrameHandler3@@QEAA@PEBU_s_TryBlockMapEntry@@PEAU_xDISPATCHER_CONTEXT@@@Z 0000000180049180 f i libvcruntimed:frame.obj
 0001:000481c0       ??0TryBlockMap@__FrameHandler3@@QEAA@PEBU_s_FuncInfo@@PEAU_xDISPATCHER_CONTEXT@@@Z 00000001800491c0 f i libvcruntimed:frame.obj
 0001:000481f0       ??0bad_exception@std@@QEAA@AEBV01@@Z 00000001800491f0 f i libvcruntimed:frame.obj
 0001:00048230       ??0bad_exception@std@@QEAA@XZ 0000000180049230 f i libvcruntimed:frame.obj
 0001:00048270       ??0exception@std@@QEAA@AEBV01@@Z 0000000180049270 f i libvcruntimed:frame.obj
 0001:000482d0       ??0exception@std@@QEAA@QEBDH@Z 00000001800492d0 f i libvcruntimed:frame.obj
 0001:00048320       ??1bad_exception@std@@UEAA@XZ 0000000180049320 f i libvcruntimed:frame.obj
 0001:00048340       ??1exception@std@@UEAA@XZ  0000000180049340 f i libvcruntimed:frame.obj
 0001:00048370       ??8iterator@HandlerMap@__FrameHandler3@@QEBA_NAEBV012@@Z 0000000180049370 f i libvcruntimed:frame.obj
 0001:000483b0       ??8type_info@@QEBA_NAEBV0@@Z 00000001800493b0 f i libvcruntimed:frame.obj
 0001:00048400       ??9iterator@HandlerMap@__FrameHandler3@@QEBA_NAEBV012@@Z 0000000180049400 f i libvcruntimed:frame.obj
 0001:00048440       ??Diterator@HandlerMap@__FrameHandler3@@QEAAPEBU_s_HandlerType@@XZ 0000000180049440 f i libvcruntimed:frame.obj
 0001:00048470       ??Diterator@TryBlockMap@__FrameHandler3@@QEAAPEBU_s_TryBlockMapEntry@@XZ 0000000180049470 f i libvcruntimed:frame.obj
 0001:000484b0       ??Eiterator@HandlerMap@__FrameHandler3@@QEAAAEAV012@XZ 00000001800494b0 f i libvcruntimed:frame.obj
 0001:000484b0       ??Eiterator@TryBlockMap@__FrameHandler3@@QEAAAEAV012@XZ 00000001800494b0 f i libvcruntimed:frame.obj
 0001:000484d0       ??Miterator@TryBlockMap@__FrameHandler3@@QEBA_NAEBV012@@Z 00000001800494d0 f i libvcruntimed:frame.obj
 0001:00048510       ??_Ebad_exception@std@@UEAAPEAXI@Z 0000000180049510 f i libvcruntimed:frame.obj
 0001:00048510       ??_Gbad_exception@std@@UEAAPEAXI@Z 0000000180049510 f i libvcruntimed:frame.obj
 0001:00048550       ??_Gexception@std@@UEAAPEAXI@Z 0000000180049550 f i libvcruntimed:frame.obj
 0001:00048550       ??_Eexception@std@@UEAAPEAXI@Z 0000000180049550 f i libvcruntimed:frame.obj
 0001:00048590       ?BuildCatchObject@__FrameHandler3@@SAXPEAUEHExceptionRecord@@PEAXPEBU_s_HandlerType@@PEBU_s_CatchableType@@@Z 0000000180049590 f   libvcruntimed:frame.obj
 0001:000485d0       ?CxxCallCatchBlock@__FrameHandler3@@SAPEAXPEAU_EXCEPTION_RECORD@@@Z 00000001800495d0 f   libvcruntimed:frame.obj
 0001:00048930       ?FrameUnwindToState@__FrameHandler3@@SAXPEA_KPEAU_xDISPATCHER_CONTEXT@@PEBU_s_FuncInfo@@H@Z 0000000180049930 f   libvcruntimed:frame.obj
 0001:00048bc0       ?GetHandlerSearchState@__FrameHandler3@@SAHPEA_KPEAU_xDISPATCHER_CONTEXT@@PEBU_s_FuncInfo@@@Z 0000000180049bc0 f i libvcruntimed:frame.obj
 0001:00048c70       ?GetMaxState@__FrameHandler3@@SAHPEAU_xDISPATCHER_CONTEXT@@PEBU_s_FuncInfo@@@Z 0000000180049c70 f i libvcruntimed:frame.obj
 0001:00048ea0       __TypeMatch                0000000180049ea0 f   libvcruntimed:frame.obj
 0001:00048ea0       ?TypeMatch@__FrameHandler3@@SAHPEBU_s_HandlerType@@PEBU_s_CatchableType@@PEBU_s_ThrowInfo@@@Z 0000000180049ea0 f   libvcruntimed:frame.obj
 0001:00048ed0       ?_CallMemberFunction1@@YAXQEAX00@Z 0000000180049ed0 f i libvcruntimed:frame.obj
 0001:00048f00       ?_CallMemberFunction2@@YAXQEAX00H@Z 0000000180049f00 f i libvcruntimed:frame.obj
 0001:00048f40       ?_ValidateExecute@@YA_NP6A_JXZ@Z 0000000180049f40 f i libvcruntimed:frame.obj
 0001:00048f60       ?_ValidateRead@@YA_NPEBXI@Z 0000000180049f60 f i libvcruntimed:frame.obj
 0001:00048f60       ?_ValidateWrite@@YA_NPEAXI@Z 0000000180049f60 f i libvcruntimed:frame.obj
 0001:00048fc0       ?begin@HandlerMap@__FrameHandler3@@QEAA?AViterator@12@XZ 0000000180049fc0 f i libvcruntimed:frame.obj
 0001:00048ff0       ?end@HandlerMap@__FrameHandler3@@QEAA?AViterator@12@XZ 0000000180049ff0 f i libvcruntimed:frame.obj
 0001:00049020       ?getESTypes@__FrameHandler3@@SAPEBU_s_ESTypeList@@PEBU_s_FuncInfo@@@Z 000000018004a020 f i libvcruntimed:frame.obj
 0001:00049060       ?getLastEntry@HandlerMap@__FrameHandler3@@QEAAPEBU_s_HandlerType@@XZ 000000018004a060 f i libvcruntimed:frame.obj
 0001:00049080       ?getMagicNum@__FrameHandler3@@SAIPEBU_s_FuncInfo@@@Z 000000018004a080 f i libvcruntimed:frame.obj
 0001:000490a0       ?getNumTryBlocks@TryBlockMap@__FrameHandler3@@QEAAIXZ 000000018004a0a0 f i libvcruntimed:frame.obj
 0001:000490c0       ?isEHs@__FrameHandler3@@SA_NPEBU_s_FuncInfo@@@Z 000000018004a0c0 f i libvcruntimed:frame.obj
 0001:00049100       ?isNoExcept@__FrameHandler3@@SA_NPEBU_s_FuncInfo@@@Z 000000018004a100 f i libvcruntimed:frame.obj
 0001:00049140       ?what@exception@std@@UEBAPEBDXZ 000000018004a140 f i libvcruntimed:frame.obj
 0001:00049180       __vcrt_EncodePointer       000000018004a180 f i libvcruntimed:frame.obj
 0001:000491b0       memset_repmovs             000000018004a1b0 f   libvcruntimed:memset.obj
 0001:000491d0       memset                     000000018004a1d0 f   libvcruntimed:memset.obj
 0001:00049370       _CallSettingFrame          000000018004a370 f   libvcruntimed:handlers.obj
 0001:000493c0       _CallSettingFrameEncoded   000000018004a3c0 f   libvcruntimed:handlers.obj
 0001:00049410       ??$?RD@__crt_public_free_policy@@QEBAXQEBD@Z 000000018004a410 f i libvcruntimed:std_exception.obj
 0001:00049430       ??1?$__crt_unique_heap_ptr@DU__crt_public_free_policy@@@@QEAA@XZ 000000018004a430 f i libvcruntimed:std_exception.obj
 0001:00049450       ?release@?$__crt_unique_heap_ptr@DU__crt_public_free_policy@@@@QEAAXXZ 000000018004a450 f i libvcruntimed:std_exception.obj
 0001:00049480       __std_exception_copy       000000018004a480 f   libvcruntimed:std_exception.obj
 0001:000495b0       __std_exception_destroy    000000018004a5b0 f   libvcruntimed:std_exception.obj
 0001:000495f0       _CxxThrowException         000000018004a5f0 f   libvcruntimed:throw.obj
 0001:00049750       strncmp                    000000018004a750 f   libucrtd:strncmp.obj
 0001:000497d0       free                       000000018004a7d0 f   libucrtd:free.obj
 0001:00049800       malloc                     000000018004a800 f   libucrtd:malloc.obj
 0001:00049830       realloc                    000000018004a830 f   libucrtd:realloc.obj
 0001:00049870       ??$is_overflow_condition@K@__crt_strtox@@YA_NIK@Z 000000018004a870 f i libucrtd:strtox.obj
 0001:000498e0       ??$make_c_string_character_source@DPEAPEAD@__crt_strtox@@YA?AV?$c_string_character_source@D@0@QEBDQEAPEAD@Z 000000018004a8e0 f i libucrtd:strtox.obj
 0001:00049920       ??$make_c_string_character_source@_WPEAPEA_W@__crt_strtox@@YA?AV?$c_string_character_source@_W@0@QEB_WQEAPEA_W@Z 000000018004a920 f i libucrtd:strtox.obj
 0001:00049960       ??$parse_integer@KV?$c_string_character_source@D@__crt_strtox@@$00@__crt_strtox@@YAKAEAV__crt_cached_ptd_host@@V?$c_string_character_source@D@0@H_N@Z 000000018004a960 f i libucrtd:strtox.obj
 0001:00049e20       ??$parse_integer_from_string@JDPEAPEAD@__crt_strtox@@YAJQEBDQEAPEADHQEAU__crt_locale_pointers@@@Z 000000018004ae20 f i libucrtd:strtox.obj
 0001:00049eb0       ??0?$c_string_character_source@D@__crt_strtox@@QEAA@QEBDQEAPEBD@Z 000000018004aeb0 f i libucrtd:strtox.obj
 0001:00049f00       ??0?$c_string_character_source@_W@__crt_strtox@@QEAA@QEB_WQEAPEB_W@Z 000000018004af00 f i libucrtd:strtox.obj
 0001:00049f50       ??0?$cached@H@__crt_cached_ptd_host@@QEAA@XZ 000000018004af50 f i libucrtd:strtox.obj
 0001:00049f70       ??0?$cached@K@__crt_cached_ptd_host@@QEAA@XZ 000000018004af70 f i libucrtd:strtox.obj
 0001:00049f90       ??0__crt_cached_ptd_host@@QEAA@QEAU__crt_locale_pointers@@@Z 000000018004af90 f i libucrtd:strtox.obj
 0001:0004a050       ??0__crt_scoped_get_last_error_reset@@QEAA@XZ 000000018004b050 f i libucrtd:strtox.obj
 0001:0004a070       ??1?$c_string_character_source@D@__crt_strtox@@QEAA@XZ 000000018004b070 f i libucrtd:strtox.obj
 0001:0004a0a0       ??1?$c_string_character_source@_W@__crt_strtox@@QEAA@XZ 000000018004b0a0 f i libucrtd:strtox.obj
 0001:0004a0d0       ??1__crt_cached_ptd_host@@QEAA@XZ 000000018004b0d0 f i libucrtd:strtox.obj
 0001:0004a180       ??1__crt_scoped_get_last_error_reset@@QEAA@XZ 000000018004b180 f i libucrtd:strtox.obj
 0001:0004a1a0       ?check_synchronize_global_state_index@__crt_cached_ptd_host@@AEAA_KAEBV__crt_scoped_get_last_error_reset@@@Z 000000018004b1a0 f i libucrtd:strtox.obj
 0001:0004a1e0       ?check_synchronize_per_thread_data@__crt_cached_ptd_host@@AEAAPEAU__acrt_ptd@@XZ 000000018004b1e0 f i libucrtd:strtox.obj
 0001:0004a220       ?force_synchronize_global_state_index@__crt_cached_ptd_host@@AEAA_KAEBV__crt_scoped_get_last_error_reset@@@Z 000000018004b220 f i libucrtd:strtox.obj
 0001:0004a260       ?force_synchronize_per_thread_data@__crt_cached_ptd_host@@AEAAPEAU__acrt_ptd@@XZ 000000018004b260 f i libucrtd:strtox.obj
 0001:0004a2c0       ?get@?$c_string_character_source@D@__crt_strtox@@QEAADXZ 000000018004b2c0 f i libucrtd:strtox.obj
 0001:0004a300       ?get@?$c_string_character_source@_W@__crt_strtox@@QEAA_WXZ 000000018004b300 f i libucrtd:strtox.obj
 0001:0004a340       ?get_current_state_index@__crt_state_management@@YA_KAEBV__crt_scoped_get_last_error_reset@@@Z 000000018004b340 f i libucrtd:strtox.obj
 0001:0004a350       ?get_errno@__crt_cached_ptd_host@@QEAAAEAU?$cached@H@1@XZ 000000018004b350 f i libucrtd:strtox.obj
 0001:0004a360       ?get_locale@__crt_cached_ptd_host@@QEAAPEAU__crt_locale_pointers@@XZ 000000018004b360 f i libucrtd:strtox.obj
 0001:0004a390       ?get_raw_ptd@__crt_cached_ptd_host@@QEAAPEAU__acrt_ptd@@XZ 000000018004b390 f i libucrtd:strtox.obj
 0001:0004a3b0       ?is_space@__crt_strtox@@YA_NDQEAU__crt_locale_pointers@@@Z 000000018004b3b0 f i libucrtd:strtox.obj
 0001:0004a400       ?maximum_signed_value@__crt_strtox@@YAJK@Z 000000018004b400 f i libucrtd:strtox.obj
 0001:0004a410       ?minimum_signed_value@__crt_strtox@@YAJK@Z 000000018004b410 f i libucrtd:strtox.obj
 0001:0004a420       ?parse_digit@__crt_strtox@@YAID@Z 000000018004b420 f i libucrtd:strtox.obj
 0001:0004a490       ?parse_digit@__crt_strtox@@YAI_W@Z 000000018004b490 f i libucrtd:strtox.obj
 0001:0004a4e0       ?restore_state@?$c_string_character_source@D@__crt_strtox@@QEAA_NQEBD@Z 000000018004b4e0 f i libucrtd:strtox.obj
 0001:0004a500       ?restore_state@?$c_string_character_source@_W@__crt_strtox@@QEAA_NQEB_W@Z 000000018004b500 f i libucrtd:strtox.obj
 0001:0004a520       ?save_state@?$c_string_character_source@D@__crt_strtox@@QEBAPEBDXZ 000000018004b520 f i libucrtd:strtox.obj
 0001:0004a530       ?save_state@?$c_string_character_source@_W@__crt_strtox@@QEBAPEB_WXZ 000000018004b530 f i libucrtd:strtox.obj
 0001:0004a540       ?set@?$cached@H@__crt_cached_ptd_host@@QEAAHH@Z 000000018004b540 f i libucrtd:strtox.obj
 0001:0004a570       ?unget@?$c_string_character_source@D@__crt_strtox@@QEAAXD@Z 000000018004b570 f i libucrtd:strtox.obj
 0001:0004a650       ?unget@?$c_string_character_source@_W@__crt_strtox@@QEAAX_W@Z 000000018004b650 f i libucrtd:strtox.obj
 0001:0004a730       ?unsafe_value@?$cached@H@__crt_cached_ptd_host@@QEAAHXZ 000000018004b730 f i libucrtd:strtox.obj
 0001:0004a740       ?unsafe_value@?$cached@K@__crt_cached_ptd_host@@QEAAKXZ 000000018004b740 f i libucrtd:strtox.obj
 0001:0004a750       ?update_locale@__crt_cached_ptd_host@@AEAAXXZ 000000018004b750 f i libucrtd:strtox.obj
 0001:0004a780       ?update_locale_slow@__crt_cached_ptd_host@@AEAAXXZ 000000018004b780 f i libucrtd:strtox.obj
 0001:0004a830       ?valid@?$cached@H@__crt_cached_ptd_host@@QEBA_NXZ 000000018004b830 f i libucrtd:strtox.obj
 0001:0004a840       ?valid@?$cached@K@__crt_cached_ptd_host@@QEBA_NXZ 000000018004b840 f i libucrtd:strtox.obj
 0001:0004a850       ?validate@?$c_string_character_source@D@__crt_strtox@@QEBA_NXZ 000000018004b850 f i libucrtd:strtox.obj
 0001:0004a910       ?validate@?$c_string_character_source@_W@__crt_strtox@@QEBA_NXZ 000000018004b910 f i libucrtd:strtox.obj
 0001:0004a9d0       ?wide_character_to_digit@__crt_strtox@@YAH_W@Z 000000018004b9d0 f i libucrtd:strtox.obj
 0001:0004ad40       __acrt_disable_global_locale_sync 000000018004bd40 f i libucrtd:strtox.obj
 0001:0004ad70       __acrt_enable_global_locale_sync 000000018004bd70 f i libucrtd:strtox.obj
 0001:0004ada0       __acrt_get_locale_data_prefix 000000018004bda0 f i libucrtd:strtox.obj
 0001:0004adc0       __acrt_locale_changed      000000018004bdc0 f i libucrtd:strtox.obj
 0001:0004adf0       __ascii_iswalpha           000000018004bdf0 f i libucrtd:strtox.obj
 0001:0004ae30       __ascii_toupper            000000018004be30 f i libucrtd:strtox.obj
 0001:0004ae50       __ascii_towupper           000000018004be50 f i libucrtd:strtox.obj
 0001:0004ae70       _chvalidchk_l              000000018004be70 f i libucrtd:strtox.obj
 0001:0004aea0       _ischartype_l              000000018004bea0 f i libucrtd:strtox.obj
 0001:0004af30       strtol                     000000018004bf30 f   libucrtd:strtox.obj
 0001:0004af60       ldexp                      000000018004bf60 f   libucrtd:ldexp.obj
 0001:0004b610       ??$open_file@AEBQEBDAEBQEBDAEBHPEAU_iobuf@@@?$__crt_char_traits@D@@SAPEAU_iobuf@@AEBQEBD0AEBH$$QEAPEAU1@@Z 000000018004c610 f i libucrtd:fopen.obj
 0001:0004b660       ?public_stream@__crt_stdio_stream@@QEBAPEAU_iobuf@@XZ 000000018004c660 f i libucrtd:fopen.obj
 0001:0004b670       ?unlock@__crt_stdio_stream@@QEBAXXZ 000000018004c670 f i libucrtd:fopen.obj
 0001:0004b690       ?valid@__crt_stdio_stream@@QEBA_NXZ 000000018004c690 f i libucrtd:fopen.obj
 0001:0004b6c0       fopen                      000000018004c6c0 f   libucrtd:fopen.obj
 0001:0004b6f0       fopen_s                    000000018004c6f0 f   libucrtd:fopen.obj
 0001:0004b720       ??$__crt_interlocked_read@J@@YAJPEDJ@Z 000000018004c720 f i libucrtd:fclose.obj
 0001:0004b740       ??0__crt_stdio_stream@@QEAA@QEAU_iobuf@@@Z 000000018004c740 f i libucrtd:fclose.obj
 0001:0004b760       ??C__crt_stdio_stream@@QEBAPEAU__crt_stdio_stream_data@@XZ 000000018004c760 f i libucrtd:fclose.obj
 0001:0004b770       ?__crt_interlocked_read_32@@YAHPEDH@Z 000000018004c770 f i libucrtd:fclose.obj
 0001:0004baa0       ?get_flags@__crt_stdio_stream@@QEBAJXZ 000000018004caa0 f i libucrtd:fclose.obj
 0001:0004bad0       ?is_in_use@__crt_stdio_stream@@QEBA_NXZ 000000018004cad0 f i libucrtd:fclose.obj
 0001:0004bb10       ?is_string_backed@__crt_stdio_stream@@QEBA_NXZ 000000018004cb10 f i libucrtd:fclose.obj
 0001:0004bb50       fclose                     000000018004cb50 f   libucrtd:fclose.obj
 0001:0004bb90       ?eof@__crt_stdio_stream@@QEBA_NXZ 000000018004cb90 f i libucrtd:feoferr.obj
 0001:0004bbb0       ?error@__crt_stdio_stream@@QEBA_NXZ 000000018004cbb0 f i libucrtd:feoferr.obj
 0001:0004bbd0       ?has_any_of@__crt_stdio_stream@@QEBA_NJ@Z 000000018004cbd0 f i libucrtd:feoferr.obj
 0001:0004bc10       feof                       000000018004cc10 f   libucrtd:feoferr.obj
 0001:0004bce0       ferror                     000000018004cce0 f   libucrtd:feoferr.obj
 0001:0004bdb0       _fgetc_nolock              000000018004cdb0 f   libucrtd:fgetc.obj
 0001:0004bf10       fgetc                      000000018004cf10 f   libucrtd:fgetc.obj
 0001:0004c1d0       ?__acrt_stdio_reset_buffer@@YAXV__crt_stdio_stream@@@Z 000000018004d1d0 f i libucrtd:fread.obj
 0001:0004c220       ?has_any_buffer@__crt_stdio_stream@@QEBA_NXZ 000000018004d220 f i libucrtd:fread.obj
 0001:0004c240       ?set_flags@__crt_stdio_stream@@QEBA_NJ@Z 000000018004d240 f i libucrtd:fread.obj
 0001:0004c2b0       _fread_nolock_s            000000018004d2b0 f   libucrtd:fread.obj
 0001:0004cc60       fread                      000000018004dc60 f   libucrtd:fread.obj
 0001:0004ccb0       fread_s                    000000018004dcb0 f   libucrtd:fread.obj
 0001:0004cf40       ?LongLongSub@@YAJ_J0PEA_J@Z 000000018004df40 f i libucrtd:fseek.obj
 0001:0004d650       ?has_all_of@__crt_stdio_stream@@QEBA_NJ@Z 000000018004e650 f i libucrtd:fseek.obj
 0001:0004d690       ?lowio_handle@__crt_stdio_stream@@QEBAHXZ 000000018004e690 f i libucrtd:fseek.obj
 0001:0004d6c0       ?unset_flags@__crt_stdio_stream@@QEBA_NJ@Z 000000018004e6c0 f i libucrtd:fseek.obj
 0001:0004d720       fseek                      000000018004e720 f   libucrtd:fseek.obj
 0001:0004e530       ?ctrl_z@__crt_stdio_stream@@QEBA_NXZ 000000018004f530 f i libucrtd:ftell.obj
 0001:0004e550       ?has_big_buffer@__crt_stdio_stream@@QEBA_NXZ 000000018004f550 f i libucrtd:ftell.obj
 0001:0004e570       ?has_crt_buffer@__crt_stdio_stream@@QEBA_NXZ 000000018004f570 f i libucrtd:ftell.obj
 0001:0004e590       ?has_setvbuf_buffer@__crt_stdio_stream@@QEBA_NXZ 000000018004f590 f i libucrtd:ftell.obj
 0001:0004e5b0       _ftelli64_nolock_internal  000000018004f5b0 f   libucrtd:ftell.obj
 0001:0004e5e0       _utf8_no_of_trailbytes     000000018004f5e0 f i libucrtd:ftell.obj
 0001:0004e600       ftell                      000000018004f600 f   libucrtd:ftell.obj
 0001:0004e650       _ungetc_nolock             000000018004f650 f   libucrtd:ungetc.obj
 0001:0004e9f0       ungetc                     000000018004f9f0 f   libucrtd:ungetc.obj
 0001:0004fba0       ??$ftprintf@PEAU_iobuf@@PEB_WAEBQEB_WAEBQEB_WAEBI@?$__crt_char_traits@_W@@SAH$$QEAPEAU_iobuf@@$$QEAPEB_WAEBQEB_W2AEBI@Z 0000000180050ba0 f i libucrtd:assert.obj
 0001:0004fbf0       ??$get_module_file_name@AEAPEAUHINSTANCE__@@AEAY0BAF@DK@?$__crt_char_traits@D@@SAKAEAPEAUHINSTANCE__@@AEAY0BAF@D$$QEAK@Z 0000000180050bf0 f i libucrtd:assert.obj
 0001:0004fc30       ??$get_module_file_name@AEAPEAUHINSTANCE__@@AEAY0BAF@_WK@?$__crt_char_traits@_W@@SAKAEAPEAUHINSTANCE__@@AEAY0BAF@_W$$QEAK@Z 0000000180050c30 f i libucrtd:assert.obj
 0001:0004fc70       ??$itot_s@AEBIPEA_W_KH@?$__crt_char_traits@_W@@SAHAEBI$$QEAPEA_W$$QEA_K$$QEAH@Z 0000000180050c70 f i libucrtd:assert.obj
 0001:0004fcc0       ??$show_message_box@AEAY0CEA@_WPEB_WJ@?$__crt_char_traits@_W@@SAHAEAY0CEA@_W$$QEAPEB_W$$QEAJ@Z 0000000180050cc0 f i libucrtd:assert.obj
 0001:0004fd00       ??$tcscat_s@AEBQEA_WAEB_KAEAPEA_W@?$__crt_char_traits@_W@@SAHAEBQEA_WAEB_KAEAPEA_W@Z 0000000180050d00 f i libucrtd:assert.obj
 0001:0004fd40       ??$tcscat_s@AEBQEA_WAEB_KAEBQEB_W@?$__crt_char_traits@_W@@SAHAEBQEA_WAEB_KAEBQEB_W@Z 0000000180050d40 f i libucrtd:assert.obj
 0001:0004fd80       ??$tcscat_s@AEBQEA_WAEB_KPEB_W@?$__crt_char_traits@_W@@SAHAEBQEA_WAEB_K$$QEAPEB_W@Z 0000000180050d80 f i libucrtd:assert.obj
 0001:0004fdc0       ??$tcscpy_s@AEAY0BAF@D_KPEBD@?$__crt_char_traits@D@@SAHAEAY0BAF@D$$QEA_K$$QEAPEBD@Z 0000000180050dc0 f i libucrtd:assert.obj
 0001:0004fe00       ??$tcscpy_s@AEAY0BAF@_W_KPEB_W@?$__crt_char_traits@_W@@SAHAEAY0BAF@_W$$QEA_K$$QEAPEB_W@Z 0000000180050e00 f i libucrtd:assert.obj
 0001:0004fe40       ??$tcscpy_s@AEBQEA_WAEB_KPEB_W@?$__crt_char_traits@_W@@SAHAEBQEA_WAEB_K$$QEAPEB_W@Z 0000000180050e40 f i libucrtd:assert.obj
 0001:0004fe80       ??$tcslen@AEAY0BAF@D@?$__crt_char_traits@D@@SA_KAEAY0BAF@D@Z 0000000180050e80 f i libucrtd:assert.obj
 0001:0004fea0       ??$tcslen@AEAY0BAF@_W@?$__crt_char_traits@_W@@SA_KAEAY0BAF@_W@Z 0000000180050ea0 f i libucrtd:assert.obj
 0001:0004fec0       ??$tcslen@AEBQEA_W@?$__crt_char_traits@_W@@SA_KAEBQEA_W@Z 0000000180050ec0 f i libucrtd:assert.obj
 0001:0004fee0       ??$tcslen@AEBQEBD@?$__crt_char_traits@D@@SA_KAEBQEBD@Z 0000000180050ee0 f i libucrtd:assert.obj
 0001:0004ff00       ??$tcslen@AEBQEB_W@?$__crt_char_traits@_W@@SA_KAEBQEB_W@Z 0000000180050f00 f i libucrtd:assert.obj
 0001:0004ff20       ??$tcsncat_s@AEBQEA_WAEB_KAEAPEB_W_K@?$__crt_char_traits@_W@@SAHAEBQEA_WAEB_KAEAPEB_W$$QEA_K@Z 0000000180050f20 f i libucrtd:assert.obj
 0001:0004ff70       ??$tcsncat_s@AEBQEA_WAEB_KAEBQEB_WAEB_K@?$__crt_char_traits@_W@@SAHAEBQEA_WAEB_KAEBQEB_W1@Z 0000000180050f70 f i libucrtd:assert.obj
 0001:0004ffc0       ??$tcsncat_s@AEBQEA_WAEB_KPEB_W_K@?$__crt_char_traits@_W@@SAHAEBQEA_WAEB_K$$QEAPEB_W$$QEA_K@Z 0000000180050fc0 f i libucrtd:assert.obj
 0001:000501e0       _invoke_watson_if_error    00000001800511e0 f i libucrtd:assert.obj
 0001:00050230       _vfwprintf_l               0000000180051230 f i libucrtd:assert.obj
 0001:00050280       _vswprintf_c_l             0000000180051280 f i libucrtd:assert.obj
 0001:000502f0       _wassert                   00000001800512f0 f   libucrtd:assert.obj
 0001:00050330       fwprintf                   0000000180051330 f i libucrtd:assert.obj
 0001:000504c0       swprintf                   00000001800514c0 f i libucrtd:assert.obj
 0001:00050520       acosf                      0000000180051520 f   libucrtd:acosf.obj
 0001:000509e0       ceilf                      00000001800519e0 f   libucrtd:ceilf.obj
 0001:00050b50       cos                        0000000180051b50 f   libucrtd:cos.obj
 0001:000510d0       cosf                       00000001800520d0 f   libucrtd:cosf.obj
 0001:000515d0       floorf                     00000001800525d0 f   libucrtd:floorf.obj
 0001:00051720       fmodf                      0000000180052720 f   libucrtd:fmodf.obj
 0001:00051d00       pow                        0000000180052d00 f   libucrtd:pow.obj
 0001:000533a0       powf                       00000001800543a0 f   libucrtd:powf.obj
 0001:00054270       sqrtf                      0000000180055270 f   libucrtd:sqrtf.obj
 0001:000543b0       tanf                       00000001800553b0 f   libucrtd:tanf.obj
 0001:00054a30       _initterm                  0000000180055a30 f   libucrtd:initterm.obj
 0001:00054aa0       _initterm_e                0000000180055aa0 f   libucrtd:initterm.obj
 0001:00054b90       _seh_filter_dll            0000000180055b90 f   libucrtd:exception_filter.obj
 0001:00054bc0       _seh_filter_exe            0000000180055bc0 f   libucrtd:exception_filter.obj
 0001:00054e90       ??$?B$$A6AXPEAXK0@Z@__crt_fast_encoded_nullptr_t@@QEBAP6AXPEAXK0@ZXZ 0000000180055e90 f i libucrtd:exit.obj
 0001:00054f50       ??$__crt_fast_decode_pointer@P6AXPEAXK0@Z@@YAP6AXPEAXK0@ZQ6AX0K0@Z@Z 0000000180055f50 f i libucrtd:exit.obj
 0001:00054f90       ??$__crt_fast_encode_pointer@P6AXPEAXK0@Z@@YAP6AXPEAXK0@ZQ6AX0K0@Z@Z 0000000180055f90 f i libucrtd:exit.obj
 0001:00054fd0       ??$__crt_get_proc_address@P6AXI@Z@@YAP6AXI@ZQEAUHINSTANCE__@@QEBD@Z 0000000180055fd0 f i libucrtd:exit.obj
 0001:00055090       ??0?$__crt_unique_handle_t@U__crt_hmodule_traits@@@@QEAA@QEAUHINSTANCE__@@@Z 0000000180056090 f i libucrtd:exit.obj
 0001:000550b0       ??1?$__crt_unique_handle_t@U__crt_hmodule_traits@@@@QEAA@XZ 00000001800560b0 f i libucrtd:exit.obj
 0001:00055230       ?__acrt_select_exit_lock@@YA?AW4__acrt_lock_id@@XZ 0000000180056230 f i libucrtd:exit.obj
 0001:00055260       ?close@?$__crt_unique_handle_t@U__crt_hmodule_traits@@@@QEAAXXZ 0000000180056260 f i libucrtd:exit.obj
 0001:000552a0       ?close@__crt_hmodule_traits@@SA_NPEAUHINSTANCE__@@@Z 00000001800562a0 f i libucrtd:exit.obj
 0001:000553c0       ?get@?$__crt_unique_handle_t@U__crt_hmodule_traits@@@@QEBAPEAUHINSTANCE__@@XZ 00000001800563c0 f i libucrtd:exit.obj
 0001:000553d0       ?get_address_of@?$__crt_unique_handle_t@U__crt_hmodule_traits@@@@QEAAPEAPEAUHINSTANCE__@@XZ 00000001800563d0 f i libucrtd:exit.obj
 0001:000553e0       ?get_invalid_value@__crt_hmodule_traits@@SAPEAUHINSTANCE__@@XZ 00000001800563e0 f i libucrtd:exit.obj
 0001:000555c0       __acrt_initialize_thread_local_exit_callback 00000001800565c0 f   libucrtd:exit.obj
 0001:000555e0       _cexit                     00000001800565e0 f   libucrtd:exit.obj
 0001:00055600       _exit                      0000000180056600 f   libucrtd:exit.obj
 0001:00055620       _is_c_termination_complete 0000000180056620 f   libucrtd:exit.obj
 0001:00055640       ??$?RE@__crt_internal_free_policy@@QEBAXQEBE@Z 0000000180056640 f i libucrtd:argv_parsing.obj
 0001:00055670       ??$?RPEAD@__crt_internal_free_policy@@QEBAXQEBQEAD@Z 0000000180056670 f i libucrtd:argv_parsing.obj
 0001:00055a30       ??$get_module_file_name@$$TAEAY0BAF@DH@?$__crt_char_traits@D@@SAK$$QEA$$TAEAY0BAF@D$$QEAH@Z 0000000180056a30 f i libucrtd:argv_parsing.obj
 0001:00055f40       ??$set_program_name@PEAD@?$__crt_char_traits@D@@SAX$$QEAPEAD@Z 0000000180056f40 f i libucrtd:argv_parsing.obj
 0001:00055f80       ??0?$__crt_unique_heap_ptr@EU__crt_internal_free_policy@@@@QEAA@QEAE@Z 0000000180056f80 f i libucrtd:argv_parsing.obj
 0001:00055fa0       ??0?$__crt_unique_heap_ptr@PEADU__crt_internal_free_policy@@@@QEAA@QEAPEAD@Z 0000000180056fa0 f i libucrtd:argv_parsing.obj
 0001:00055fc0       ??1?$__crt_unique_heap_ptr@EU__crt_internal_free_policy@@@@QEAA@XZ 0000000180056fc0 f i libucrtd:argv_parsing.obj
 0001:00055fe0       ??1?$__crt_unique_heap_ptr@PEADU__crt_internal_free_policy@@@@QEAA@XZ 0000000180056fe0 f i libucrtd:argv_parsing.obj
 0001:00056000       ??B?$__crt_unique_heap_ptr@EU__crt_internal_free_policy@@@@QEBA_NXZ 0000000180057000 f i libucrtd:argv_parsing.obj
 0001:00056080       ?detach@?$__crt_unique_heap_ptr@EU__crt_internal_free_policy@@@@QEAAPEAEXZ 0000000180057080 f i libucrtd:argv_parsing.obj
 0001:000560b0       ?detach@?$__crt_unique_heap_ptr@PEADU__crt_internal_free_policy@@@@QEAAPEAPEADXZ 00000001800570b0 f i libucrtd:argv_parsing.obj
 0001:00056130       ?get@?$__crt_unique_heap_ptr@EU__crt_internal_free_policy@@@@QEBAPEAEXZ 0000000180057130 f i libucrtd:argv_parsing.obj
 0001:00056140       ?get@?$__crt_unique_heap_ptr@PEADU__crt_internal_free_policy@@@@QEBAPEAPEADXZ 0000000180057140 f i libucrtd:argv_parsing.obj
 0001:00056150       ?get_address_of@?$__crt_unique_heap_ptr@PEADU__crt_internal_free_policy@@@@QEAAPEAPEAPEADXZ 0000000180057150 f i libucrtd:argv_parsing.obj
 0001:00056180       ?is_valid@?$__crt_unique_heap_ptr@EU__crt_internal_free_policy@@@@QEBA_NXZ 0000000180057180 f i libucrtd:argv_parsing.obj
 0001:000561b0       ?release@?$__crt_unique_heap_ptr@EU__crt_internal_free_policy@@@@QEAAXXZ 00000001800571b0 f i libucrtd:argv_parsing.obj
 0001:000561e0       ?release@?$__crt_unique_heap_ptr@PEADU__crt_internal_free_policy@@@@QEAAXXZ 00000001800571e0 f i libucrtd:argv_parsing.obj
 0001:00056250       __acrt_allocate_buffer_for_argv 0000000180057250 f   libucrtd:argv_parsing.obj
 0001:00056370       _configure_narrow_argv     0000000180057370 f   libucrtd:argv_parsing.obj
 0001:00056390       _set_pgmptr                0000000180057390 f i libucrtd:argv_parsing.obj
 0001:00056820       ??$get_environment_from_os@$$V@?$__crt_char_traits@D@@SAPEADXZ 0000000180057820 f i libucrtd:environment_initialization.obj
 0001:00056830       ??$tcscpy_s@PEADAEB_KAEAPEAD@?$__crt_char_traits@D@@SAH$$QEAPEADAEB_KAEAPEAD@Z 0000000180057830 f i libucrtd:environment_initialization.obj
 0001:00056870       ??$tcslen@AEAPEAD@?$__crt_char_traits@D@@SA_KAEAPEAD@Z 0000000180057870 f i libucrtd:environment_initialization.obj
 0001:00056890       ??$uninitialize@A6AXAEAPEAPEAD@_E@?$dual_state_global@PEAPEAD@__crt_state_management@@QEAAXA6AXAEAPEAPEAD@_E@Z 0000000180057890 f i libucrtd:environment_initialization.obj
 0001:00056910       ??$uninitialize@A6AXAEAPEAPEA_W@_E@?$dual_state_global@PEAPEA_W@__crt_state_management@@QEAAXA6AXAEAPEAPEA_W@_E@Z 0000000180057910 f i libucrtd:environment_initialization.obj
 0001:00056a10       ??B?$__crt_unique_heap_ptr@PEADU__crt_internal_free_policy@@@@QEBA_NXZ 0000000180057a10 f i libucrtd:environment_initialization.obj
 0001:00056a30       ?detach@?$__crt_unique_heap_ptr@DU__crt_internal_free_policy@@@@QEAAPEADXZ 0000000180057a30 f i libucrtd:environment_initialization.obj
 0001:00056a60       ?get_current_state_index@__crt_state_management@@YA_KXZ 0000000180057a60 f i libucrtd:environment_initialization.obj
 0001:00056ac0       ?initialize@?$dual_state_global@PEAPEAD@__crt_state_management@@QEAAXQEAPEAD@Z 0000000180057ac0 f i libucrtd:environment_initialization.obj
 0001:00056b10       ?is_valid@?$__crt_unique_heap_ptr@PEADU__crt_internal_free_policy@@@@QEBA_NXZ 0000000180057b10 f i libucrtd:environment_initialization.obj
 0001:00056b60       ?value@?$dual_state_global@PEAPEAD@__crt_state_management@@QEAAAEAPEAPEADXZ 0000000180057b60 f i libucrtd:environment_initialization.obj
 0001:00056b80       __dcrt_uninitialize_environments_nolock 0000000180057b80 f   libucrtd:environment_initialization.obj
 0001:00056bd0       _initialize_narrow_environment 0000000180057bd0 f   libucrtd:environment_initialization.obj
 0001:00056be0       ??$?BP6AXXZ@__crt_fast_encoded_nullptr_t@@QEBAPEAP6AXXZXZ 0000000180057be0 f i libucrtd:onexit.obj
 0001:00056d10       ??1scoped_global_state_reset@__crt_state_management@@QEAA@XZ 0000000180057d10 f i libucrtd:onexit.obj
 0001:00056f90       _execute_onexit_table      0000000180057f90 f   libucrtd:onexit.obj
 0001:00056fd0       _initialize_onexit_table   0000000180057fd0 f   libucrtd:onexit.obj
 0001:00057340       ?initialize@?$dual_state_global@PEAU__crt_locale_data@@@__crt_state_management@@QEAAXQEAU__crt_locale_data@@@Z 0000000180058340 f i libucrtd:initialization.obj
 0001:00057390       __acrt_initialize          0000000180058390 f   libucrtd:initialization.obj
 0001:000573c0       __acrt_thread_attach       00000001800583c0 f   libucrtd:initialization.obj
 0001:000573e0       __acrt_thread_detach       00000001800583e0 f   libucrtd:initialization.obj
 0001:000573f0       __acrt_uninitialize        00000001800583f0 f   libucrtd:initialization.obj
 0001:00057420       __acrt_uninitialize_critical 0000000180058420 f   libucrtd:initialization.obj
 0001:00057440       terminate                  0000000180058440 f   libucrtd:terminate.obj
 0001:00057490       ??0_LocaleUpdate@@QEAA@QEAU__crt_locale_pointers@@@Z 0000000180058490 f i libucrtd:debug_heap.obj
 0001:000575b0       ??1_LocaleUpdate@@QEAA@XZ  00000001800585b0 f i libucrtd:debug_heap.obj
 0001:000575e0       ?GetLocaleT@_LocaleUpdate@@QEAAPEAU__crt_locale_pointers@@XZ 00000001800585e0 f i libucrtd:debug_heap.obj
 0001:00059990       _CrtCheckMemory            000000018005a990 f   libucrtd:debug_heap.obj
 0001:00059b20       _CrtDumpMemoryLeaks        000000018005ab20 f   libucrtd:debug_heap.obj
 0001:00059be0       _CrtIsValidHeapPointer     000000018005abe0 f   libucrtd:debug_heap.obj
 0001:00059c30       _CrtIsValidPointer         000000018005ac30 f   libucrtd:debug_heap.obj
 0001:00059c70       _CrtMemCheckpoint          000000018005ac70 f   libucrtd:debug_heap.obj
 0001:00059ef0       _CrtMemDumpAllObjectsSince 000000018005aef0 f   libucrtd:debug_heap.obj
 0001:00059f50       _CrtSetDbgFlag             000000018005af50 f   libucrtd:debug_heap.obj
 0001:0005a0b0       _CrtSetDumpClient          000000018005b0b0 f   libucrtd:debug_heap.obj
 0001:0005a0e0       _calloc_dbg                000000018005b0e0 f   libucrtd:debug_heap.obj
 0001:0005a180       _free_dbg                  000000018005b180 f   libucrtd:debug_heap.obj
 0001:0005a1f0       _invoke_watson_if_oneof    000000018005b1f0 f i libucrtd:debug_heap.obj
 0001:0005a250       _malloc_dbg                000000018005b250 f   libucrtd:debug_heap.obj
 0001:0005a290       _msize_dbg                 000000018005b290 f   libucrtd:debug_heap.obj
 0001:0005a430       _realloc_dbg               000000018005b430 f   libucrtd:debug_heap.obj
 0001:0005a4a0       _recalloc_dbg              000000018005b4a0 f   libucrtd:debug_heap.obj
 0001:0005aa80       strcpy_s                   000000018005ba80 f   libucrtd:strcpy_s.obj
 0001:0005aac0       strcmp                     000000018005bac0 f   libucrtd:strcmp.obj
 0001:0005ab40       strlen                     000000018005bb40 f   libucrtd:strlen.obj
 0001:0005abf0       ??$?0AEBV?$stream_output_adapter@_W@__crt_stdio_output@@AEB_KAEBQEB_WAEAV__crt_cached_ptd_host@@AEBQEAD@?$standard_base@_WV?$stream_output_adapter@_W@__crt_stdio_output@@@__crt_stdio_output@@IEAA@AEBV?$stream_output_adapter@_W@1@AEB_KAEBQEB_WAEAV__crt_cached_ptd_host@@AEBQEAD@Z 000000018005bbf0 f i libucrtd:output.obj
 0001:0005ac60       ??$?0AEBV?$string_output_adapter@D@__crt_stdio_output@@AEB_KAEBQEBDAEAV__crt_cached_ptd_host@@AEBQEAD@?$format_validation_base@DV?$string_output_adapter@D@__crt_stdio_output@@@__crt_stdio_output@@IEAA@AEBV?$string_output_adapter@D@1@AEB_KAEBQEBDAEAV__crt_cached_ptd_host@@AEBQEAD@Z 000000018005bc60 f i libucrtd:output.obj
 0001:0005acb0       ??$?0AEBV?$string_output_adapter@D@__crt_stdio_output@@AEB_KAEBQEBDAEAV__crt_cached_ptd_host@@AEBQEAD@?$standard_base@DV?$string_output_adapter@D@__crt_stdio_output@@@__crt_stdio_output@@IEAA@AEBV?$string_output_adapter@D@1@AEB_KAEBQEBDAEAV__crt_cached_ptd_host@@AEBQEAD@Z 000000018005bcb0 f i libucrtd:output.obj
 0001:0005ad20       ??$?0AEBV?$string_output_adapter@_W@__crt_stdio_output@@AEB_KAEBQEB_WAEAV__crt_cached_ptd_host@@AEBQEAD@?$format_validation_base@_WV?$string_output_adapter@_W@__crt_stdio_output@@@__crt_stdio_output@@IEAA@AEBV?$string_output_adapter@_W@1@AEB_KAEBQEB_WAEAV__crt_cached_ptd_host@@AEBQEAD@Z 000000018005bd20 f i libucrtd:output.obj
 0001:0005ad70       ??$?0AEBV?$string_output_adapter@_W@__crt_stdio_output@@AEB_KAEBQEB_WAEAV__crt_cached_ptd_host@@AEBQEAD@?$standard_base@_WV?$string_output_adapter@_W@__crt_stdio_output@@@__crt_stdio_output@@IEAA@AEBV?$string_output_adapter@_W@1@AEB_KAEBQEB_WAEAV__crt_cached_ptd_host@@AEBQEAD@Z 000000018005bd70 f i libucrtd:output.obj
 0001:0005ae90       ??$_tcstol_internal@DPEAPEAD$0A@@@YAJAEAV__crt_cached_ptd_host@@QEBDQEAPEADH@Z 000000018005be90 f i libucrtd:output.obj
 0001:0005aee0       ??$_tcstol_internal@_WPEAPEA_W$0A@@@YAJAEAV__crt_cached_ptd_host@@QEB_WQEAPEA_WH@Z 000000018005bee0 f i libucrtd:output.obj
 0001:0005d190       ??$count@D@formatting_buffer@__crt_stdio_output@@QEBA_KXZ 000000018005e190 f i libucrtd:output.obj
 0001:0005d1e0       ??$count@_W@formatting_buffer@__crt_stdio_output@@QEBA_KXZ 000000018005e1e0 f i libucrtd:output.obj
 0001:0005d230       ??$data@D@formatting_buffer@__crt_stdio_output@@QEAAPEADXZ 000000018005e230 f i libucrtd:output.obj
 0001:0005d280       ??$data@_W@formatting_buffer@__crt_stdio_output@@QEAAPEA_WXZ 000000018005e280 f i libucrtd:output.obj
 0001:0005d2d0       ??$ensure_buffer_is_big_enough@D@formatting_buffer@__crt_stdio_output@@QEAA_N_KAEAV__crt_cached_ptd_host@@@Z 000000018005e2d0 f i libucrtd:output.obj
 0001:0005d410       ??$ensure_buffer_is_big_enough@_W@formatting_buffer@__crt_stdio_output@@QEAA_N_KAEAV__crt_cached_ptd_host@@@Z 000000018005e410 f i libucrtd:output.obj
 0001:0005d550       ??$extract_argument_from_va_list@C_J@?$standard_base@DV?$string_output_adapter@D@__crt_stdio_output@@@__crt_stdio_output@@IEAA_NAEA_J@Z 000000018005e550 f i libucrtd:output.obj
 0001:0005d590       ??$extract_argument_from_va_list@C_J@?$standard_base@_WV?$stream_output_adapter@_W@__crt_stdio_output@@@__crt_stdio_output@@IEAA_NAEA_J@Z 000000018005e590 f i libucrtd:output.obj
 0001:0005d5d0       ??$extract_argument_from_va_list@C_J@?$standard_base@_WV?$string_output_adapter@_W@__crt_stdio_output@@@__crt_stdio_output@@IEAA_NAEA_J@Z 000000018005e5d0 f i libucrtd:output.obj
 0001:0005d610       ??$extract_argument_from_va_list@E_J@?$standard_base@DV?$string_output_adapter@D@__crt_stdio_output@@@__crt_stdio_output@@IEAA_NAEA_J@Z 000000018005e610 f i libucrtd:output.obj
 0001:0005d650       ??$extract_argument_from_va_list@E_J@?$standard_base@_WV?$stream_output_adapter@_W@__crt_stdio_output@@@__crt_stdio_output@@IEAA_NAEA_J@Z 000000018005e650 f i libucrtd:output.obj
 0001:0005d690       ??$extract_argument_from_va_list@E_J@?$standard_base@_WV?$string_output_adapter@_W@__crt_stdio_output@@@__crt_stdio_output@@IEAA_NAEA_J@Z 000000018005e690 f i libucrtd:output.obj
 0001:0005d6d0       ??$extract_argument_from_va_list@F_J@?$standard_base@DV?$string_output_adapter@D@__crt_stdio_output@@@__crt_stdio_output@@IEAA_NAEA_J@Z 000000018005e6d0 f i libucrtd:output.obj
 0001:0005d710       ??$extract_argument_from_va_list@F_J@?$standard_base@_WV?$stream_output_adapter@_W@__crt_stdio_output@@@__crt_stdio_output@@IEAA_NAEA_J@Z 000000018005e710 f i libucrtd:output.obj
 0001:0005d750       ??$extract_argument_from_va_list@F_J@?$standard_base@_WV?$string_output_adapter@_W@__crt_stdio_output@@@__crt_stdio_output@@IEAA_NAEA_J@Z 000000018005e750 f i libucrtd:output.obj
 0001:0005d790       ??$extract_argument_from_va_list@GD@?$standard_base@DV?$string_output_adapter@D@__crt_stdio_output@@@__crt_stdio_output@@IEAA_NAEAD@Z 000000018005e790 f i libucrtd:output.obj
 0001:0005d7c0       ??$extract_argument_from_va_list@G_J@?$standard_base@DV?$string_output_adapter@D@__crt_stdio_output@@@__crt_stdio_output@@IEAA_NAEA_J@Z 000000018005e7c0 f i libucrtd:output.obj
 0001:0005d800       ??$extract_argument_from_va_list@G_J@?$standard_base@_WV?$stream_output_adapter@_W@__crt_stdio_output@@@__crt_stdio_output@@IEAA_NAEA_J@Z 000000018005e800 f i libucrtd:output.obj
 0001:0005d840       ??$extract_argument_from_va_list@G_J@?$standard_base@_WV?$string_output_adapter@_W@__crt_stdio_output@@@__crt_stdio_output@@IEAA_NAEA_J@Z 000000018005e840 f i libucrtd:output.obj
 0001:0005d880       ??$extract_argument_from_va_list@H_J@?$standard_base@DV?$string_output_adapter@D@__crt_stdio_output@@@__crt_stdio_output@@IEAA_NAEA_J@Z 000000018005e880 f i libucrtd:output.obj
 0001:0005d8b0       ??$extract_argument_from_va_list@H_J@?$standard_base@_WV?$stream_output_adapter@_W@__crt_stdio_output@@@__crt_stdio_output@@IEAA_NAEA_J@Z 000000018005e8b0 f i libucrtd:output.obj
 0001:0005d8e0       ??$extract_argument_from_va_list@H_J@?$standard_base@_WV?$string_output_adapter@_W@__crt_stdio_output@@@__crt_stdio_output@@IEAA_NAEA_J@Z 000000018005e8e0 f i libucrtd:output.obj
 0001:0005d910       ??$extract_argument_from_va_list@I_J@?$standard_base@DV?$string_output_adapter@D@__crt_stdio_output@@@__crt_stdio_output@@IEAA_NAEA_J@Z 000000018005e910 f i libucrtd:output.obj
 0001:0005d940       ??$extract_argument_from_va_list@I_J@?$standard_base@_WV?$stream_output_adapter@_W@__crt_stdio_output@@@__crt_stdio_output@@IEAA_NAEA_J@Z 000000018005e940 f i libucrtd:output.obj
 0001:0005d970       ??$extract_argument_from_va_list@I_J@?$standard_base@_WV?$string_output_adapter@_W@__crt_stdio_output@@@__crt_stdio_output@@IEAA_NAEA_J@Z 000000018005e970 f i libucrtd:output.obj
 0001:0005d9a0       ??$extract_argument_from_va_list@PEADPEAD@?$standard_base@DV?$string_output_adapter@D@__crt_stdio_output@@@__crt_stdio_output@@IEAA_NAEAPEAD@Z 000000018005e9a0 f i libucrtd:output.obj
 0001:0005d9d0       ??$extract_argument_from_va_list@PEADPEAD@?$standard_base@_WV?$stream_output_adapter@_W@__crt_stdio_output@@@__crt_stdio_output@@IEAA_NAEAPEAD@Z 000000018005e9d0 f i libucrtd:output.obj
 0001:0005da00       ??$extract_argument_from_va_list@PEADPEAD@?$standard_base@_WV?$string_output_adapter@_W@__crt_stdio_output@@@__crt_stdio_output@@IEAA_NAEAPEAD@Z 000000018005ea00 f i libucrtd:output.obj
 0001:0005da30       ??$extract_argument_from_va_list@PEAUansi_string@?1??type_case_Z@?$output_processor@DV?$string_output_adapter@D@__crt_stdio_output@@V?$format_validation_base@DV?$string_output_adapter@D@__crt_stdio_output@@@2@@__crt_stdio_output@@AEAA_NXZ@PEAU1?1??234@AEAA_NXZ@@?$standard_base@DV?$string_output_adapter@D@__crt_stdio_output@@@__crt_stdio_output@@IEAA_NAEAPEAUansi_string@?1??type_case_Z@?$output_processor@DV?$string_output_adapter@D@__crt_stdio_output@@V?$format_validation_base@DV?$string_output_adapter@D@__crt_stdio_output@@@2@@1@AEAA_NXZ@@Z 000000018005ea30 f i libucrtd:output.obj
 0001:0005da60       ??$extract_argument_from_va_list@PEAUansi_string@?1??type_case_Z@?$output_processor@_WV?$stream_output_adapter@_W@__crt_stdio_output@@V?$standard_base@_WV?$stream_output_adapter@_W@__crt_stdio_output@@@2@@__crt_stdio_output@@AEAA_NXZ@PEAU1?1??234@AEAA_NXZ@@?$standard_base@_WV?$stream_output_adapter@_W@__crt_stdio_output@@@__crt_stdio_output@@IEAA_NAEAPEAUansi_string@?1??type_case_Z@?$output_processor@_WV?$stream_output_adapter@_W@__crt_stdio_output@@V?$standard_base@_WV?$stream_output_adapter@_W@__crt_stdio_output@@@2@@1@AEAA_NXZ@@Z 000000018005ea60 f i libucrtd:output.obj
 0001:0005da90       ??$extract_argument_from_va_list@PEAUansi_string@?1??type_case_Z@?$output_processor@_WV?$string_output_adapter@_W@__crt_stdio_output@@V?$format_validation_base@_WV?$string_output_adapter@_W@__crt_stdio_output@@@2@@__crt_stdio_output@@AEAA_NXZ@PEAU1?1??234@AEAA_NXZ@@?$standard_base@_WV?$string_output_adapter@_W@__crt_stdio_output@@@__crt_stdio_output@@IEAA_NAEAPEAUansi_string@?1??type_case_Z@?$output_processor@_WV?$string_output_adapter@_W@__crt_stdio_output@@V?$format_validation_base@_WV?$string_output_adapter@_W@__crt_stdio_output@@@2@@1@AEAA_NXZ@@Z 000000018005ea90 f i libucrtd:output.obj
 0001:0005dac0       ??$extract_argument_from_va_list@PEAUansi_string@?1??type_case_Z@?$output_processor@_WV?$string_output_adapter@_W@__crt_stdio_output@@V?$standard_base@_WV?$string_output_adapter@_W@__crt_stdio_output@@@2@@__crt_stdio_output@@AEAA_NXZ@PEAU1?1??234@AEAA_NXZ@@?$standard_base@_WV?$string_output_adapter@_W@__crt_stdio_output@@@__crt_stdio_output@@IEAA_NAEAPEAUansi_string@?1??type_case_Z@?$output_processor@_WV?$string_output_adapter@_W@__crt_stdio_output@@V?$standard_base@_WV?$string_output_adapter@_W@__crt_stdio_output@@@2@@1@AEAA_NXZ@@Z 000000018005eac0 f i libucrtd:output.obj
 0001:0005daf0       ??$extract_argument_from_va_list@PEAXPEAX@?$standard_base@DV?$string_output_adapter@D@__crt_stdio_output@@@__crt_stdio_output@@IEAA_NAEAPEAX@Z 000000018005eaf0 f i libucrtd:output.obj
 0001:0005db20       ??$extract_argument_from_va_list@PEAXPEAX@?$standard_base@_WV?$stream_output_adapter@_W@__crt_stdio_output@@@__crt_stdio_output@@IEAA_NAEAPEAX@Z 000000018005eb20 f i libucrtd:output.obj
 0001:0005db50       ??$extract_argument_from_va_list@PEAXPEAX@?$standard_base@_WV?$string_output_adapter@_W@__crt_stdio_output@@@__crt_stdio_output@@IEAA_NAEAPEAX@Z 000000018005eb50 f i libucrtd:output.obj
 0001:0005db80       ??$extract_argument_from_va_list@U_CRT_DOUBLE@@U1@@?$standard_base@DV?$string_output_adapter@D@__crt_stdio_output@@@__crt_stdio_output@@IEAA_NAEAU_CRT_DOUBLE@@@Z 000000018005eb80 f i libucrtd:output.obj
 0001:0005dbd0       ??$extract_argument_from_va_list@U_CRT_DOUBLE@@U1@@?$standard_base@_WV?$stream_output_adapter@_W@__crt_stdio_output@@@__crt_stdio_output@@IEAA_NAEAU_CRT_DOUBLE@@@Z 000000018005ebd0 f i libucrtd:output.obj
 0001:0005dc20       ??$extract_argument_from_va_list@U_CRT_DOUBLE@@U1@@?$standard_base@_WV?$string_output_adapter@_W@__crt_stdio_output@@@__crt_stdio_output@@IEAA_NAEAU_CRT_DOUBLE@@@Z 000000018005ec20 f i libucrtd:output.obj
 0001:0005dc70       ??$extract_argument_from_va_list@_J_J@?$standard_base@DV?$string_output_adapter@D@__crt_stdio_output@@@__crt_stdio_output@@IEAA_NAEA_J@Z 000000018005ec70 f i libucrtd:output.obj
 0001:0005dca0       ??$extract_argument_from_va_list@_J_J@?$standard_base@_WV?$stream_output_adapter@_W@__crt_stdio_output@@@__crt_stdio_output@@IEAA_NAEA_J@Z 000000018005eca0 f i libucrtd:output.obj
 0001:0005dcd0       ??$extract_argument_from_va_list@_J_J@?$standard_base@_WV?$string_output_adapter@_W@__crt_stdio_output@@@__crt_stdio_output@@IEAA_NAEA_J@Z 000000018005ecd0 f i libucrtd:output.obj
 0001:0005dd00       ??$extract_argument_from_va_list@_K_J@?$standard_base@DV?$string_output_adapter@D@__crt_stdio_output@@@__crt_stdio_output@@IEAA_NAEA_J@Z 000000018005ed00 f i libucrtd:output.obj
 0001:0005dd30       ??$extract_argument_from_va_list@_K_J@?$standard_base@_WV?$stream_output_adapter@_W@__crt_stdio_output@@@__crt_stdio_output@@IEAA_NAEA_J@Z 000000018005ed30 f i libucrtd:output.obj
 0001:0005dd60       ??$extract_argument_from_va_list@_K_J@?$standard_base@_WV?$string_output_adapter@_W@__crt_stdio_output@@@__crt_stdio_output@@IEAA_NAEA_J@Z 000000018005ed60 f i libucrtd:output.obj
 0001:0005dd90       ??$extract_argument_from_va_list@_W_W@?$standard_base@DV?$string_output_adapter@D@__crt_stdio_output@@@__crt_stdio_output@@IEAA_NAEA_W@Z 000000018005ed90 f i libucrtd:output.obj
 0001:0005ddc0       ??$extract_argument_from_va_list@_W_W@?$standard_base@_WV?$stream_output_adapter@_W@__crt_stdio_output@@@__crt_stdio_output@@IEAA_NAEA_W@Z 000000018005edc0 f i libucrtd:output.obj
 0001:0005ddf0       ??$extract_argument_from_va_list@_W_W@?$standard_base@_WV?$string_output_adapter@_W@__crt_stdio_output@@@__crt_stdio_output@@IEAA_NAEA_W@Z 000000018005edf0 f i libucrtd:output.obj
 0001:0005de20       ??$is_wide_character_specifier@D@__crt_stdio_output@@YA_N_KDW4length_modifier@0@@Z 000000018005ee20 f i libucrtd:output.obj
 0001:0005dec0       ??$is_wide_character_specifier@_W@__crt_stdio_output@@YA_N_K_WW4length_modifier@0@@Z 000000018005eec0 f i libucrtd:output.obj
 0001:0005df90       ??$parse_integer@KV?$c_string_character_source@D@__crt_strtox@@$0A@@__crt_strtox@@YAKAEAV__crt_cached_ptd_host@@V?$c_string_character_source@D@0@H_N@Z 000000018005ef90 f i libucrtd:output.obj
 0001:0005e410       ??$parse_integer@KV?$c_string_character_source@_W@__crt_strtox@@$0A@@__crt_strtox@@YAKAEAV__crt_cached_ptd_host@@V?$c_string_character_source@_W@0@H_N@Z 000000018005f410 f i libucrtd:output.obj
 0001:0005e890       ??$puttc_nolock_internal@AEB_WPEAU_iobuf@@AEAV__crt_cached_ptd_host@@@?$__crt_char_traits@_W@@SAGAEB_W$$QEAPEAU_iobuf@@AEAV__crt_cached_ptd_host@@@Z 000000018005f890 f i libucrtd:output.obj
 0001:0005e8d0       ??$read_va_arg@C@__crt_stdio_output@@YACAEAPEAD@Z 000000018005f8d0 f i libucrtd:output.obj
 0001:0005e940       ??$read_va_arg@E@__crt_stdio_output@@YAEAEAPEAD@Z 000000018005f940 f i libucrtd:output.obj
 0001:0005e9b0       ??$read_va_arg@F@__crt_stdio_output@@YAFAEAPEAD@Z 000000018005f9b0 f i libucrtd:output.obj
 0001:0005ea20       ??$read_va_arg@G@__crt_stdio_output@@YAGAEAPEAD@Z 000000018005fa20 f i libucrtd:output.obj
 0001:0005ea90       ??$read_va_arg@H@__crt_stdio_output@@YAHAEAPEAD@Z 000000018005fa90 f i libucrtd:output.obj
 0001:0005eaf0       ??$read_va_arg@I@__crt_stdio_output@@YAIAEAPEAD@Z 000000018005faf0 f i libucrtd:output.obj
 0001:0005eb50       ??$read_va_arg@PEAD@__crt_stdio_output@@YAPEADAEAPEAD@Z 000000018005fb50 f i libucrtd:output.obj
 0001:0005ebc0       ??$read_va_arg@PEAUansi_string@?1??type_case_Z@?$output_processor@DV?$string_output_adapter@D@__crt_stdio_output@@V?$format_validation_base@DV?$string_output_adapter@D@__crt_stdio_output@@@2@@__crt_stdio_output@@AEAA_NXZ@@__crt_stdio_output@@YAPEAUansi_string@?1??type_case_Z@?$output_processor@DV?$string_output_adapter@D@__crt_stdio_output@@V?$format_validation_base@DV?$string_output_adapter@D@__crt_stdio_output@@@2@@0@AEAA_NXZ@AEAPEAD@Z 000000018005fbc0 f i libucrtd:output.obj
 0001:0005ec30       ??$read_va_arg@PEAUansi_string@?1??type_case_Z@?$output_processor@_WV?$stream_output_adapter@_W@__crt_stdio_output@@V?$standard_base@_WV?$stream_output_adapter@_W@__crt_stdio_output@@@2@@__crt_stdio_output@@AEAA_NXZ@@__crt_stdio_output@@YAPEAUansi_string@?1??type_case_Z@?$output_processor@_WV?$stream_output_adapter@_W@__crt_stdio_output@@V?$standard_base@_WV?$stream_output_adapter@_W@__crt_stdio_output@@@2@@0@AEAA_NXZ@AEAPEAD@Z 000000018005fc30 f i libucrtd:output.obj
 0001:0005eca0       ??$read_va_arg@PEAUansi_string@?1??type_case_Z@?$output_processor@_WV?$string_output_adapter@_W@__crt_stdio_output@@V?$format_validation_base@_WV?$string_output_adapter@_W@__crt_stdio_output@@@2@@__crt_stdio_output@@AEAA_NXZ@@__crt_stdio_output@@YAPEAUansi_string@?1??type_case_Z@?$output_processor@_WV?$string_output_adapter@_W@__crt_stdio_output@@V?$format_validation_base@_WV?$string_output_adapter@_W@__crt_stdio_output@@@2@@0@AEAA_NXZ@AEAPEAD@Z 000000018005fca0 f i libucrtd:output.obj
 0001:0005ed10       ??$read_va_arg@PEAUansi_string@?1??type_case_Z@?$output_processor@_WV?$string_output_adapter@_W@__crt_stdio_output@@V?$standard_base@_WV?$string_output_adapter@_W@__crt_stdio_output@@@2@@__crt_stdio_output@@AEAA_NXZ@@__crt_stdio_output@@YAPEAUansi_string@?1??type_case_Z@?$output_processor@_WV?$string_output_adapter@_W@__crt_stdio_output@@V?$standard_base@_WV?$string_output_adapter@_W@__crt_stdio_output@@@2@@0@AEAA_NXZ@AEAPEAD@Z 000000018005fd10 f i libucrtd:output.obj
 0001:0005ed80       ??$read_va_arg@PEAX@__crt_stdio_output@@YAPEAXAEAPEAD@Z 000000018005fd80 f i libucrtd:output.obj
 0001:0005edf0       ??$read_va_arg@U_CRT_DOUBLE@@@__crt_stdio_output@@YA?AU_CRT_DOUBLE@@AEAPEAD@Z 000000018005fdf0 f i libucrtd:output.obj
 0001:0005ee60       ??$read_va_arg@_J@__crt_stdio_output@@YA_JAEAPEAD@Z 000000018005fe60 f i libucrtd:output.obj
 0001:0005eed0       ??$read_va_arg@_K@__crt_stdio_output@@YA_KAEAPEAD@Z 000000018005fed0 f i libucrtd:output.obj
 0001:0005ef40       ??$read_va_arg@_W@__crt_stdio_output@@YA_WAEAPEAD@Z 000000018005ff40 f i libucrtd:output.obj
 0001:0005efb0       ??$scratch_count@D@formatting_buffer@__crt_stdio_output@@QEBA_KXZ 000000018005ffb0 f i libucrtd:output.obj
 0001:0005efd0       ??$scratch_data@D@formatting_buffer@__crt_stdio_output@@QEAAPEADXZ 000000018005ffd0 f i libucrtd:output.obj
 0001:0005f040       ??$type_case_integer@$07@?$output_processor@DV?$string_output_adapter@D@__crt_stdio_output@@V?$format_validation_base@DV?$string_output_adapter@D@__crt_stdio_output@@@2@@__crt_stdio_output@@AEAA_N_N@Z 0000000180060040 f i libucrtd:output.obj
 0001:0005f4c0       ??$type_case_integer@$07@?$output_processor@_WV?$stream_output_adapter@_W@__crt_stdio_output@@V?$standard_base@_WV?$stream_output_adapter@_W@__crt_stdio_output@@@2@@__crt_stdio_output@@AEAA_N_N@Z 00000001800604c0 f i libucrtd:output.obj
 0001:0005f940       ??$type_case_integer@$07@?$output_processor@_WV?$string_output_adapter@_W@__crt_stdio_output@@V?$format_validation_base@_WV?$string_output_adapter@_W@__crt_stdio_output@@@2@@__crt_stdio_output@@AEAA_N_N@Z 0000000180060940 f i libucrtd:output.obj
 0001:0005fdc0       ??$type_case_integer@$07@?$output_processor@_WV?$string_output_adapter@_W@__crt_stdio_output@@V?$standard_base@_WV?$string_output_adapter@_W@__crt_stdio_output@@@2@@__crt_stdio_output@@AEAA_N_N@Z 0000000180060dc0 f i libucrtd:output.obj
 0001:00060240       ??$type_case_integer@$09@?$output_processor@DV?$string_output_adapter@D@__crt_stdio_output@@V?$format_validation_base@DV?$string_output_adapter@D@__crt_stdio_output@@@2@@__crt_stdio_output@@AEAA_N_N@Z 0000000180061240 f i libucrtd:output.obj
 0001:000606c0       ??$type_case_integer@$09@?$output_processor@_WV?$stream_output_adapter@_W@__crt_stdio_output@@V?$standard_base@_WV?$stream_output_adapter@_W@__crt_stdio_output@@@2@@__crt_stdio_output@@AEAA_N_N@Z 00000001800616c0 f i libucrtd:output.obj
 0001:00060b40       ??$type_case_integer@$09@?$output_processor@_WV?$string_output_adapter@_W@__crt_stdio_output@@V?$format_validation_base@_WV?$string_output_adapter@_W@__crt_stdio_output@@@2@@__crt_stdio_output@@AEAA_N_N@Z 0000000180061b40 f i libucrtd:output.obj
 0001:00060fc0       ??$type_case_integer@$09@?$output_processor@_WV?$string_output_adapter@_W@__crt_stdio_output@@V?$standard_base@_WV?$string_output_adapter@_W@__crt_stdio_output@@@2@@__crt_stdio_output@@AEAA_N_N@Z 0000000180061fc0 f i libucrtd:output.obj
 0001:00061440       ??$type_case_integer@$0BA@@?$output_processor@DV?$string_output_adapter@D@__crt_stdio_output@@V?$format_validation_base@DV?$string_output_adapter@D@__crt_stdio_output@@@2@@__crt_stdio_output@@AEAA_N_N@Z 0000000180062440 f i libucrtd:output.obj
 0001:000618c0       ??$type_case_integer@$0BA@@?$output_processor@_WV?$stream_output_adapter@_W@__crt_stdio_output@@V?$standard_base@_WV?$stream_output_adapter@_W@__crt_stdio_output@@@2@@__crt_stdio_output@@AEAA_N_N@Z 00000001800628c0 f i libucrtd:output.obj
 0001:00061d40       ??$type_case_integer@$0BA@@?$output_processor@_WV?$string_output_adapter@_W@__crt_stdio_output@@V?$format_validation_base@_WV?$string_output_adapter@_W@__crt_stdio_output@@@2@@__crt_stdio_output@@AEAA_N_N@Z 0000000180062d40 f i libucrtd:output.obj
 0001:000621c0       ??$type_case_integer@$0BA@@?$output_processor@_WV?$string_output_adapter@_W@__crt_stdio_output@@V?$standard_base@_WV?$string_output_adapter@_W@__crt_stdio_output@@@2@@__crt_stdio_output@@AEAA_N_N@Z 00000001800631c0 f i libucrtd:output.obj
 0001:00062640       ??$type_case_integer_parse_into_buffer@I$07@?$output_processor@DV?$string_output_adapter@D@__crt_stdio_output@@V?$format_validation_base@DV?$string_output_adapter@D@__crt_stdio_output@@@2@@__crt_stdio_output@@AEAAXI_N@Z 0000000180063640 f i libucrtd:output.obj
 0001:00062770       ??$type_case_integer_parse_into_buffer@I$07@?$output_processor@_WV?$stream_output_adapter@_W@__crt_stdio_output@@V?$standard_base@_WV?$stream_output_adapter@_W@__crt_stdio_output@@@2@@__crt_stdio_output@@AEAAXI_N@Z 0000000180063770 f i libucrtd:output.obj
 0001:000628b0       ??$type_case_integer_parse_into_buffer@I$07@?$output_processor@_WV?$string_output_adapter@_W@__crt_stdio_output@@V?$format_validation_base@_WV?$string_output_adapter@_W@__crt_stdio_output@@@2@@__crt_stdio_output@@AEAAXI_N@Z 00000001800638b0 f i libucrtd:output.obj
 0001:000629f0       ??$type_case_integer_parse_into_buffer@I$07@?$output_processor@_WV?$string_output_adapter@_W@__crt_stdio_output@@V?$standard_base@_WV?$string_output_adapter@_W@__crt_stdio_output@@@2@@__crt_stdio_output@@AEAAXI_N@Z 00000001800639f0 f i libucrtd:output.obj
 0001:00062b30       ??$type_case_integer_parse_into_buffer@I$09@?$output_processor@DV?$string_output_adapter@D@__crt_stdio_output@@V?$format_validation_base@DV?$string_output_adapter@D@__crt_stdio_output@@@2@@__crt_stdio_output@@AEAAXI_N@Z 0000000180063b30 f i libucrtd:output.obj
 0001:00062c60       ??$type_case_integer_parse_into_buffer@I$09@?$output_processor@_WV?$stream_output_adapter@_W@__crt_stdio_output@@V?$standard_base@_WV?$stream_output_adapter@_W@__crt_stdio_output@@@2@@__crt_stdio_output@@AEAAXI_N@Z 0000000180063c60 f i libucrtd:output.obj
 0001:00062da0       ??$type_case_integer_parse_into_buffer@I$09@?$output_processor@_WV?$string_output_adapter@_W@__crt_stdio_output@@V?$format_validation_base@_WV?$string_output_adapter@_W@__crt_stdio_output@@@2@@__crt_stdio_output@@AEAAXI_N@Z 0000000180063da0 f i libucrtd:output.obj
 0001:00062ee0       ??$type_case_integer_parse_into_buffer@I$09@?$output_processor@_WV?$string_output_adapter@_W@__crt_stdio_output@@V?$standard_base@_WV?$string_output_adapter@_W@__crt_stdio_output@@@2@@__crt_stdio_output@@AEAAXI_N@Z 0000000180063ee0 f i libucrtd:output.obj
 0001:00063020       ??$type_case_integer_parse_into_buffer@I$0BA@@?$output_processor@DV?$string_output_adapter@D@__crt_stdio_output@@V?$format_validation_base@DV?$string_output_adapter@D@__crt_stdio_output@@@2@@__crt_stdio_output@@AEAAXI_N@Z 0000000180064020 f i libucrtd:output.obj
 0001:00063150       ??$type_case_integer_parse_into_buffer@I$0BA@@?$output_processor@_WV?$stream_output_adapter@_W@__crt_stdio_output@@V?$standard_base@_WV?$stream_output_adapter@_W@__crt_stdio_output@@@2@@__crt_stdio_output@@AEAAXI_N@Z 0000000180064150 f i libucrtd:output.obj
 0001:00063290       ??$type_case_integer_parse_into_buffer@I$0BA@@?$output_processor@_WV?$string_output_adapter@_W@__crt_stdio_output@@V?$format_validation_base@_WV?$string_output_adapter@_W@__crt_stdio_output@@@2@@__crt_stdio_output@@AEAAXI_N@Z 0000000180064290 f i libucrtd:output.obj
 0001:000633d0       ??$type_case_integer_parse_into_buffer@I$0BA@@?$output_processor@_WV?$string_output_adapter@_W@__crt_stdio_output@@V?$standard_base@_WV?$string_output_adapter@_W@__crt_stdio_output@@@2@@__crt_stdio_output@@AEAAXI_N@Z 00000001800643d0 f i libucrtd:output.obj
 0001:00063510       ??$type_case_integer_parse_into_buffer@_K$07@?$output_processor@DV?$string_output_adapter@D@__crt_stdio_output@@V?$format_validation_base@DV?$string_output_adapter@D@__crt_stdio_output@@@2@@__crt_stdio_output@@AEAAX_K_N@Z 0000000180064510 f i libucrtd:output.obj
 0001:00063650       ??$type_case_integer_parse_into_buffer@_K$07@?$output_processor@_WV?$stream_output_adapter@_W@__crt_stdio_output@@V?$standard_base@_WV?$stream_output_adapter@_W@__crt_stdio_output@@@2@@__crt_stdio_output@@AEAAX_K_N@Z 0000000180064650 f i libucrtd:output.obj
 0001:00063790       ??$type_case_integer_parse_into_buffer@_K$07@?$output_processor@_WV?$string_output_adapter@_W@__crt_stdio_output@@V?$format_validation_base@_WV?$string_output_adapter@_W@__crt_stdio_output@@@2@@__crt_stdio_output@@AEAAX_K_N@Z 0000000180064790 f i libucrtd:output.obj
 0001:000638d0       ??$type_case_integer_parse_into_buffer@_K$07@?$output_processor@_WV?$string_output_adapter@_W@__crt_stdio_output@@V?$standard_base@_WV?$string_output_adapter@_W@__crt_stdio_output@@@2@@__crt_stdio_output@@AEAAX_K_N@Z 00000001800648d0 f i libucrtd:output.obj
 0001:00063a10       ??$type_case_integer_parse_into_buffer@_K$09@?$output_processor@DV?$string_output_adapter@D@__crt_stdio_output@@V?$format_validation_base@DV?$string_output_adapter@D@__crt_stdio_output@@@2@@__crt_stdio_output@@AEAAX_K_N@Z 0000000180064a10 f i libucrtd:output.obj
 0001:00063b50       ??$type_case_integer_parse_into_buffer@_K$09@?$output_processor@_WV?$stream_output_adapter@_W@__crt_stdio_output@@V?$standard_base@_WV?$stream_output_adapter@_W@__crt_stdio_output@@@2@@__crt_stdio_output@@AEAAX_K_N@Z 0000000180064b50 f i libucrtd:output.obj
 0001:00063c90       ??$type_case_integer_parse_into_buffer@_K$09@?$output_processor@_WV?$string_output_adapter@_W@__crt_stdio_output@@V?$format_validation_base@_WV?$string_output_adapter@_W@__crt_stdio_output@@@2@@__crt_stdio_output@@AEAAX_K_N@Z 0000000180064c90 f i libucrtd:output.obj
 0001:00063dd0       ??$type_case_integer_parse_into_buffer@_K$09@?$output_processor@_WV?$string_output_adapter@_W@__crt_stdio_output@@V?$standard_base@_WV?$string_output_adapter@_W@__crt_stdio_output@@@2@@__crt_stdio_output@@AEAAX_K_N@Z 0000000180064dd0 f i libucrtd:output.obj
 0001:00063f10       ??$type_case_integer_parse_into_buffer@_K$0BA@@?$output_processor@DV?$string_output_adapter@D@__crt_stdio_output@@V?$format_validation_base@DV?$string_output_adapter@D@__crt_stdio_output@@@2@@__crt_stdio_output@@AEAAX_K_N@Z 0000000180064f10 f i libucrtd:output.obj
 0001:00064050       ??$type_case_integer_parse_into_buffer@_K$0BA@@?$output_processor@_WV?$stream_output_adapter@_W@__crt_stdio_output@@V?$standard_base@_WV?$stream_output_adapter@_W@__crt_stdio_output@@@2@@__crt_stdio_output@@AEAAX_K_N@Z 0000000180065050 f i libucrtd:output.obj
 0001:00064190       ??$type_case_integer_parse_into_buffer@_K$0BA@@?$output_processor@_WV?$string_output_adapter@_W@__crt_stdio_output@@V?$format_validation_base@_WV?$string_output_adapter@_W@__crt_stdio_output@@@2@@__crt_stdio_output@@AEAAX_K_N@Z 0000000180065190 f i libucrtd:output.obj
 0001:000642d0       ??$type_case_integer_parse_into_buffer@_K$0BA@@?$output_processor@_WV?$string_output_adapter@_W@__crt_stdio_output@@V?$standard_base@_WV?$string_output_adapter@_W@__crt_stdio_output@@@2@@__crt_stdio_output@@AEAAX_K_N@Z 00000001800652d0 f i libucrtd:output.obj
 0001:00064410       ??$write_multiple_characters@V?$stream_output_adapter@_W@__crt_stdio_output@@D@__crt_stdio_output@@YAXAEBV?$stream_output_adapter@_W@0@DHQEAHAEAV__crt_cached_ptd_host@@@Z 0000000180065410 f i libucrtd:output.obj
 0001:00064480       ??$write_multiple_characters@V?$string_output_adapter@D@__crt_stdio_output@@D@__crt_stdio_output@@YAXAEBV?$string_output_adapter@D@0@DHQEAHAEAV__crt_cached_ptd_host@@@Z 0000000180065480 f i libucrtd:output.obj
 0001:000644f0       ??$write_multiple_characters@V?$string_output_adapter@_W@__crt_stdio_output@@D@__crt_stdio_output@@YAXAEBV?$string_output_adapter@_W@0@DHQEAHAEAV__crt_cached_ptd_host@@@Z 00000001800654f0 f i libucrtd:output.obj
 0001:00064600       ??0?$common_data@D@__crt_stdio_output@@IEAA@AEAV__crt_cached_ptd_host@@@Z 0000000180065600 f i libucrtd:output.obj
 0001:000646c0       ??0?$common_data@_W@__crt_stdio_output@@IEAA@AEAV__crt_cached_ptd_host@@@Z 00000001800656c0 f i libucrtd:output.obj
 0001:00064780       ??0?$output_adapter_data@DV?$string_output_adapter@D@__crt_stdio_output@@@__crt_stdio_output@@IEAA@AEBV?$string_output_adapter@D@1@_KQEBDAEAV__crt_cached_ptd_host@@QEAD@Z 0000000180065780 f i libucrtd:output.obj
 0001:00064800       ??0?$output_adapter_data@_WV?$stream_output_adapter@_W@__crt_stdio_output@@@__crt_stdio_output@@IEAA@AEBV?$stream_output_adapter@_W@1@_KQEB_WAEAV__crt_cached_ptd_host@@QEAD@Z 0000000180065800 f i libucrtd:output.obj
 0001:00064880       ??0?$output_adapter_data@_WV?$string_output_adapter@_W@__crt_stdio_output@@@__crt_stdio_output@@IEAA@AEBV?$string_output_adapter@_W@1@_KQEB_WAEAV__crt_cached_ptd_host@@QEAD@Z 0000000180065880 f i libucrtd:output.obj
 0001:00064900       ??0?$output_processor@DV?$string_output_adapter@D@__crt_stdio_output@@V?$format_validation_base@DV?$string_output_adapter@D@__crt_stdio_output@@@2@@__crt_stdio_output@@QEAA@AEBV?$string_output_adapter@D@1@_KQEBDAEAV__crt_cached_ptd_host@@QEAD@Z 0000000180065900 f i libucrtd:output.obj
 0001:00064950       ??0?$output_processor@_WV?$stream_output_adapter@_W@__crt_stdio_output@@V?$standard_base@_WV?$stream_output_adapter@_W@__crt_stdio_output@@@2@@__crt_stdio_output@@QEAA@AEBV?$stream_output_adapter@_W@1@_KQEB_WAEAV__crt_cached_ptd_host@@QEAD@Z 0000000180065950 f i libucrtd:output.obj
 0001:000649a0       ??0?$output_processor@_WV?$string_output_adapter@_W@__crt_stdio_output@@V?$format_validation_base@_WV?$string_output_adapter@_W@__crt_stdio_output@@@2@@__crt_stdio_output@@QEAA@AEBV?$string_output_adapter@_W@1@_KQEB_WAEAV__crt_cached_ptd_host@@QEAD@Z 00000001800659a0 f i libucrtd:output.obj
 0001:000649f0       ??0?$output_processor@_WV?$string_output_adapter@_W@__crt_stdio_output@@V?$standard_base@_WV?$string_output_adapter@_W@__crt_stdio_output@@@2@@__crt_stdio_output@@QEAA@AEBV?$string_output_adapter@_W@1@_KQEB_WAEAV__crt_cached_ptd_host@@QEAD@Z 00000001800659f0 f i libucrtd:output.obj
 0001:00064a40       ??0?$stream_output_adapter@_W@__crt_stdio_output@@QEAA@QEAU_iobuf@@@Z 0000000180065a40 f i libucrtd:output.obj
 0001:00064a80       ??0?$string_output_adapter@D@__crt_stdio_output@@QEAA@QEAU?$string_output_adapter_context@D@1@@Z 0000000180065a80 f i libucrtd:output.obj
 0001:00064aa0       ??0?$string_output_adapter@_W@__crt_stdio_output@@QEAA@QEAU?$string_output_adapter_context@_W@1@@Z 0000000180065aa0 f i libucrtd:output.obj
 0001:00064ac0       ??0__acrt_stdio_temporary_buffering_guard@@QEAA@QEAU_iobuf@@AEAV__crt_cached_ptd_host@@@Z 0000000180065ac0 f i libucrtd:output.obj
 0001:00064b10       ??0formatting_buffer@__crt_stdio_output@@QEAA@XZ 0000000180065b10 f i libucrtd:output.obj
 0001:00064b50       ??0guard@?$cached@H@__crt_cached_ptd_host@@QEAA@AEAU12@@Z 0000000180065b50 f i libucrtd:output.obj
 0001:00064b90       ??1?$common_data@D@__crt_stdio_output@@QEAA@XZ 0000000180065b90 f i libucrtd:output.obj
 0001:00064bb0       ??1?$common_data@_W@__crt_stdio_output@@QEAA@XZ 0000000180065bb0 f i libucrtd:output.obj
 0001:00064bd0       ??1?$format_validation_base@DV?$string_output_adapter@D@__crt_stdio_output@@@__crt_stdio_output@@QEAA@XZ 0000000180065bd0 f i libucrtd:output.obj
 0001:00064bf0       ??1?$format_validation_base@_WV?$string_output_adapter@_W@__crt_stdio_output@@@__crt_stdio_output@@QEAA@XZ 0000000180065bf0 f i libucrtd:output.obj
 0001:00064c10       ??1?$output_adapter_data@DV?$string_output_adapter@D@__crt_stdio_output@@@__crt_stdio_output@@QEAA@XZ 0000000180065c10 f i libucrtd:output.obj
 0001:00064c30       ??1?$output_adapter_data@_WV?$stream_output_adapter@_W@__crt_stdio_output@@@__crt_stdio_output@@QEAA@XZ 0000000180065c30 f i libucrtd:output.obj
 0001:00064c50       ??1?$output_adapter_data@_WV?$string_output_adapter@_W@__crt_stdio_output@@@__crt_stdio_output@@QEAA@XZ 0000000180065c50 f i libucrtd:output.obj
 0001:00064c70       ??1?$output_processor@DV?$string_output_adapter@D@__crt_stdio_output@@V?$format_validation_base@DV?$string_output_adapter@D@__crt_stdio_output@@@2@@__crt_stdio_output@@QEAA@XZ 0000000180065c70 f i libucrtd:output.obj
 0001:00064c90       ??1?$output_processor@_WV?$stream_output_adapter@_W@__crt_stdio_output@@V?$standard_base@_WV?$stream_output_adapter@_W@__crt_stdio_output@@@2@@__crt_stdio_output@@QEAA@XZ 0000000180065c90 f i libucrtd:output.obj
 0001:00064cb0       ??1?$output_processor@_WV?$string_output_adapter@_W@__crt_stdio_output@@V?$format_validation_base@_WV?$string_output_adapter@_W@__crt_stdio_output@@@2@@__crt_stdio_output@@QEAA@XZ 0000000180065cb0 f i libucrtd:output.obj
 0001:00064cd0       ??1?$output_processor@_WV?$string_output_adapter@_W@__crt_stdio_output@@V?$standard_base@_WV?$string_output_adapter@_W@__crt_stdio_output@@@2@@__crt_stdio_output@@QEAA@XZ 0000000180065cd0 f i libucrtd:output.obj
 0001:00064cf0       ??1?$standard_base@DV?$string_output_adapter@D@__crt_stdio_output@@@__crt_stdio_output@@QEAA@XZ 0000000180065cf0 f i libucrtd:output.obj
 0001:00064d10       ??1?$standard_base@_WV?$stream_output_adapter@_W@__crt_stdio_output@@@__crt_stdio_output@@QEAA@XZ 0000000180065d10 f i libucrtd:output.obj
 0001:00064d30       ??1?$standard_base@_WV?$string_output_adapter@_W@__crt_stdio_output@@@__crt_stdio_output@@QEAA@XZ 0000000180065d30 f i libucrtd:output.obj
 0001:00064d50       ??1__acrt_stdio_temporary_buffering_guard@@QEAA@XZ 0000000180065d50 f i libucrtd:output.obj
 0001:00064d80       ??1formatting_buffer@__crt_stdio_output@@QEAA@XZ 0000000180065d80 f i libucrtd:output.obj
 0001:00064db0       ??1guard@?$cached@H@__crt_cached_ptd_host@@QEAA@XZ 0000000180065db0 f i libucrtd:output.obj
 0001:00064de0       ??4?$__crt_unique_heap_ptr@DU__crt_internal_free_policy@@@@QEAAAEAV0@$$QEAV0@@Z 0000000180065de0 f i libucrtd:output.obj
 0001:00064e20       ??A?$spectre_mitigated_lookup_table@Ustate_transition_pair@__crt_stdio_output@@$0IA@@__crt_stdio_output@@QEBAAEBUstate_transition_pair@1@_K@Z 0000000180065e20 f i libucrtd:output.obj
 0001:00064fa0       ?adjust_hexit@?$output_processor@DV?$string_output_adapter@D@__crt_stdio_output@@V?$format_validation_base@DV?$string_output_adapter@D@__crt_stdio_output@@@2@@__crt_stdio_output@@CADH_N@Z 0000000180065fa0 f i libucrtd:output.obj
 0001:00064ff0       ?adjust_hexit@?$output_processor@_WV?$stream_output_adapter@_W@__crt_stdio_output@@V?$standard_base@_WV?$stream_output_adapter@_W@__crt_stdio_output@@@2@@__crt_stdio_output@@CADH_N@Z 0000000180065ff0 f i libucrtd:output.obj
 0001:00065040       ?adjust_hexit@?$output_processor@_WV?$string_output_adapter@_W@__crt_stdio_output@@V?$format_validation_base@_WV?$string_output_adapter@_W@__crt_stdio_output@@@2@@__crt_stdio_output@@CADH_N@Z 0000000180066040 f i libucrtd:output.obj
 0001:00065090       ?adjust_hexit@?$output_processor@_WV?$string_output_adapter@_W@__crt_stdio_output@@V?$standard_base@_WV?$string_output_adapter@_W@__crt_stdio_output@@@2@@__crt_stdio_output@@CADH_N@Z 0000000180066090 f i libucrtd:output.obj
 0001:000650e0       ?advance_to_next_pass@?$standard_base@DV?$string_output_adapter@D@__crt_stdio_output@@@__crt_stdio_output@@IEAA_NXZ 00000001800660e0 f i libucrtd:output.obj
 0001:00065130       ?advance_to_next_pass@?$standard_base@_WV?$stream_output_adapter@_W@__crt_stdio_output@@@__crt_stdio_output@@IEAA_NXZ 0000000180066130 f i libucrtd:output.obj
 0001:00065180       ?advance_to_next_pass@?$standard_base@_WV?$string_output_adapter@_W@__crt_stdio_output@@@__crt_stdio_output@@IEAA_NXZ 0000000180066180 f i libucrtd:output.obj
 0001:000651d0       ?check@?$cached@H@__crt_cached_ptd_host@@QEBA_NH@Z 00000001800661d0 f i libucrtd:output.obj
 0001:00065210       ?create_guard@?$cached@H@__crt_cached_ptd_host@@QEAA?AVguard@12@XZ 0000000180066210 f i libucrtd:output.obj
 0001:00065240       ?crop_zeroes@__crt_stdio_output@@YAXPEADQEAU__crt_locale_pointers@@@Z 0000000180066240 f i libucrtd:output.obj
 0001:00065390       ?disable@guard@?$cached@H@__crt_cached_ptd_host@@QEAAXXZ 0000000180066390 f i libucrtd:output.obj
 0001:000653a0       ?enable@guard@?$cached@H@__crt_cached_ptd_host@@QEAAXXZ 00000001800663a0 f i libucrtd:output.obj
 0001:000653b0       ?find_next_state@?$output_processor@DV?$string_output_adapter@D@__crt_stdio_output@@V?$format_validation_base@DV?$string_output_adapter@D@__crt_stdio_output@@@2@@__crt_stdio_output@@AEBA?AW4state@2@DW432@@Z 00000001800663b0 f i libucrtd:output.obj
 0001:00065450       ?find_next_state@?$output_processor@_WV?$stream_output_adapter@_W@__crt_stdio_output@@V?$standard_base@_WV?$stream_output_adapter@_W@__crt_stdio_output@@@2@@__crt_stdio_output@@AEBA?AW4state@2@_WW432@@Z 0000000180066450 f i libucrtd:output.obj
 0001:000654f0       ?find_next_state@?$output_processor@_WV?$string_output_adapter@_W@__crt_stdio_output@@V?$format_validation_base@_WV?$string_output_adapter@_W@__crt_stdio_output@@@2@@__crt_stdio_output@@AEBA?AW4state@2@_WW432@@Z 00000001800664f0 f i libucrtd:output.obj
 0001:00065590       ?find_next_state@?$output_processor@_WV?$string_output_adapter@_W@__crt_stdio_output@@V?$standard_base@_WV?$string_output_adapter@_W@__crt_stdio_output@@@2@@__crt_stdio_output@@AEBA?AW4state@2@_WW432@@Z 0000000180066590 f i libucrtd:output.obj
 0001:00065630       ?force_decimal_point@__crt_stdio_output@@YAXPEADQEAU__crt_locale_pointers@@@Z 0000000180066630 f i libucrtd:output.obj
 0001:00065730       ?has_flag@?$output_processor@DV?$string_output_adapter@D@__crt_stdio_output@@V?$format_validation_base@DV?$string_output_adapter@D@__crt_stdio_output@@@2@@__crt_stdio_output@@AEBA_NI@Z 0000000180066730 f i libucrtd:output.obj
 0001:00065770       ?has_flag@?$output_processor@_WV?$stream_output_adapter@_W@__crt_stdio_output@@V?$standard_base@_WV?$stream_output_adapter@_W@__crt_stdio_output@@@2@@__crt_stdio_output@@AEBA_NI@Z 0000000180066770 f i libucrtd:output.obj
 0001:000657b0       ?has_flag@?$output_processor@_WV?$string_output_adapter@_W@__crt_stdio_output@@V?$format_validation_base@_WV?$string_output_adapter@_W@__crt_stdio_output@@@2@@__crt_stdio_output@@AEBA_NI@Z 00000001800667b0 f i libucrtd:output.obj
 0001:000657f0       ?has_flag@?$output_processor@_WV?$string_output_adapter@_W@__crt_stdio_output@@V?$standard_base@_WV?$string_output_adapter@_W@__crt_stdio_output@@@2@@__crt_stdio_output@@AEBA_NI@Z 00000001800667f0 f i libucrtd:output.obj
 0001:00065830       ?narrow_null_string@?$output_processor@DV?$string_output_adapter@D@__crt_stdio_output@@V?$format_validation_base@DV?$string_output_adapter@D@__crt_stdio_output@@@2@@__crt_stdio_output@@CAPEADXZ 0000000180066830 f i libucrtd:output.obj
 0001:00065840       ?narrow_null_string@?$output_processor@_WV?$stream_output_adapter@_W@__crt_stdio_output@@V?$standard_base@_WV?$stream_output_adapter@_W@__crt_stdio_output@@@2@@__crt_stdio_output@@CAPEADXZ 0000000180066840 f i libucrtd:output.obj
 0001:00065850       ?narrow_null_string@?$output_processor@_WV?$string_output_adapter@_W@__crt_stdio_output@@V?$format_validation_base@_WV?$string_output_adapter@_W@__crt_stdio_output@@@2@@__crt_stdio_output@@CAPEADXZ 0000000180066850 f i libucrtd:output.obj
 0001:00065860       ?narrow_null_string@?$output_processor@_WV?$string_output_adapter@_W@__crt_stdio_output@@V?$standard_base@_WV?$string_output_adapter@_W@__crt_stdio_output@@@2@@__crt_stdio_output@@CAPEADXZ 0000000180066860 f i libucrtd:output.obj
 0001:00065870       ?parse_int_from_format_string@?$output_processor@DV?$string_output_adapter@D@__crt_stdio_output@@V?$format_validation_base@DV?$string_output_adapter@D@__crt_stdio_output@@@2@@__crt_stdio_output@@AEAA_NQEAH@Z 0000000180066870 f i libucrtd:output.obj
 0001:00065970       ?parse_int_from_format_string@?$output_processor@_WV?$stream_output_adapter@_W@__crt_stdio_output@@V?$standard_base@_WV?$stream_output_adapter@_W@__crt_stdio_output@@@2@@__crt_stdio_output@@AEAA_NQEAH@Z 0000000180066970 f i libucrtd:output.obj
 0001:00065a70       ?parse_int_from_format_string@?$output_processor@_WV?$string_output_adapter@_W@__crt_stdio_output@@V?$format_validation_base@_WV?$string_output_adapter@_W@__crt_stdio_output@@@2@@__crt_stdio_output@@AEAA_NQEAH@Z 0000000180066a70 f i libucrtd:output.obj
 0001:00065b70       ?parse_int_from_format_string@?$output_processor@_WV?$string_output_adapter@_W@__crt_stdio_output@@V?$standard_base@_WV?$string_output_adapter@_W@__crt_stdio_output@@@2@@__crt_stdio_output@@AEAA_NQEAH@Z 0000000180066b70 f i libucrtd:output.obj
 0001:00065c70       ?process@?$output_processor@DV?$string_output_adapter@D@__crt_stdio_output@@V?$format_validation_base@DV?$string_output_adapter@D@__crt_stdio_output@@@2@@__crt_stdio_output@@QEAAHXZ 0000000180066c70 f i libucrtd:output.obj
 0001:00066030       ?process@?$output_processor@_WV?$stream_output_adapter@_W@__crt_stdio_output@@V?$standard_base@_WV?$stream_output_adapter@_W@__crt_stdio_output@@@2@@__crt_stdio_output@@QEAAHXZ 0000000180067030 f i libucrtd:output.obj
 0001:000663f0       ?process@?$output_processor@_WV?$string_output_adapter@_W@__crt_stdio_output@@V?$format_validation_base@_WV?$string_output_adapter@_W@__crt_stdio_output@@@2@@__crt_stdio_output@@QEAAHXZ 00000001800673f0 f i libucrtd:output.obj
 0001:000667b0       ?process@?$output_processor@_WV?$string_output_adapter@_W@__crt_stdio_output@@V?$standard_base@_WV?$string_output_adapter@_W@__crt_stdio_output@@@2@@__crt_stdio_output@@QEAAHXZ 00000001800677b0 f i libucrtd:output.obj
 0001:00066b70       ?set_flag@?$output_processor@DV?$string_output_adapter@D@__crt_stdio_output@@V?$format_validation_base@DV?$string_output_adapter@D@__crt_stdio_output@@@2@@__crt_stdio_output@@AEAAXI@Z 0000000180067b70 f i libucrtd:output.obj
 0001:00066b90       ?set_flag@?$output_processor@_WV?$stream_output_adapter@_W@__crt_stdio_output@@V?$standard_base@_WV?$stream_output_adapter@_W@__crt_stdio_output@@@2@@__crt_stdio_output@@AEAAXI@Z 0000000180067b90 f i libucrtd:output.obj
 0001:00066bb0       ?set_flag@?$output_processor@_WV?$string_output_adapter@_W@__crt_stdio_output@@V?$format_validation_base@_WV?$string_output_adapter@_W@__crt_stdio_output@@@2@@__crt_stdio_output@@AEAAXI@Z 0000000180067bb0 f i libucrtd:output.obj
 0001:00066bd0       ?set_flag@?$output_processor@_WV?$string_output_adapter@_W@__crt_stdio_output@@V?$standard_base@_WV?$string_output_adapter@_W@__crt_stdio_output@@@2@@__crt_stdio_output@@AEAAXI@Z 0000000180067bd0 f i libucrtd:output.obj
 0001:00066bf0       ?should_format@?$standard_base@DV?$string_output_adapter@D@__crt_stdio_output@@@__crt_stdio_output@@IEAA_NXZ 0000000180067bf0 f i libucrtd:output.obj
 0001:00066c00       ?should_format@?$standard_base@_WV?$stream_output_adapter@_W@__crt_stdio_output@@@__crt_stdio_output@@IEAA_NXZ 0000000180067c00 f i libucrtd:output.obj
 0001:00066c10       ?should_format@?$standard_base@_WV?$string_output_adapter@_W@__crt_stdio_output@@@__crt_stdio_output@@IEAA_NXZ 0000000180067c10 f i libucrtd:output.obj
 0001:00066c20       ?should_skip_normal_state_processing@?$standard_base@DV?$string_output_adapter@D@__crt_stdio_output@@@__crt_stdio_output@@IEAA_NXZ 0000000180067c20 f i libucrtd:output.obj
 0001:00066c30       ?should_skip_normal_state_processing@?$standard_base@_WV?$stream_output_adapter@_W@__crt_stdio_output@@@__crt_stdio_output@@IEAA_NXZ 0000000180067c30 f i libucrtd:output.obj
 0001:00066c40       ?should_skip_normal_state_processing@?$standard_base@_WV?$string_output_adapter@_W@__crt_stdio_output@@@__crt_stdio_output@@IEAA_NXZ 0000000180067c40 f i libucrtd:output.obj
 0001:00066c50       ?should_skip_type_state_output@?$standard_base@DV?$string_output_adapter@D@__crt_stdio_output@@@__crt_stdio_output@@IEBA_NXZ 0000000180067c50 f i libucrtd:output.obj
 0001:00066c60       ?should_skip_type_state_output@?$standard_base@_WV?$stream_output_adapter@_W@__crt_stdio_output@@@__crt_stdio_output@@IEBA_NXZ 0000000180067c60 f i libucrtd:output.obj
 0001:00066c70       ?should_skip_type_state_output@?$standard_base@_WV?$string_output_adapter@_W@__crt_stdio_output@@@__crt_stdio_output@@IEBA_NXZ 0000000180067c70 f i libucrtd:output.obj
 0001:00066c80       ?state_case_dot@?$output_processor@DV?$string_output_adapter@D@__crt_stdio_output@@V?$format_validation_base@DV?$string_output_adapter@D@__crt_stdio_output@@@2@@__crt_stdio_output@@AEAA_NXZ 0000000180067c80 f i libucrtd:output.obj
 0001:00066ca0       ?state_case_dot@?$output_processor@_WV?$stream_output_adapter@_W@__crt_stdio_output@@V?$standard_base@_WV?$stream_output_adapter@_W@__crt_stdio_output@@@2@@__crt_stdio_output@@AEAA_NXZ 0000000180067ca0 f i libucrtd:output.obj
 0001:00066cc0       ?state_case_dot@?$output_processor@_WV?$string_output_adapter@_W@__crt_stdio_output@@V?$format_validation_base@_WV?$string_output_adapter@_W@__crt_stdio_output@@@2@@__crt_stdio_output@@AEAA_NXZ 0000000180067cc0 f i libucrtd:output.obj
 0001:00066ce0       ?state_case_dot@?$output_processor@_WV?$string_output_adapter@_W@__crt_stdio_output@@V?$standard_base@_WV?$string_output_adapter@_W@__crt_stdio_output@@@2@@__crt_stdio_output@@AEAA_NXZ 0000000180067ce0 f i libucrtd:output.obj
 0001:00066d00       ?state_case_flag@?$output_processor@DV?$string_output_adapter@D@__crt_stdio_output@@V?$format_validation_base@DV?$string_output_adapter@D@__crt_stdio_output@@@2@@__crt_stdio_output@@AEAA_NXZ 0000000180067d00 f i libucrtd:output.obj
 0001:00066da0       ?state_case_flag@?$output_processor@_WV?$stream_output_adapter@_W@__crt_stdio_output@@V?$standard_base@_WV?$stream_output_adapter@_W@__crt_stdio_output@@@2@@__crt_stdio_output@@AEAA_NXZ 0000000180067da0 f i libucrtd:output.obj
 0001:00066e40       ?state_case_flag@?$output_processor@_WV?$string_output_adapter@_W@__crt_stdio_output@@V?$format_validation_base@_WV?$string_output_adapter@_W@__crt_stdio_output@@@2@@__crt_stdio_output@@AEAA_NXZ 0000000180067e40 f i libucrtd:output.obj
 0001:00066ee0       ?state_case_flag@?$output_processor@_WV?$string_output_adapter@_W@__crt_stdio_output@@V?$standard_base@_WV?$string_output_adapter@_W@__crt_stdio_output@@@2@@__crt_stdio_output@@AEAA_NXZ 0000000180067ee0 f i libucrtd:output.obj
 0001:00066f80       ?state_case_normal@?$output_processor@DV?$string_output_adapter@D@__crt_stdio_output@@V?$format_validation_base@DV?$string_output_adapter@D@__crt_stdio_output@@@2@@__crt_stdio_output@@AEAA_NXZ 0000000180067f80 f i libucrtd:output.obj
 0001:00067080       ?state_case_normal@?$output_processor@_WV?$stream_output_adapter@_W@__crt_stdio_output@@V?$standard_base@_WV?$stream_output_adapter@_W@__crt_stdio_output@@@2@@__crt_stdio_output@@AEAA_NXZ 0000000180068080 f i libucrtd:output.obj
 0001:00067180       ?state_case_normal@?$output_processor@_WV?$string_output_adapter@_W@__crt_stdio_output@@V?$format_validation_base@_WV?$string_output_adapter@_W@__crt_stdio_output@@@2@@__crt_stdio_output@@AEAA_NXZ 0000000180068180 f i libucrtd:output.obj
 0001:00067280       ?state_case_normal@?$output_processor@_WV?$string_output_adapter@_W@__crt_stdio_output@@V?$standard_base@_WV?$string_output_adapter@_W@__crt_stdio_output@@@2@@__crt_stdio_output@@AEAA_NXZ 0000000180068280 f i libucrtd:output.obj
 0001:00067380       ?state_case_normal_common@?$output_processor@DV?$string_output_adapter@D@__crt_stdio_output@@V?$format_validation_base@DV?$string_output_adapter@D@__crt_stdio_output@@@2@@__crt_stdio_output@@AEAA_NXZ 0000000180068380 f i libucrtd:output.obj
 0001:000673e0       ?state_case_normal_common@?$output_processor@_WV?$stream_output_adapter@_W@__crt_stdio_output@@V?$standard_base@_WV?$stream_output_adapter@_W@__crt_stdio_output@@@2@@__crt_stdio_output@@AEAA_NXZ 00000001800683e0 f i libucrtd:output.obj
 0001:00067440       ?state_case_normal_common@?$output_processor@_WV?$string_output_adapter@_W@__crt_stdio_output@@V?$format_validation_base@_WV?$string_output_adapter@_W@__crt_stdio_output@@@2@@__crt_stdio_output@@AEAA_NXZ 0000000180068440 f i libucrtd:output.obj
 0001:000674a0       ?state_case_normal_common@?$output_processor@_WV?$string_output_adapter@_W@__crt_stdio_output@@V?$standard_base@_WV?$string_output_adapter@_W@__crt_stdio_output@@@2@@__crt_stdio_output@@AEAA_NXZ 00000001800684a0 f i libucrtd:output.obj
 0001:00067500       ?state_case_normal_tchar@?$output_processor@DV?$string_output_adapter@D@__crt_stdio_output@@V?$format_validation_base@DV?$string_output_adapter@D@__crt_stdio_output@@@2@@__crt_stdio_output@@AEAA_ND@Z 0000000180068500 f i libucrtd:output.obj
 0001:00067690       ?state_case_normal_tchar@?$output_processor@_WV?$stream_output_adapter@_W@__crt_stdio_output@@V?$standard_base@_WV?$stream_output_adapter@_W@__crt_stdio_output@@@2@@__crt_stdio_output@@AEAA_N_W@Z 0000000180068690 f i libucrtd:output.obj
 0001:000676b0       ?state_case_normal_tchar@?$output_processor@_WV?$string_output_adapter@_W@__crt_stdio_output@@V?$format_validation_base@_WV?$string_output_adapter@_W@__crt_stdio_output@@@2@@__crt_stdio_output@@AEAA_N_W@Z 00000001800686b0 f i libucrtd:output.obj
 0001:000676d0       ?state_case_normal_tchar@?$output_processor@_WV?$string_output_adapter@_W@__crt_stdio_output@@V?$standard_base@_WV?$string_output_adapter@_W@__crt_stdio_output@@@2@@__crt_stdio_output@@AEAA_N_W@Z 00000001800686d0 f i libucrtd:output.obj
 0001:000676f0       ?state_case_percent@?$output_processor@DV?$string_output_adapter@D@__crt_stdio_output@@V?$format_validation_base@DV?$string_output_adapter@D@__crt_stdio_output@@@2@@__crt_stdio_output@@AEAA_NXZ 00000001800686f0 f i libucrtd:output.obj
 0001:00067740       ?state_case_percent@?$output_processor@_WV?$stream_output_adapter@_W@__crt_stdio_output@@V?$standard_base@_WV?$stream_output_adapter@_W@__crt_stdio_output@@@2@@__crt_stdio_output@@AEAA_NXZ 0000000180068740 f i libucrtd:output.obj
 0001:00067790       ?state_case_percent@?$output_processor@_WV?$string_output_adapter@_W@__crt_stdio_output@@V?$format_validation_base@_WV?$string_output_adapter@_W@__crt_stdio_output@@@2@@__crt_stdio_output@@AEAA_NXZ 0000000180068790 f i libucrtd:output.obj
 0001:000677e0       ?state_case_percent@?$output_processor@_WV?$string_output_adapter@_W@__crt_stdio_output@@V?$standard_base@_WV?$string_output_adapter@_W@__crt_stdio_output@@@2@@__crt_stdio_output@@AEAA_NXZ 00000001800687e0 f i libucrtd:output.obj
 0001:00067830       ?state_case_precision@?$output_processor@DV?$string_output_adapter@D@__crt_stdio_output@@V?$format_validation_base@DV?$string_output_adapter@D@__crt_stdio_output@@@2@@__crt_stdio_output@@AEAA_NXZ 0000000180068830 f i libucrtd:output.obj
 0001:000678b0       ?state_case_precision@?$output_processor@_WV?$stream_output_adapter@_W@__crt_stdio_output@@V?$standard_base@_WV?$stream_output_adapter@_W@__crt_stdio_output@@@2@@__crt_stdio_output@@AEAA_NXZ 00000001800688b0 f i libucrtd:output.obj
 0001:00067930       ?state_case_precision@?$output_processor@_WV?$string_output_adapter@_W@__crt_stdio_output@@V?$format_validation_base@_WV?$string_output_adapter@_W@__crt_stdio_output@@@2@@__crt_stdio_output@@AEAA_NXZ 0000000180068930 f i libucrtd:output.obj
 0001:000679b0       ?state_case_precision@?$output_processor@_WV?$string_output_adapter@_W@__crt_stdio_output@@V?$standard_base@_WV?$string_output_adapter@_W@__crt_stdio_output@@@2@@__crt_stdio_output@@AEAA_NXZ 00000001800689b0 f i libucrtd:output.obj
 0001:00067a30       ?state_case_size@?$output_processor@DV?$string_output_adapter@D@__crt_stdio_output@@V?$format_validation_base@DV?$string_output_adapter@D@__crt_stdio_output@@@2@@__crt_stdio_output@@AEAA_NXZ 0000000180068a30 f i libucrtd:output.obj
 0001:00067ef0       ?state_case_size@?$output_processor@_WV?$stream_output_adapter@_W@__crt_stdio_output@@V?$standard_base@_WV?$stream_output_adapter@_W@__crt_stdio_output@@@2@@__crt_stdio_output@@AEAA_NXZ 0000000180068ef0 f i libucrtd:output.obj
 0001:000683b0       ?state_case_size@?$output_processor@_WV?$string_output_adapter@_W@__crt_stdio_output@@V?$format_validation_base@_WV?$string_output_adapter@_W@__crt_stdio_output@@@2@@__crt_stdio_output@@AEAA_NXZ 00000001800693b0 f i libucrtd:output.obj
 0001:00068870       ?state_case_size@?$output_processor@_WV?$string_output_adapter@_W@__crt_stdio_output@@V?$standard_base@_WV?$string_output_adapter@_W@__crt_stdio_output@@@2@@__crt_stdio_output@@AEAA_NXZ 0000000180069870 f i libucrtd:output.obj
 0001:00068d30       ?state_case_type@?$output_processor@DV?$string_output_adapter@D@__crt_stdio_output@@V?$format_validation_base@DV?$string_output_adapter@D@__crt_stdio_output@@@2@@__crt_stdio_output@@AEAA_NXZ 0000000180069d30 f i libucrtd:output.obj
 0001:000691f0       ?state_case_type@?$output_processor@_WV?$stream_output_adapter@_W@__crt_stdio_output@@V?$standard_base@_WV?$stream_output_adapter@_W@__crt_stdio_output@@@2@@__crt_stdio_output@@AEAA_NXZ 000000018006a1f0 f i libucrtd:output.obj
 0001:00069780       ?state_case_type@?$output_processor@_WV?$string_output_adapter@_W@__crt_stdio_output@@V?$format_validation_base@_WV?$string_output_adapter@_W@__crt_stdio_output@@@2@@__crt_stdio_output@@AEAA_NXZ 000000018006a780 f i libucrtd:output.obj
 0001:00069d10       ?state_case_type@?$output_processor@_WV?$string_output_adapter@_W@__crt_stdio_output@@V?$standard_base@_WV?$string_output_adapter@_W@__crt_stdio_output@@@2@@__crt_stdio_output@@AEAA_NXZ 000000018006ad10 f i libucrtd:output.obj
 0001:0006a2a0       ?state_case_width@?$output_processor@DV?$string_output_adapter@D@__crt_stdio_output@@V?$format_validation_base@DV?$string_output_adapter@D@__crt_stdio_output@@@2@@__crt_stdio_output@@AEAA_NXZ 000000018006b2a0 f i libucrtd:output.obj
 0001:0006a330       ?state_case_width@?$output_processor@_WV?$stream_output_adapter@_W@__crt_stdio_output@@V?$standard_base@_WV?$stream_output_adapter@_W@__crt_stdio_output@@@2@@__crt_stdio_output@@AEAA_NXZ 000000018006b330 f i libucrtd:output.obj
 0001:0006a3c0       ?state_case_width@?$output_processor@_WV?$string_output_adapter@_W@__crt_stdio_output@@V?$format_validation_base@_WV?$string_output_adapter@_W@__crt_stdio_output@@@2@@__crt_stdio_output@@AEAA_NXZ 000000018006b3c0 f i libucrtd:output.obj
 0001:0006a450       ?state_case_width@?$output_processor@_WV?$string_output_adapter@_W@__crt_stdio_output@@V?$standard_base@_WV?$string_output_adapter@_W@__crt_stdio_output@@@2@@__crt_stdio_output@@AEAA_NXZ 000000018006b450 f i libucrtd:output.obj
 0001:0006a4e0       ?state_count@?$format_validation_base@DV?$string_output_adapter@D@__crt_stdio_output@@@__crt_stdio_output@@KAIXZ 000000018006b4e0 f i libucrtd:output.obj
 0001:0006a4f0       ?state_count@?$format_validation_base@_WV?$string_output_adapter@_W@__crt_stdio_output@@@__crt_stdio_output@@KAIXZ 000000018006b4f0 f i libucrtd:output.obj
 0001:0006a500       ?state_count@?$standard_base@_WV?$stream_output_adapter@_W@__crt_stdio_output@@@__crt_stdio_output@@KAIXZ 000000018006b500 f i libucrtd:output.obj
 0001:0006a510       ?state_count@?$standard_base@_WV?$string_output_adapter@_W@__crt_stdio_output@@@__crt_stdio_output@@KAIXZ 000000018006b510 f i libucrtd:output.obj
 0001:0006a520       ?state_transition_table@?$format_validation_base@DV?$string_output_adapter@D@__crt_stdio_output@@@__crt_stdio_output@@KAAEBV?$spectre_mitigated_lookup_table@Ustate_transition_pair@__crt_stdio_output@@$0IA@@2@XZ 000000018006b520 f i libucrtd:output.obj
 0001:0006a530       ?state_transition_table@?$format_validation_base@_WV?$string_output_adapter@_W@__crt_stdio_output@@@__crt_stdio_output@@KAAEBV?$spectre_mitigated_lookup_table@Ustate_transition_pair@__crt_stdio_output@@$0IA@@2@XZ 000000018006b530 f i libucrtd:output.obj
 0001:0006a540       ?state_transition_table@?$standard_base@_WV?$stream_output_adapter@_W@__crt_stdio_output@@@__crt_stdio_output@@KAAEBV?$spectre_mitigated_lookup_table@Ustate_transition_pair@__crt_stdio_output@@$0IA@@2@XZ 000000018006b540 f i libucrtd:output.obj
 0001:0006a550       ?state_transition_table@?$standard_base@_WV?$string_output_adapter@_W@__crt_stdio_output@@@__crt_stdio_output@@KAAEBV?$spectre_mitigated_lookup_table@Ustate_transition_pair@__crt_stdio_output@@$0IA@@2@XZ 000000018006b550 f i libucrtd:output.obj
 0001:0006a560       ?tchar_string@?$common_data@D@__crt_stdio_output@@IEAAAEAPEADD@Z 000000018006b560 f i libucrtd:output.obj
 0001:0006a580       ?tchar_string@?$common_data@D@__crt_stdio_output@@IEAAAEAPEADXZ 000000018006b580 f i libucrtd:output.obj
 0001:0006a5a0       ?tchar_string@?$common_data@_W@__crt_stdio_output@@IEAAAEAPEA_WXZ 000000018006b5a0 f i libucrtd:output.obj
 0001:0006a5c0       ?tchar_string@?$common_data@_W@__crt_stdio_output@@IEAAAEAPEA_W_W@Z 000000018006b5c0 f i libucrtd:output.obj
 0001:0006a5e0       ?to_integer_size@__crt_stdio_output@@YA_KW4length_modifier@1@@Z 000000018006b5e0 f i libucrtd:output.obj
 0001:0006a690       ?type_case_X@?$output_processor@DV?$string_output_adapter@D@__crt_stdio_output@@V?$format_validation_base@DV?$string_output_adapter@D@__crt_stdio_output@@@2@@__crt_stdio_output@@AEAA_NXZ 000000018006b690 f i libucrtd:output.obj
 0001:0006a6b0       ?type_case_X@?$output_processor@_WV?$stream_output_adapter@_W@__crt_stdio_output@@V?$standard_base@_WV?$stream_output_adapter@_W@__crt_stdio_output@@@2@@__crt_stdio_output@@AEAA_NXZ 000000018006b6b0 f i libucrtd:output.obj
 0001:0006a6d0       ?type_case_X@?$output_processor@_WV?$string_output_adapter@_W@__crt_stdio_output@@V?$format_validation_base@_WV?$string_output_adapter@_W@__crt_stdio_output@@@2@@__crt_stdio_output@@AEAA_NXZ 000000018006b6d0 f i libucrtd:output.obj
 0001:0006a6f0       ?type_case_X@?$output_processor@_WV?$string_output_adapter@_W@__crt_stdio_output@@V?$standard_base@_WV?$string_output_adapter@_W@__crt_stdio_output@@@2@@__crt_stdio_output@@AEAA_NXZ 000000018006b6f0 f i libucrtd:output.obj
 0001:0006a710       ?type_case_Z@?$output_processor@DV?$string_output_adapter@D@__crt_stdio_output@@V?$format_validation_base@DV?$string_output_adapter@D@__crt_stdio_output@@@2@@__crt_stdio_output@@AEAA_NXZ 000000018006b710 f i libucrtd:output.obj
 0001:0006a830       ?type_case_Z@?$output_processor@_WV?$stream_output_adapter@_W@__crt_stdio_output@@V?$standard_base@_WV?$stream_output_adapter@_W@__crt_stdio_output@@@2@@__crt_stdio_output@@AEAA_NXZ 000000018006b830 f i libucrtd:output.obj
 0001:0006a950       ?type_case_Z@?$output_processor@_WV?$string_output_adapter@_W@__crt_stdio_output@@V?$format_validation_base@_WV?$string_output_adapter@_W@__crt_stdio_output@@@2@@__crt_stdio_output@@AEAA_NXZ 000000018006b950 f i libucrtd:output.obj
 0001:0006aa70       ?type_case_Z@?$output_processor@_WV?$string_output_adapter@_W@__crt_stdio_output@@V?$standard_base@_WV?$string_output_adapter@_W@__crt_stdio_output@@@2@@__crt_stdio_output@@AEAA_NXZ 000000018006ba70 f i libucrtd:output.obj
 0001:0006ab90       ?type_case_a@?$output_processor@DV?$string_output_adapter@D@__crt_stdio_output@@V?$format_validation_base@DV?$string_output_adapter@D@__crt_stdio_output@@@2@@__crt_stdio_output@@AEAA_NXZ 000000018006bb90 f i libucrtd:output.obj
 0001:0006aff0       ?type_case_a@?$output_processor@_WV?$stream_output_adapter@_W@__crt_stdio_output@@V?$standard_base@_WV?$stream_output_adapter@_W@__crt_stdio_output@@@2@@__crt_stdio_output@@AEAA_NXZ 000000018006bff0 f i libucrtd:output.obj
 0001:0006b460       ?type_case_a@?$output_processor@_WV?$string_output_adapter@_W@__crt_stdio_output@@V?$format_validation_base@_WV?$string_output_adapter@_W@__crt_stdio_output@@@2@@__crt_stdio_output@@AEAA_NXZ 000000018006c460 f i libucrtd:output.obj
 0001:0006b8d0       ?type_case_a@?$output_processor@_WV?$string_output_adapter@_W@__crt_stdio_output@@V?$standard_base@_WV?$string_output_adapter@_W@__crt_stdio_output@@@2@@__crt_stdio_output@@AEAA_NXZ 000000018006c8d0 f i libucrtd:output.obj
 0001:0006bd40       ?type_case_c@?$output_processor@DV?$string_output_adapter@D@__crt_stdio_output@@V?$format_validation_base@DV?$string_output_adapter@D@__crt_stdio_output@@@2@@__crt_stdio_output@@AEAA_NXZ 000000018006cd40 f i libucrtd:output.obj
 0001:0006bd60       ?type_case_c@?$output_processor@_WV?$stream_output_adapter@_W@__crt_stdio_output@@V?$standard_base@_WV?$stream_output_adapter@_W@__crt_stdio_output@@@2@@__crt_stdio_output@@AEAA_NXZ 000000018006cd60 f i libucrtd:output.obj
 0001:0006bd80       ?type_case_c@?$output_processor@_WV?$string_output_adapter@_W@__crt_stdio_output@@V?$format_validation_base@_WV?$string_output_adapter@_W@__crt_stdio_output@@@2@@__crt_stdio_output@@AEAA_NXZ 000000018006cd80 f i libucrtd:output.obj
 0001:0006bda0       ?type_case_c@?$output_processor@_WV?$string_output_adapter@_W@__crt_stdio_output@@V?$standard_base@_WV?$string_output_adapter@_W@__crt_stdio_output@@@2@@__crt_stdio_output@@AEAA_NXZ 000000018006cda0 f i libucrtd:output.obj
 0001:0006bdc0       ?type_case_c_tchar@?$output_processor@DV?$string_output_adapter@D@__crt_stdio_output@@V?$format_validation_base@DV?$string_output_adapter@D@__crt_stdio_output@@@2@@__crt_stdio_output@@AEAA_ND@Z 000000018006cdc0 f i libucrtd:output.obj
 0001:0006bf30       ?type_case_c_tchar@?$output_processor@_WV?$stream_output_adapter@_W@__crt_stdio_output@@V?$standard_base@_WV?$stream_output_adapter@_W@__crt_stdio_output@@@2@@__crt_stdio_output@@AEAA_N_W@Z 000000018006cf30 f i libucrtd:output.obj
 0001:0006c090       ?type_case_c_tchar@?$output_processor@_WV?$string_output_adapter@_W@__crt_stdio_output@@V?$format_validation_base@_WV?$string_output_adapter@_W@__crt_stdio_output@@@2@@__crt_stdio_output@@AEAA_N_W@Z 000000018006d090 f i libucrtd:output.obj
 0001:0006c1f0       ?type_case_c_tchar@?$output_processor@_WV?$string_output_adapter@_W@__crt_stdio_output@@V?$standard_base@_WV?$string_output_adapter@_W@__crt_stdio_output@@@2@@__crt_stdio_output@@AEAA_N_W@Z 000000018006d1f0 f i libucrtd:output.obj
 0001:0006c350       ?type_case_d@?$output_processor@DV?$string_output_adapter@D@__crt_stdio_output@@V?$format_validation_base@DV?$string_output_adapter@D@__crt_stdio_output@@@2@@__crt_stdio_output@@AEAA_NXZ 000000018006d350 f i libucrtd:output.obj
 0001:0006c380       ?type_case_d@?$output_processor@_WV?$stream_output_adapter@_W@__crt_stdio_output@@V?$standard_base@_WV?$stream_output_adapter@_W@__crt_stdio_output@@@2@@__crt_stdio_output@@AEAA_NXZ 000000018006d380 f i libucrtd:output.obj
 0001:0006c3b0       ?type_case_d@?$output_processor@_WV?$string_output_adapter@_W@__crt_stdio_output@@V?$format_validation_base@_WV?$string_output_adapter@_W@__crt_stdio_output@@@2@@__crt_stdio_output@@AEAA_NXZ 000000018006d3b0 f i libucrtd:output.obj
 0001:0006c3e0       ?type_case_d@?$output_processor@_WV?$string_output_adapter@_W@__crt_stdio_output@@V?$standard_base@_WV?$string_output_adapter@_W@__crt_stdio_output@@@2@@__crt_stdio_output@@AEAA_NXZ 000000018006d3e0 f i libucrtd:output.obj
 0001:0006c410       ?type_case_n@?$output_processor@DV?$string_output_adapter@D@__crt_stdio_output@@V?$format_validation_base@DV?$string_output_adapter@D@__crt_stdio_output@@@2@@__crt_stdio_output@@AEAA_NXZ 000000018006d410 f i libucrtd:output.obj
 0001:0006c6a0       ?type_case_n@?$output_processor@_WV?$stream_output_adapter@_W@__crt_stdio_output@@V?$standard_base@_WV?$stream_output_adapter@_W@__crt_stdio_output@@@2@@__crt_stdio_output@@AEAA_NXZ 000000018006d6a0 f i libucrtd:output.obj
 0001:0006c930       ?type_case_n@?$output_processor@_WV?$string_output_adapter@_W@__crt_stdio_output@@V?$format_validation_base@_WV?$string_output_adapter@_W@__crt_stdio_output@@@2@@__crt_stdio_output@@AEAA_NXZ 000000018006d930 f i libucrtd:output.obj
 0001:0006cbc0       ?type_case_n@?$output_processor@_WV?$string_output_adapter@_W@__crt_stdio_output@@V?$standard_base@_WV?$string_output_adapter@_W@__crt_stdio_output@@@2@@__crt_stdio_output@@AEAA_NXZ 000000018006dbc0 f i libucrtd:output.obj
 0001:0006ce50       ?type_case_o@?$output_processor@DV?$string_output_adapter@D@__crt_stdio_output@@V?$format_validation_base@DV?$string_output_adapter@D@__crt_stdio_output@@@2@@__crt_stdio_output@@AEAA_NXZ 000000018006de50 f i libucrtd:output.obj
 0001:0006ce90       ?type_case_o@?$output_processor@_WV?$stream_output_adapter@_W@__crt_stdio_output@@V?$standard_base@_WV?$stream_output_adapter@_W@__crt_stdio_output@@@2@@__crt_stdio_output@@AEAA_NXZ 000000018006de90 f i libucrtd:output.obj
 0001:0006ced0       ?type_case_o@?$output_processor@_WV?$string_output_adapter@_W@__crt_stdio_output@@V?$format_validation_base@_WV?$string_output_adapter@_W@__crt_stdio_output@@@2@@__crt_stdio_output@@AEAA_NXZ 000000018006ded0 f i libucrtd:output.obj
 0001:0006cf10       ?type_case_o@?$output_processor@_WV?$string_output_adapter@_W@__crt_stdio_output@@V?$standard_base@_WV?$string_output_adapter@_W@__crt_stdio_output@@@2@@__crt_stdio_output@@AEAA_NXZ 000000018006df10 f i libucrtd:output.obj
 0001:0006cf50       ?type_case_p@?$output_processor@DV?$string_output_adapter@D@__crt_stdio_output@@V?$format_validation_base@DV?$string_output_adapter@D@__crt_stdio_output@@@2@@__crt_stdio_output@@AEAA_NXZ 000000018006df50 f i libucrtd:output.obj
 0001:0006cf90       ?type_case_p@?$output_processor@_WV?$stream_output_adapter@_W@__crt_stdio_output@@V?$standard_base@_WV?$stream_output_adapter@_W@__crt_stdio_output@@@2@@__crt_stdio_output@@AEAA_NXZ 000000018006df90 f i libucrtd:output.obj
 0001:0006cfd0       ?type_case_p@?$output_processor@_WV?$string_output_adapter@_W@__crt_stdio_output@@V?$format_validation_base@_WV?$string_output_adapter@_W@__crt_stdio_output@@@2@@__crt_stdio_output@@AEAA_NXZ 000000018006dfd0 f i libucrtd:output.obj
 0001:0006d010       ?type_case_p@?$output_processor@_WV?$string_output_adapter@_W@__crt_stdio_output@@V?$standard_base@_WV?$string_output_adapter@_W@__crt_stdio_output@@@2@@__crt_stdio_output@@AEAA_NXZ 000000018006e010 f i libucrtd:output.obj
 0001:0006d050       ?type_case_s@?$output_processor@DV?$string_output_adapter@D@__crt_stdio_output@@V?$format_validation_base@DV?$string_output_adapter@D@__crt_stdio_output@@@2@@__crt_stdio_output@@AEAA_NXZ 000000018006e050 f i libucrtd:output.obj
 0001:0006d170       ?type_case_s@?$output_processor@_WV?$stream_output_adapter@_W@__crt_stdio_output@@V?$standard_base@_WV?$stream_output_adapter@_W@__crt_stdio_output@@@2@@__crt_stdio_output@@AEAA_NXZ 000000018006e170 f i libucrtd:output.obj
 0001:0006d290       ?type_case_s@?$output_processor@_WV?$string_output_adapter@_W@__crt_stdio_output@@V?$format_validation_base@_WV?$string_output_adapter@_W@__crt_stdio_output@@@2@@__crt_stdio_output@@AEAA_NXZ 000000018006e290 f i libucrtd:output.obj
 0001:0006d3b0       ?type_case_s@?$output_processor@_WV?$string_output_adapter@_W@__crt_stdio_output@@V?$standard_base@_WV?$string_output_adapter@_W@__crt_stdio_output@@@2@@__crt_stdio_output@@AEAA_NXZ 000000018006e3b0 f i libucrtd:output.obj
 0001:0006d4d0       ?type_case_s_compute_narrow_string_length@?$output_processor@DV?$string_output_adapter@D@__crt_stdio_output@@V?$format_validation_base@DV?$string_output_adapter@D@__crt_stdio_output@@@2@@__crt_stdio_output@@AEAAHHD@Z 000000018006e4d0 f i libucrtd:output.obj
 0001:0006d500       ?type_case_s_compute_narrow_string_length@?$output_processor@_WV?$stream_output_adapter@_W@__crt_stdio_output@@V?$standard_base@_WV?$stream_output_adapter@_W@__crt_stdio_output@@@2@@__crt_stdio_output@@AEAAHH_W@Z 000000018006e500 f i libucrtd:output.obj
 0001:0006d5a0       ?type_case_s_compute_narrow_string_length@?$output_processor@_WV?$string_output_adapter@_W@__crt_stdio_output@@V?$format_validation_base@_WV?$string_output_adapter@_W@__crt_stdio_output@@@2@@__crt_stdio_output@@AEAAHH_W@Z 000000018006e5a0 f i libucrtd:output.obj
 0001:0006d640       ?type_case_s_compute_narrow_string_length@?$output_processor@_WV?$string_output_adapter@_W@__crt_stdio_output@@V?$standard_base@_WV?$string_output_adapter@_W@__crt_stdio_output@@@2@@__crt_stdio_output@@AEAAHH_W@Z 000000018006e640 f i libucrtd:output.obj
 0001:0006d6e0       ?type_case_u@?$output_processor@DV?$string_output_adapter@D@__crt_stdio_output@@V?$format_validation_base@DV?$string_output_adapter@D@__crt_stdio_output@@@2@@__crt_stdio_output@@AEAA_NXZ 000000018006e6e0 f i libucrtd:output.obj
 0001:0006d700       ?type_case_u@?$output_processor@_WV?$stream_output_adapter@_W@__crt_stdio_output@@V?$standard_base@_WV?$stream_output_adapter@_W@__crt_stdio_output@@@2@@__crt_stdio_output@@AEAA_NXZ 000000018006e700 f i libucrtd:output.obj
 0001:0006d720       ?type_case_u@?$output_processor@_WV?$string_output_adapter@_W@__crt_stdio_output@@V?$format_validation_base@_WV?$string_output_adapter@_W@__crt_stdio_output@@@2@@__crt_stdio_output@@AEAA_NXZ 000000018006e720 f i libucrtd:output.obj
 0001:0006d740       ?type_case_u@?$output_processor@_WV?$string_output_adapter@_W@__crt_stdio_output@@V?$standard_base@_WV?$string_output_adapter@_W@__crt_stdio_output@@@2@@__crt_stdio_output@@AEAA_NXZ 000000018006e740 f i libucrtd:output.obj
 0001:0006d760       ?type_case_x@?$output_processor@DV?$string_output_adapter@D@__crt_stdio_output@@V?$format_validation_base@DV?$string_output_adapter@D@__crt_stdio_output@@@2@@__crt_stdio_output@@AEAA_NXZ 000000018006e760 f i libucrtd:output.obj
 0001:0006d780       ?type_case_x@?$output_processor@_WV?$stream_output_adapter@_W@__crt_stdio_output@@V?$standard_base@_WV?$stream_output_adapter@_W@__crt_stdio_output@@@2@@__crt_stdio_output@@AEAA_NXZ 000000018006e780 f i libucrtd:output.obj
 0001:0006d7a0       ?type_case_x@?$output_processor@_WV?$string_output_adapter@_W@__crt_stdio_output@@V?$format_validation_base@_WV?$string_output_adapter@_W@__crt_stdio_output@@@2@@__crt_stdio_output@@AEAA_NXZ 000000018006e7a0 f i libucrtd:output.obj
 0001:0006d7c0       ?type_case_x@?$output_processor@_WV?$string_output_adapter@_W@__crt_stdio_output@@V?$standard_base@_WV?$string_output_adapter@_W@__crt_stdio_output@@@2@@__crt_stdio_output@@AEAA_NXZ 000000018006e7c0 f i libucrtd:output.obj
 0001:0006d7e0       ?unset_flag@?$output_processor@DV?$string_output_adapter@D@__crt_stdio_output@@V?$format_validation_base@DV?$string_output_adapter@D@__crt_stdio_output@@@2@@__crt_stdio_output@@AEAAXI@Z 000000018006e7e0 f i libucrtd:output.obj
 0001:0006d810       ?unset_flag@?$output_processor@_WV?$stream_output_adapter@_W@__crt_stdio_output@@V?$standard_base@_WV?$stream_output_adapter@_W@__crt_stdio_output@@@2@@__crt_stdio_output@@AEAAXI@Z 000000018006e810 f i libucrtd:output.obj
 0001:0006d840       ?unset_flag@?$output_processor@_WV?$string_output_adapter@_W@__crt_stdio_output@@V?$format_validation_base@_WV?$string_output_adapter@_W@__crt_stdio_output@@@2@@__crt_stdio_output@@AEAAXI@Z 000000018006e840 f i libucrtd:output.obj
 0001:0006d870       ?unset_flag@?$output_processor@_WV?$string_output_adapter@_W@__crt_stdio_output@@V?$standard_base@_WV?$string_output_adapter@_W@__crt_stdio_output@@@2@@__crt_stdio_output@@AEAAXI@Z 000000018006e870 f i libucrtd:output.obj
 0001:0006d8a0       ?update_field_width@?$standard_base@DV?$string_output_adapter@D@__crt_stdio_output@@@__crt_stdio_output@@IEAA_NXZ 000000018006e8a0 f i libucrtd:output.obj
 0001:0006d8d0       ?update_field_width@?$standard_base@_WV?$stream_output_adapter@_W@__crt_stdio_output@@@__crt_stdio_output@@IEAA_NXZ 000000018006e8d0 f i libucrtd:output.obj
 0001:0006d900       ?update_field_width@?$standard_base@_WV?$string_output_adapter@_W@__crt_stdio_output@@@__crt_stdio_output@@IEAA_NXZ 000000018006e900 f i libucrtd:output.obj
 0001:0006d930       ?update_precision@?$standard_base@DV?$string_output_adapter@D@__crt_stdio_output@@@__crt_stdio_output@@IEAA_NXZ 000000018006e930 f i libucrtd:output.obj
 0001:0006d960       ?update_precision@?$standard_base@_WV?$stream_output_adapter@_W@__crt_stdio_output@@@__crt_stdio_output@@IEAA_NXZ 000000018006e960 f i libucrtd:output.obj
 0001:0006d990       ?update_precision@?$standard_base@_WV?$string_output_adapter@_W@__crt_stdio_output@@@__crt_stdio_output@@IEAA_NXZ 000000018006e990 f i libucrtd:output.obj
 0001:0006d9c0       ?validate@?$stream_output_adapter@_W@__crt_stdio_output@@QEBA_NAEAV__crt_cached_ptd_host@@@Z 000000018006e9c0 f i libucrtd:output.obj
 0001:0006dac0       ?validate@?$string_output_adapter@D@__crt_stdio_output@@QEBA_NAEAV__crt_cached_ptd_host@@@Z 000000018006eac0 f i libucrtd:output.obj
 0001:0006dba0       ?validate@?$string_output_adapter@_W@__crt_stdio_output@@QEBA_NAEAV__crt_cached_ptd_host@@@Z 000000018006eba0 f i libucrtd:output.obj
 0001:0006dc80       ?validate_and_update_state_at_beginning_of_format_character@?$standard_base@DV?$string_output_adapter@D@__crt_stdio_output@@@__crt_stdio_output@@IEAA_NXZ 000000018006ec80 f i libucrtd:output.obj
 0001:0006dc90       ?validate_and_update_state_at_beginning_of_format_character@?$standard_base@_WV?$stream_output_adapter@_W@__crt_stdio_output@@@__crt_stdio_output@@IEAA_NXZ 000000018006ec90 f i libucrtd:output.obj
 0001:0006dca0       ?validate_and_update_state_at_beginning_of_format_character@?$standard_base@_WV?$string_output_adapter@_W@__crt_stdio_output@@@__crt_stdio_output@@IEAA_NXZ 000000018006eca0 f i libucrtd:output.obj
 0001:0006dcb0       ?validate_and_update_state_at_end_of_format_string@?$format_validation_base@DV?$string_output_adapter@D@__crt_stdio_output@@@__crt_stdio_output@@IEAA_NXZ 000000018006ecb0 f i libucrtd:output.obj
 0001:0006dda0       ?validate_and_update_state_at_end_of_format_string@?$format_validation_base@_WV?$string_output_adapter@_W@__crt_stdio_output@@@__crt_stdio_output@@IEAA_NXZ 000000018006eda0 f i libucrtd:output.obj
 0001:0006de90       ?validate_and_update_state_at_end_of_format_string@?$standard_base@_WV?$stream_output_adapter@_W@__crt_stdio_output@@@__crt_stdio_output@@IEBA_NXZ 000000018006ee90 f i libucrtd:output.obj
 0001:0006dea0       ?validate_and_update_state_at_end_of_format_string@?$standard_base@_WV?$string_output_adapter@_W@__crt_stdio_output@@@__crt_stdio_output@@IEBA_NXZ 000000018006eea0 f i libucrtd:output.obj
 0001:0006deb0       ?validate_state_for_type_case_a@?$standard_base@DV?$string_output_adapter@D@__crt_stdio_output@@@__crt_stdio_output@@IEBA_NXZ 000000018006eeb0 f i libucrtd:output.obj
 0001:0006dec0       ?validate_state_for_type_case_a@?$standard_base@_WV?$stream_output_adapter@_W@__crt_stdio_output@@@__crt_stdio_output@@IEBA_NXZ 000000018006eec0 f i libucrtd:output.obj
 0001:0006ded0       ?validate_state_for_type_case_a@?$standard_base@_WV?$string_output_adapter@_W@__crt_stdio_output@@@__crt_stdio_output@@IEBA_NXZ 000000018006eed0 f i libucrtd:output.obj
 0001:0006dee0       ?validate_stream_is_ansi_if_required@?$__acrt_stdio_char_traits@_W@@SA_NQEAU_iobuf@@@Z 000000018006eee0 f i libucrtd:output.obj
 0001:0006def0       ?wide_null_string@?$output_processor@DV?$string_output_adapter@D@__crt_stdio_output@@V?$format_validation_base@DV?$string_output_adapter@D@__crt_stdio_output@@@2@@__crt_stdio_output@@CAPEA_WXZ 000000018006eef0 f i libucrtd:output.obj
 0001:0006df00       ?wide_null_string@?$output_processor@_WV?$stream_output_adapter@_W@__crt_stdio_output@@V?$standard_base@_WV?$stream_output_adapter@_W@__crt_stdio_output@@@2@@__crt_stdio_output@@CAPEA_WXZ 000000018006ef00 f i libucrtd:output.obj
 0001:0006df10       ?wide_null_string@?$output_processor@_WV?$string_output_adapter@_W@__crt_stdio_output@@V?$format_validation_base@_WV?$string_output_adapter@_W@__crt_stdio_output@@@2@@__crt_stdio_output@@CAPEA_WXZ 000000018006ef10 f i libucrtd:output.obj
 0001:0006df20       ?wide_null_string@?$output_processor@_WV?$string_output_adapter@_W@__crt_stdio_output@@V?$standard_base@_WV?$string_output_adapter@_W@__crt_stdio_output@@@2@@__crt_stdio_output@@CAPEA_WXZ 000000018006ef20 f i libucrtd:output.obj
 0001:0006df30       ?write_character@?$output_adapter_common@_WV?$stream_output_adapter@_W@__crt_stdio_output@@@__crt_stdio_output@@QEBAX_WQEAHAEAV__crt_cached_ptd_host@@@Z 000000018006ef30 f i libucrtd:output.obj
 0001:0006df90       ?write_character@?$string_output_adapter@D@__crt_stdio_output@@QEBA_NDQEAHAEAV__crt_cached_ptd_host@@@Z 000000018006ef90 f i libucrtd:output.obj
 0001:0006e060       ?write_character@?$string_output_adapter@_W@__crt_stdio_output@@QEBA_N_WQEAHAEAV__crt_cached_ptd_host@@@Z 000000018006f060 f i libucrtd:output.obj
 0001:0006e130       ?write_character_without_count_update@?$stream_output_adapter@_W@__crt_stdio_output@@QEBA_N_WAEAV__crt_cached_ptd_host@@@Z 000000018006f130 f i libucrtd:output.obj
 0001:0006e1c0       ?write_stored_string_tchar@?$output_processor@DV?$string_output_adapter@D@__crt_stdio_output@@V?$format_validation_base@DV?$string_output_adapter@D@__crt_stdio_output@@@2@@__crt_stdio_output@@AEAA_ND@Z 000000018006f1c0 f i libucrtd:output.obj
 0001:0006e370       ?write_stored_string_tchar@?$output_processor@_WV?$stream_output_adapter@_W@__crt_stdio_output@@V?$standard_base@_WV?$stream_output_adapter@_W@__crt_stdio_output@@@2@@__crt_stdio_output@@AEAA_N_W@Z 000000018006f370 f i libucrtd:output.obj
 0001:0006e4d0       ?write_stored_string_tchar@?$output_processor@_WV?$string_output_adapter@_W@__crt_stdio_output@@V?$format_validation_base@_WV?$string_output_adapter@_W@__crt_stdio_output@@@2@@__crt_stdio_output@@AEAA_N_W@Z 000000018006f4d0 f i libucrtd:output.obj
 0001:0006e630       ?write_stored_string_tchar@?$output_processor@_WV?$string_output_adapter@_W@__crt_stdio_output@@V?$standard_base@_WV?$string_output_adapter@_W@__crt_stdio_output@@@2@@__crt_stdio_output@@AEAA_N_W@Z 000000018006f630 f i libucrtd:output.obj
 0001:0006e790       ?write_string@?$stream_output_adapter@_W@__crt_stdio_output@@QEBAXQEB_WHQEAHAEAV__crt_cached_ptd_host@@@Z 000000018006f790 f i libucrtd:output.obj
 0001:0006e810       ?write_string@?$string_output_adapter@D@__crt_stdio_output@@QEBAXQEBDHQEAHAEAV__crt_cached_ptd_host@@@Z 000000018006f810 f i libucrtd:output.obj
 0001:0006e980       ?write_string@?$string_output_adapter@_W@__crt_stdio_output@@QEBAXQEB_WHQEAHAEAV__crt_cached_ptd_host@@@Z 000000018006f980 f i libucrtd:output.obj
 0001:0006eaf0       ?write_string_impl@?$output_adapter_common@_WV?$stream_output_adapter@_W@__crt_stdio_output@@@__crt_stdio_output@@IEBAXQEB_WHQEAHAEAV__crt_cached_ptd_host@@@Z 000000018006faf0 f i libucrtd:output.obj
 0001:0006ec10       __acrt_isleadbyte_l_noupdate 000000018006fc10 f i libucrtd:output.obj
 0001:0006ec40       __acrt_locale_get_ctype_array_value 000000018006fc40 f i libucrtd:output.obj
 0001:0006ec80       __stdio_common_vfwprintf   000000018006fc80 f   libucrtd:output.obj
 0001:0006ed00       __stdio_common_vsnprintf_s 000000018006fd00 f   libucrtd:output.obj
 0001:0006ed90       __stdio_common_vsnwprintf_s 000000018006fd90 f   libucrtd:output.obj
 0001:0006ee20       __stdio_common_vsprintf_s  000000018006fe20 f   libucrtd:output.obj
 0001:0006eeb0       __stdio_common_vswprintf   000000018006feb0 f   libucrtd:output.obj
 0001:0006ef40       _ctype_fast_check_internal 000000018006ff40 f i libucrtd:output.obj
 0001:0006ef70       _isdigit_fast_internal     000000018006ff70 f i libucrtd:output.obj
 0001:0006efa0       _tolower_fast_internal     000000018006ffa0 f i libucrtd:output.obj
 0001:0006efd0       abort                      000000018006ffd0 f   libucrtd:abort.obj
 0001:0006fe40       _CrtDbgReport              0000000180070e40 f   libucrtd:dbgrpt.obj
 0001:0006fec0       _CrtDbgReportW             0000000180070ec0 f   libucrtd:dbgrpt.obj
 0001:0006ff40       __acrt_MessageWindowA      0000000180070f40 f   libucrtd:dbgrpt.obj
 0001:0006ff90       __acrt_MessageWindowW      0000000180070f90 f   libucrtd:dbgrpt.obj
 0001:0006ffe0       _snwprintf_s               0000000180070fe0 f i libucrtd:dbgrpt.obj
 0001:00070050       _vsnwprintf_s_l            0000000180071050 f i libucrtd:dbgrpt.obj
 0001:000700d0       wcsncmp                    00000001800710d0 f   libucrtd:wcsncmp.obj
 0001:00070160       ??$__crt_fast_decode_pointer@P6AXPEB_W00I_K@Z@@YAP6AXPEB_W00I_K@ZQ6AX000I1@Z@Z 0000000180071160 f i libucrtd:invalid_parameter.obj
 0001:000701a0       ??$initialize_from_array@$$BY00Q6AXPEB_W00I_K@Z@?$dual_state_global@P6AXPEB_W00I_K@Z@__crt_state_management@@QEAAXAEAY00Q6AXPEB_W00I_K@Z@Z 00000001800711a0 f i libucrtd:invalid_parameter.obj
 0001:000702a0       ?check_synchronize_global_state_index@__crt_cached_ptd_host@@AEAA_KXZ 00000001800712a0 f i libucrtd:invalid_parameter.obj
 0001:00070300       ?dangerous_get_state_array@?$dual_state_global@P6AXPEB_W00I_K@Z@__crt_state_management@@QEAAPEAP6AXPEB_W00I_K@ZXZ 0000000180071300 f i libucrtd:invalid_parameter.obj
 0001:00070310       ?get_current_global_state_index@__crt_cached_ptd_host@@QEAA_KXZ 0000000180071310 f i libucrtd:invalid_parameter.obj
 0001:00070330       ?get_raw_ptd_noexit@__crt_cached_ptd_host@@QEAAPEAU__acrt_ptd@@XZ 0000000180071330 f i libucrtd:invalid_parameter.obj
 0001:00070350       ?try_synchronize_per_thread_data@__crt_cached_ptd_host@@AEAAPEAU__acrt_ptd@@XZ 0000000180071350 f i libucrtd:invalid_parameter.obj
 0001:00070380       ?value@?$dual_state_global@P6AXPEB_W00I_K@Z@__crt_state_management@@QEAAAEAP6AXPEB_W00I_K@ZAEAV__crt_cached_ptd_host@@@Z 0000000180071380 f i libucrtd:invalid_parameter.obj
 0001:000703b0       __acrt_call_reportfault    00000001800713b0 f   libucrtd:invalid_parameter.obj
 0001:000704e0       __acrt_initialize_invalid_parameter_handler 00000001800714e0 f   libucrtd:invalid_parameter.obj
 0001:00070510       _invalid_parameter         0000000180071510 f   libucrtd:invalid_parameter.obj
 0001:00070580       _invalid_parameter_internal 0000000180071580 f   libucrtd:invalid_parameter.obj
 0001:000706d0       _invalid_parameter_noinfo  00000001800716d0 f   libucrtd:invalid_parameter.obj
 0001:00070700       _invoke_watson             0000000180071700 f   libucrtd:invalid_parameter.obj
 0001:00070760       _chvalidator_l             0000000180071760 f   libucrtd:isctype.obj
 0001:00070810       _isctype_l                 0000000180071810 f   libucrtd:isctype.obj
 0001:00070a40       _isleadbyte_fast_internal  0000000180071a40 f i libucrtd:isctype.obj
 0001:00070a70       ?get_doserrno@__crt_cached_ptd_host@@QEAAAEAU?$cached@K@1@XZ 0000000180071a70 f i libucrtd:errno.obj
 0001:00070a80       ?set@?$cached@K@__crt_cached_ptd_host@@QEAAKK@Z 0000000180071a80 f i libucrtd:errno.obj
 0001:00070ab0       __acrt_errno_from_os_error 0000000180071ab0 f   libucrtd:errno.obj
 0001:00070b40       __acrt_errno_map_os_error  0000000180071b40 f   libucrtd:errno.obj
 0001:00070b70       __acrt_errno_map_os_error_ptd 0000000180071b70 f   libucrtd:errno.obj
 0001:00070bd0       __doserrno                 0000000180071bd0 f   libucrtd:errno.obj
 0001:00070c00       _errno                     0000000180071c00 f   libucrtd:errno.obj
 0001:00070c30       ?value@?$dual_state_global@PEAU__crt_locale_data@@@__crt_state_management@@QEAAAEAPEAU__crt_locale_data@@XZ 0000000180071c30 f i libucrtd:locale_update.obj
 0001:00070c50       ?value@?$dual_state_global@PEAU__crt_multibyte_data@@@__crt_state_management@@QEAAAEAPEAU__crt_multibyte_data@@XZ 0000000180071c50 f i libucrtd:locale_update.obj
 0001:00070c70       ?value_explicit@?$dual_state_global@PEAU__crt_locale_data@@@__crt_state_management@@QEAAAEAPEAU__crt_locale_data@@_K@Z 0000000180071c70 f i libucrtd:locale_update.obj
 0001:00070c90       ?value_explicit@?$dual_state_global@PEAU__crt_multibyte_data@@@__crt_state_management@@QEAAAEAPEAU__crt_multibyte_data@@_K@Z 0000000180071c90 f i libucrtd:locale_update.obj
 0001:00070cb0       __acrt_should_sync_with_global_locale 0000000180071cb0 f i libucrtd:locale_update.obj
 0001:00070cf0       __acrt_update_locale_info  0000000180071cf0 f   libucrtd:locale_update.obj
 0001:00070d40       __acrt_update_locale_info_explicit 0000000180071d40 f   libucrtd:locale_update.obj
 0001:00070da0       __acrt_update_multibyte_info 0000000180071da0 f   libucrtd:locale_update.obj
 0001:00070df0       __acrt_update_multibyte_info_explicit 0000000180071df0 f   libucrtd:locale_update.obj
 0001:00070e50       ??$?RU__acrt_ptd@@@__crt_internal_free_policy@@QEBAXQEBU__acrt_ptd@@@Z 0000000180071e50 f i libucrtd:per_thread_data.obj
 0001:00071290       ??0?$__crt_unique_heap_ptr@U__acrt_ptd@@U__crt_internal_free_policy@@@@QEAA@QEAU__acrt_ptd@@@Z 0000000180072290 f i libucrtd:per_thread_data.obj
 0001:000712b0       ??1?$__crt_unique_heap_ptr@U__acrt_ptd@@U__crt_internal_free_policy@@@@QEAA@XZ 00000001800722b0 f i libucrtd:per_thread_data.obj
 0001:000712d0       ??B?$__crt_unique_heap_ptr@U__acrt_ptd@@U__crt_internal_free_policy@@@@QEBA_NXZ 00000001800722d0 f i libucrtd:per_thread_data.obj
 0001:00071620       ?dangerous_get_state_array@?$dual_state_global@PEAU__crt_locale_data@@@__crt_state_management@@QEAAPEAPEAU__crt_locale_data@@XZ 0000000180072620 f i libucrtd:per_thread_data.obj
 0001:000717f0       ?detach@?$__crt_unique_heap_ptr@U__acrt_ptd@@U__crt_internal_free_policy@@@@QEAAPEAU__acrt_ptd@@XZ 00000001800727f0 f i libucrtd:per_thread_data.obj
 0001:00071820       ?get@?$__crt_unique_heap_ptr@U__acrt_ptd@@U__crt_internal_free_policy@@@@QEBAPEAU__acrt_ptd@@XZ 0000000180072820 f i libucrtd:per_thread_data.obj
 0001:00071a00       ?is_valid@?$__crt_unique_heap_ptr@U__acrt_ptd@@U__crt_internal_free_policy@@@@QEBA_NXZ 0000000180072a00 f i libucrtd:per_thread_data.obj
 0001:00071a30       ?release@?$__crt_unique_heap_ptr@U__acrt_ptd@@U__crt_internal_free_policy@@@@QEAAXXZ 0000000180072a30 f i libucrtd:per_thread_data.obj
 0001:00071b60       __acrt_freeptd             0000000180072b60 f   libucrtd:per_thread_data.obj
 0001:00071ba0       __acrt_getptd              0000000180072ba0 f   libucrtd:per_thread_data.obj
 0001:00071bd0       __acrt_getptd_head         0000000180072bd0 f   libucrtd:per_thread_data.obj
 0001:00071c00       __acrt_getptd_noexit       0000000180072c00 f   libucrtd:per_thread_data.obj
 0001:00071c10       __acrt_getptd_noexit_explicit 0000000180072c10 f   libucrtd:per_thread_data.obj
 0001:00071c40       __acrt_initialize_ptd      0000000180072c40 f   libucrtd:per_thread_data.obj
 0001:00071c80       __acrt_uninitialize_ptd    0000000180072c80 f   libucrtd:per_thread_data.obj
 0001:00071cb0       ??$?RU__crt_multibyte_data@@@__crt_internal_free_policy@@QEBAXQEBU__crt_multibyte_data@@@Z 0000000180072cb0 f i libucrtd:wsetlocale.obj
 0001:00071e20       ??0?$__crt_unique_heap_ptr@U__crt_multibyte_data@@U__crt_internal_free_policy@@@@QEAA@QEAU__crt_multibyte_data@@@Z 0000000180072e20 f i libucrtd:wsetlocale.obj
 0001:00071e40       ??1?$__crt_unique_heap_ptr@U__crt_multibyte_data@@U__crt_internal_free_policy@@@@QEAA@XZ 0000000180072e40 f i libucrtd:wsetlocale.obj
 0001:00071e60       ??B?$__crt_unique_heap_ptr@U__crt_multibyte_data@@U__crt_internal_free_policy@@@@QEBA_NXZ 0000000180072e60 f i libucrtd:wsetlocale.obj
 0001:00071f40       ?detach@?$__crt_unique_heap_ptr@U__crt_multibyte_data@@U__crt_internal_free_policy@@@@QEAAPEAU__crt_multibyte_data@@XZ 0000000180072f40 f i libucrtd:wsetlocale.obj
 0001:00071f70       ?get@?$__crt_unique_heap_ptr@U__crt_multibyte_data@@U__crt_internal_free_policy@@@@QEBAPEAU__crt_multibyte_data@@XZ 0000000180072f70 f i libucrtd:wsetlocale.obj
 0001:00071f80       ?is_valid@?$__crt_unique_heap_ptr@U__crt_multibyte_data@@U__crt_internal_free_policy@@@@QEBA_NXZ 0000000180072f80 f i libucrtd:wsetlocale.obj
 0001:00071fb0       ?release@?$__crt_unique_heap_ptr@U__crt_multibyte_data@@U__crt_internal_free_policy@@@@QEAAXXZ 0000000180072fb0 f i libucrtd:wsetlocale.obj
 0001:00071fe0       __acrt_set_locale_changed  0000000180072fe0 f   libucrtd:wsetlocale.obj
 0001:00071ff0       __acrt_uninitialize_locale 0000000180072ff0 f   libucrtd:wsetlocale.obj
 0001:00072020       __ascii_tolower            0000000180073020 f i libucrtd:wsetlocale.obj
 0001:00072040       __ascii_towlower           0000000180073040 f i libucrtd:wsetlocale.obj
 0001:00072060       _copysign                  0000000180073060 f   libucrtd:_copysign.obj
 0001:000720f0       _decomp                    00000001800730f0 f   libucrtd:util.obj
 0001:00072240       _set_exp                   0000000180073240 f   libucrtd:util.obj
 0001:00072290       _sptype                    0000000180073290 f   libucrtd:util.obj
 0001:00072310       ?should_round_up@__crt_strtox@@YA_N_N000@Z 0000000180073310 f i libucrtd:fpexcept.obj
 0001:00072440       _errcode                   0000000180073440 f   libucrtd:fpexcept.obj
 0001:000724c0       _except2                   00000001800734c0 f   libucrtd:fpexcept.obj
 0001:00072680       _handle_exc                0000000180073680 f   libucrtd:fpexcept.obj
 0001:00072b60       _handle_qnan2              0000000180073b60 f   libucrtd:fpexcept.obj
 0001:00072b90       _raise_exc                 0000000180073b90 f   libucrtd:fpexcept.obj
 0001:00072bf0       _raise_exc_ex              0000000180073bf0 f   libucrtd:fpexcept.obj
 0001:00073270       _raise_excf                0000000180074270 f   libucrtd:fpexcept.obj
 0001:000732d0       _set_errno_from_matherr    00000001800742d0 f   libucrtd:fpexcept.obj
 0001:00073320       _umatherr                  0000000180074320 f   libucrtd:fpexcept.obj
 0001:000733f0       _clrfp                     00000001800743f0 f   libucrtd:fpctrl.obj
 0001:00073420       _ctrlfp                    0000000180074420 f   libucrtd:fpctrl.obj
 0001:000734d0       _set_statfp                00000001800744d0 f   libucrtd:fpctrl.obj
 0001:00073510       _statfp                    0000000180074510 f   libucrtd:fpctrl.obj
 0001:00073540       ??$?RPEAU__crt_stdio_stream_data@@@__crt_internal_free_policy@@QEBAXQEBQEAU__crt_stdio_stream_data@@@Z 0000000180074540 f i libucrtd:_file.obj
 0001:00073570       ??0?$__crt_unique_heap_ptr@PEAU__crt_stdio_stream_data@@U__crt_internal_free_policy@@@@QEAA@QEAPEAU__crt_stdio_stream_data@@@Z 0000000180074570 f i libucrtd:_file.obj
 0001:00073590       ??1?$__crt_unique_heap_ptr@PEAU__crt_stdio_stream_data@@U__crt_internal_free_policy@@@@QEAA@XZ 0000000180074590 f i libucrtd:_file.obj
 0001:000735b0       ?detach@?$__crt_unique_heap_ptr@PEAU__crt_stdio_stream_data@@U__crt_internal_free_policy@@@@QEAAPEAPEAU__crt_stdio_stream_data@@XZ 00000001800745b0 f i libucrtd:_file.obj
 0001:000735e0       ?release@?$__crt_unique_heap_ptr@PEAU__crt_stdio_stream_data@@U__crt_internal_free_policy@@@@QEAAXXZ 00000001800745e0 f i libucrtd:_file.obj
 0001:00073610       __acrt_initialize_stdio    0000000180074610 f   libucrtd:_file.obj
 0001:00073800       __acrt_iob_func            0000000180074800 f   libucrtd:_file.obj
 0001:00073820       __acrt_uninitialize_stdio  0000000180074820 f   libucrtd:_file.obj
 0001:000738b0       _lock_file                 00000001800748b0 f   libucrtd:_file.obj
 0001:000738f0       _unlock_file               00000001800748f0 f   libucrtd:_file.obj
 0001:00073930       ??$?RU__crt_stdio_stream_data@@@__crt_internal_free_policy@@QEBAXQEBU__crt_stdio_stream_data@@@Z 0000000180074930 f i libucrtd:stream.obj
 0001:00073960       ??0?$__crt_unique_heap_ptr@U__crt_stdio_stream_data@@U__crt_internal_free_policy@@@@QEAA@QEAU__crt_stdio_stream_data@@@Z 0000000180074960 f i libucrtd:stream.obj
 0001:00073980       ??0__crt_stdio_stream@@QEAA@QEAU__crt_stdio_stream_data@@@Z 0000000180074980 f i libucrtd:stream.obj
 0001:000739a0       ??0__crt_stdio_stream@@QEAA@XZ 00000001800749a0 f i libucrtd:stream.obj
 0001:000739c0       ??1?$__crt_unique_heap_ptr@U__crt_stdio_stream_data@@U__crt_internal_free_policy@@@@QEAA@XZ 00000001800749c0 f i libucrtd:stream.obj
 0001:000739e0       ?__acrt_stdio_allocate_stream@@YA?AV__crt_stdio_stream@@XZ 00000001800749e0 f   libucrtd:stream.obj
 0001:00073aa0       ?__acrt_stdio_free_stream@@YAXV__crt_stdio_stream@@@Z 0000000180074aa0 f   libucrtd:stream.obj
 0001:00073b40       ?deallocate@__crt_stdio_stream@@QEAAXXZ 0000000180074b40 f i libucrtd:stream.obj
 0001:00073b60       ?detach@?$__crt_unique_heap_ptr@U__crt_stdio_stream_data@@U__crt_internal_free_policy@@@@QEAAPEAU__crt_stdio_stream_data@@XZ 0000000180074b60 f i libucrtd:stream.obj
 0001:00073d40       ?lock@__crt_stdio_stream@@QEBAXXZ 0000000180074d40 f i libucrtd:stream.obj
 0001:00073d60       ?release@?$__crt_unique_heap_ptr@U__crt_stdio_stream_data@@U__crt_internal_free_policy@@@@QEAAXXZ 0000000180074d60 f i libucrtd:stream.obj
 0001:00073d90       ?try_allocate@__crt_stdio_stream@@QEAA_NXZ 0000000180074d90 f i libucrtd:stream.obj
 0001:00073e00       ??$__acrt_stdio_parse_mode@D@@YA?AU__acrt_stdio_stream_mode@@QEBD@Z 0000000180074e00 f i libucrtd:openfile.obj
 0001:00074b60       ??$tcsncmp@AEAPEBDAEAY02$$CBD_K@?$__crt_char_traits@D@@SAHAEAPEBDAEAY02$$CBD$$QEA_K@Z 0000000180075b60 f i libucrtd:openfile.obj
 0001:00074ba0       ??$tcsnicmp@AEAPEBDAEAY04$$CBD_K@?$__crt_char_traits@D@@SAHAEAPEBDAEAY04$$CBD$$QEA_K@Z 0000000180075ba0 f i libucrtd:openfile.obj
 0001:00074be0       ??$tcsnicmp@AEAPEBDAEAY06$$CBD_K@?$__crt_char_traits@D@@SAHAEAPEBDAEAY06$$CBD$$QEA_K@Z 0000000180075be0 f i libucrtd:openfile.obj
 0001:00074c20       ??$tcsnicmp@AEAPEBDAEAY07$$CBD_K@?$__crt_char_traits@D@@SAHAEAPEBDAEAY07$$CBD$$QEA_K@Z 0000000180075c20 f i libucrtd:openfile.obj
 0001:00074c60       ??$tsopen_s@PEAHAEBQEBDAEBHAEBHH@?$__crt_char_traits@D@@SAH$$QEAPEAHAEBQEBDAEBH2$$QEAH@Z 0000000180075c60 f i libucrtd:openfile.obj
 0001:00074cb0       ?__acrt_stdio_parse_mode_D@@YA_NAEAU__acrt_stdio_stream_mode@@@Z 0000000180075cb0 f i libucrtd:openfile.obj
 0001:00074ce0       ?__acrt_stdio_parse_mode_N@@YA_NAEAU__acrt_stdio_stream_mode@@@Z 0000000180075ce0 f i libucrtd:openfile.obj
 0001:00074d00       ?__acrt_stdio_parse_mode_R@@YA_NAEAU__acrt_stdio_stream_mode@@AEA_N@Z 0000000180075d00 f i libucrtd:openfile.obj
 0001:00074d40       ?__acrt_stdio_parse_mode_S@@YA_NAEAU__acrt_stdio_stream_mode@@AEA_N@Z 0000000180075d40 f i libucrtd:openfile.obj
 0001:00074d80       ?__acrt_stdio_parse_mode_T@@YA_NAEAU__acrt_stdio_stream_mode@@@Z 0000000180075d80 f i libucrtd:openfile.obj
 0001:00074db0       ?__acrt_stdio_parse_mode_b@@YA_NAEAU__acrt_stdio_stream_mode@@@Z 0000000180075db0 f i libucrtd:openfile.obj
 0001:00074de0       ?__acrt_stdio_parse_mode_c@@YA_NAEAU__acrt_stdio_stream_mode@@AEA_N@Z 0000000180075de0 f i libucrtd:openfile.obj
 0001:00074e20       ?__acrt_stdio_parse_mode_n@@YA_NAEAU__acrt_stdio_stream_mode@@AEA_N@Z 0000000180075e20 f i libucrtd:openfile.obj
 0001:00074e60       ?__acrt_stdio_parse_mode_plus@@YA_NAEAU__acrt_stdio_stream_mode@@AEA_N@Z 0000000180075e60 f i libucrtd:openfile.obj
 0001:00074ee0       ?__acrt_stdio_parse_mode_t@@YA_NAEAU__acrt_stdio_stream_mode@@@Z 0000000180075ee0 f i libucrtd:openfile.obj
 0001:00074f10       ?__acrt_stdio_parse_mode_x@@YA_NAEAU__acrt_stdio_stream_mode@@@Z 0000000180075f10 f i libucrtd:openfile.obj
 0001:00074f40       _openfile                  0000000180075f40 f   libucrtd:openfile.obj
 0001:00074f90       _fileno                    0000000180075f90 f   libucrtd:fileno.obj
 0001:00075380       _close_internal            0000000180076380 f   libucrtd:close.obj
 0001:00075640       _close_nolock              0000000180076640 f   libucrtd:close.obj
 0001:00075680       _close_nolock_internal     0000000180076680 f   libucrtd:close.obj
 0001:000756f0       __acrt_stdio_free_buffer_nolock 00000001800766f0 f   libucrtd:_freebuf.obj
 0001:00076000       __acrt_stdio_flush_nolock  0000000180077000 f   libucrtd:fflush.obj
 0001:00076120       _fflush_nolock             0000000180077120 f   libucrtd:fflush.obj
 0001:00076160       _flushall                  0000000180077160 f   libucrtd:fflush.obj
 0001:00076170       fflush                     0000000180077170 f   libucrtd:fflush.obj
 0001:000766a0       __acrt_stdio_refill_and_read_narrow_nolock 00000001800776a0 f   libucrtd:_filbuf.obj
 0001:00076a70       __acrt_initialize_lowio    0000000180077a70 f   libucrtd:ioinit.obj
 0001:00076ac0       __acrt_uninitialize_lowio  0000000180077ac0 f   libucrtd:ioinit.obj
 0001:00077a00       _read                      0000000180078a00 f   libucrtd:read.obj
 0001:00077d50       _read_nolock               0000000180078d50 f   libucrtd:read.obj
 0001:00079050       _lseeki64                  000000018007a050 f   libucrtd:lseek.obj
 0001:000790b0       _lseeki64_internal         000000018007a0b0 f   libucrtd:lseek.obj
 0001:000790f0       _lseeki64_nolock           000000018007a0f0 f   libucrtd:lseek.obj
 0001:00079150       _lseeki64_nolock_internal  000000018007a150 f   libucrtd:lseek.obj
 0001:00079190       __acrt_stdio_allocate_buffer_nolock 000000018007a190 f   libucrtd:_getbuf.obj
 0001:000794e0       __acrt_report_runtime_error 000000018007a4e0 f   libucrtd:report_runtime_error.obj
 0001:00079760       _query_app_type            000000018007a760 f   libucrtd:report_runtime_error.obj
 0001:0007a360       _itoa_s                    000000018007b360 f   libucrtd:xtoa.obj
 0001:0007a3c0       _itow_s                    000000018007b3c0 f   libucrtd:xtoa.obj
 0001:0007a420       _set_error_mode            000000018007b420 f   libucrtd:set_error_mode.obj
 0001:0007abb0       wcscat_s                   000000018007bbb0 f   libucrtd:wcscat_s.obj
 0001:0007b0e0       wcscpy_s                   000000018007c0e0 f   libucrtd:wcscpy_s.obj
 0001:0007b8b0       wcsncat_s                  000000018007c8b0 f   libucrtd:wcsncat_s.obj
 0001:0007cc50       ??1?$__crt_simd_cleanup_guard@$00@@QEAA@XZ 000000018007dc50 f i libucrtd:strnlen.obj
 0001:0007cc60       ??1?$__crt_simd_cleanup_guard@$0A@@@QEAA@XZ 000000018007dc60 f i libucrtd:strnlen.obj
 0001:0007cc70       ?compare_equals@?$__crt_simd_traits@$00E@@SA?AT__m256i@@T2@0@Z 000000018007dc70 f i libucrtd:strnlen.obj
 0001:0007ccb0       ?compare_equals@?$__crt_simd_traits@$00G@@SA?AT__m256i@@T2@0@Z 000000018007dcb0 f i libucrtd:strnlen.obj
 0001:0007ccf0       ?compare_equals@?$__crt_simd_traits@$0A@E@@SA?AT__m128i@@T2@0@Z 000000018007dcf0 f i libucrtd:strnlen.obj
 0001:0007cd20       ?compare_equals@?$__crt_simd_traits@$0A@G@@SA?AT__m128i@@T2@0@Z 000000018007dd20 f i libucrtd:strnlen.obj
 0001:0007cd50       ?compute_byte_mask@?$__crt_simd_pack_traits@$00@@SAHT__m256i@@@Z 000000018007dd50 f i libucrtd:strnlen.obj
 0001:0007cd70       ?compute_byte_mask@?$__crt_simd_pack_traits@$0A@@@SAHT__m128i@@@Z 000000018007dd70 f i libucrtd:strnlen.obj
 0001:0007cd90       ?get_zero_pack@?$__crt_simd_pack_traits@$00@@SA?AT__m256i@@XZ 000000018007dd90 f i libucrtd:strnlen.obj
 0001:0007cdc0       ?get_zero_pack@?$__crt_simd_pack_traits@$0A@@@SA?AT__m128i@@XZ 000000018007ddc0 f i libucrtd:strnlen.obj
 0001:0007cde0       strnlen                    000000018007dde0 f   libucrtd:strnlen.obj
 0001:0007ce10       wcslen                     000000018007de10 f   libucrtd:strnlen.obj
 0001:0007ce30       wcsnlen                    000000018007de30 f   libucrtd:strnlen.obj
 0001:0007d4d0       strcat_s                   000000018007e4d0 f   libucrtd:strcat_s.obj
 0001:0007d500       ??$__acrt_convert_wcs_mbs_cp@_WDV<lambda_f788ae46380686e8b737efdd8c720d07>@@U__crt_win32_buffer_no_resizing@@@@YAHQEB_WAEAV?$__crt_win32_buffer@DU__crt_win32_buffer_no_resizing@@@@AEBV<lambda_f788ae46380686e8b737efdd8c720d07>@@I@Z 000000018007e500 f i libucrtd:getmodulefilenamea.obj
 0001:0007d6b0       ??$__acrt_wcs_to_mbs_cp@U__crt_win32_buffer_no_resizing@@@@YAHQEB_WAEAV?$__crt_win32_buffer@DU__crt_win32_buffer_no_resizing@@@@I@Z 000000018007e6b0 f i libucrtd:getmodulefilenamea.obj
 0001:0007d700       ??0?$__crt_win32_buffer@DU__crt_win32_buffer_no_resizing@@@@QEAA@QEAD_K@Z 000000018007e700 f i libucrtd:getmodulefilenamea.obj
 0001:0007d770       ??1?$__crt_win32_buffer@DU__crt_win32_buffer_no_resizing@@@@QEAA@XZ 000000018007e770 f i libucrtd:getmodulefilenamea.obj
 0001:0007d7a0       ??R<lambda_f788ae46380686e8b737efdd8c720d07>@@QEBAHIQEB_WQEAD_K@Z 000000018007e7a0 f i libucrtd:getmodulefilenamea.obj
 0001:0007d800       ?__acrt_get_utf8_acp_compatibility_codepage@@YAIXZ 000000018007e800 f i libucrtd:getmodulefilenamea.obj
 0001:0007d8a0       ?_deallocate@?$__crt_win32_buffer@DU__crt_win32_buffer_no_resizing@@@@AEAAXXZ 000000018007e8a0 f i libucrtd:getmodulefilenamea.obj
 0001:0007d8f0       ?allocate@?$__crt_win32_buffer@DU__crt_win32_buffer_no_resizing@@@@QEAAH_K@Z 000000018007e8f0 f i libucrtd:getmodulefilenamea.obj
 0001:0007d970       ?allocate@__crt_win32_buffer_no_resizing@@SAHQEAPEAX_KAEBV__crt_win32_buffer_empty_debug_info@@@Z 000000018007e970 f i libucrtd:getmodulefilenamea.obj
 0001:0007d9a0       ?capacity@?$__crt_win32_buffer@DU__crt_win32_buffer_no_resizing@@@@QEBA_KXZ 000000018007e9a0 f i libucrtd:getmodulefilenamea.obj
 0001:0007d9b0       ?data@?$__crt_win32_buffer@DU__crt_win32_buffer_no_resizing@@@@QEAAPEADXZ 000000018007e9b0 f i libucrtd:getmodulefilenamea.obj
 0001:0007d9c0       ?deallocate@__crt_win32_buffer_no_resizing@@SAXQEAXAEBV__crt_win32_buffer_empty_debug_info@@@Z 000000018007e9c0 f i libucrtd:getmodulefilenamea.obj
 0001:0007d9d0       ?debug_info@?$__crt_win32_buffer@DU__crt_win32_buffer_no_resizing@@@@QEBAAEBV__crt_win32_buffer_empty_debug_info@@XZ 000000018007e9d0 f i libucrtd:getmodulefilenamea.obj
 0001:0007d9e0       ?set_to_nullptr@?$__crt_win32_buffer@DU__crt_win32_buffer_no_resizing@@@@QEAAXXZ 000000018007e9e0 f i libucrtd:getmodulefilenamea.obj
 0001:0007da20       ?size@?$__crt_win32_buffer@DU__crt_win32_buffer_no_resizing@@@@QEAAX_K@Z 000000018007ea20 f i libucrtd:getmodulefilenamea.obj
 0001:0007da40       ?size@?$__crt_win32_buffer@DU__crt_win32_buffer_no_resizing@@@@QEBA_KXZ 000000018007ea40 f i libucrtd:getmodulefilenamea.obj
 0001:0007da50       __acrt_GetModuleFileNameA  000000018007ea50 f   libucrtd:getmodulefilenamea.obj
 0001:0007dc70       ??$message_box@$$TAEBQEB_WAEBQEB_WK@?$__crt_char_traits@_W@@SAH$$QEA$$TAEBQEB_W1$$QEAK@Z 000000018007ec70 f i libucrtd:crtmbox.obj
 0001:0007dcc0       ??$message_box@PEAUHWND__@@AEBQEB_WAEBQEB_WAEBI@?$__crt_char_traits@_W@@SAH$$QEAPEAUHWND__@@AEBQEB_W1AEBI@Z 000000018007ecc0 f i libucrtd:crtmbox.obj
 0001:0007dd10       ??$output_debug_string@AEBQEB_W@?$__crt_char_traits@_W@@SAXAEBQEB_W@Z 000000018007ed10 f i libucrtd:crtmbox.obj
 0001:0007dd30       __acrt_show_wide_message_box 000000018007ed30 f   libucrtd:crtmbox.obj
 0001:0007e490       setvbuf                    000000018007f490 f   libucrtd:setvbuf.obj
 0001:0007e500       ??$?B$$A6AXH@Z@__crt_fast_encoded_nullptr_t@@QEBAP6AXH@ZXZ 000000018007f500 f i libucrtd:signal.obj
 0001:0007e5d0       ??$__crt_fast_decode_pointer@P6AXH@Z@@YAP6AXH@ZQ6AXH@Z@Z 000000018007f5d0 f i libucrtd:signal.obj
 0001:0007e610       ??$__crt_fast_encode_pointer@P6AXH@Z@@YAP6AXH@ZQ6AXH@Z@Z 000000018007f610 f i libucrtd:signal.obj
 0001:0007e790       ?initialize@?$dual_state_global@P6AXH@Z@__crt_state_management@@QEAAXQ6AXH@Z@Z 000000018007f790 f i libucrtd:signal.obj
 0001:0007e840       ?value@?$dual_state_global@P6AXH@Z@__crt_state_management@@QEAAAEAP6AXH@ZXZ 000000018007f840 f i libucrtd:signal.obj
 0001:0007e860       __acrt_get_sigabrt_handler 000000018007f860 f   libucrtd:signal.obj
 0001:0007e890       __acrt_initialize_signal_handlers 000000018007f890 f   libucrtd:signal.obj
 0001:0007e8f0       __fpecode                  000000018007f8f0 f   libucrtd:signal.obj
 0001:0007e910       raise                      000000018007f910 f   libucrtd:signal.obj
 0001:0007efd0       _handle_error              000000018007ffd0 f   libucrtd:libm_error.obj
 0001:0007f160       _handle_errorf             0000000180080160 f   libucrtd:libm_error.obj
 0001:0007f2f0       _handle_nan                00000001800802f0 f   libucrtd:libm_error.obj
 0001:0007f340       _handle_nanf               0000000180080340 f   libucrtd:libm_error.obj
 0001:0007f380       __acrt_initialize_fma3     0000000180080380 f   libucrtd:fma3_available.obj
 0001:0007f430       __remainder_piby2_forAsm   0000000180080430 f   libucrtd:remainder_piby2_forasm.obj
 0001:0007f640       __remainder_piby2_cw_forAsm 0000000180080640 f   libucrtd:remainder_piby2_forasm.obj
 0001:0007f780       __remainder_piby2_fma3     0000000180080780 f   libucrtd:remainder_piby2_forfma3.obj
 0001:0007f970       __remainder_piby2_fma3_bdl 0000000180080970 f   libucrtd:remainder_piby2_forfma3.obj
 0001:0007f9f0       _cos_special               00000001800809f0 f   libucrtd:sincos_special.obj
 0001:0007fa20       _cosf_special              0000000180080a20 f   libucrtd:sincos_special.obj
 0001:0007fc60       _tanf_special              0000000180080c60 f   libucrtd:sincos_special.obj
 0001:0007fc90       __remainder_piby2d2f_forAsm 0000000180080c90 f   libucrtd:remainder_piby2f_forasm.obj
 0001:0007fde0       _pow_special               0000000180080de0 f   libucrtd:pow_special.obj
 0001:00080060       _powf_special              0000000180081060 f   libucrtd:pow_special.obj
 0001:000803a0       __acrt_initialize_locks    00000001800813a0 f   libucrtd:locks.obj
 0001:00080410       __acrt_lock                0000000180081410 f   libucrtd:locks.obj
 0001:00080440       __acrt_uninitialize_locks  0000000180081440 f   libucrtd:locks.obj
 0001:000804a0       __acrt_unlock              00000001800814a0 f   libucrtd:locks.obj
 0001:000807b0       __acrt_get_developer_information_policy 00000001800817b0 f   libucrtd:win_policies.obj
 0001:000807d0       __acrt_get_process_end_policy 00000001800817d0 f   libucrtd:win_policies.obj
 0001:000807e0       __acrt_get_windowing_model_policy 00000001800817e0 f   libucrtd:win_policies.obj
 0001:00080830       ??$__acrt_convert_wcs_mbs_cp@D_WV<lambda_7c9dea7b4ca7285d2cdb541a38da6275>@@U__crt_win32_buffer_internal_dynamic_resizing@@@@YAHQEBDAEAV?$__crt_win32_buffer@_WU__crt_win32_buffer_internal_dynamic_resizing@@@@AEBV<lambda_7c9dea7b4ca7285d2cdb541a38da6275>@@I@Z 0000000180081830 f i libucrtd:argv_wildcards.obj
 0001:000809e0       ??$__acrt_convert_wcs_mbs_cp@_WDV<lambda_d8593a27d1aa8c02be35c86a17d324c4>@@U__crt_win32_buffer_internal_dynamic_resizing@@@@YAHQEB_WAEAV?$__crt_win32_buffer@DU__crt_win32_buffer_internal_dynamic_resizing@@@@AEBV<lambda_d8593a27d1aa8c02be35c86a17d324c4>@@I@Z 00000001800819e0 f i libucrtd:argv_wildcards.obj
 0001:00080b90       ??$__acrt_mbs_to_wcs_cp@U__crt_win32_buffer_internal_dynamic_resizing@@@@YAHQEBDAEAV?$__crt_win32_buffer@_WU__crt_win32_buffer_internal_dynamic_resizing@@@@I@Z 0000000180081b90 f i libucrtd:argv_wildcards.obj
 0001:00080be0       ??$__acrt_wcs_to_mbs_cp@U__crt_win32_buffer_internal_dynamic_resizing@@@@YAHQEB_WAEAV?$__crt_win32_buffer@DU__crt_win32_buffer_internal_dynamic_resizing@@@@I@Z 0000000180081be0 f i libucrtd:argv_wildcards.obj
 0001:00081620       ??$tcsncpy_s@AEAPEAD_KAEAPEADAEB_K@?$__crt_char_traits@D@@SAHAEAPEAD$$QEA_K0AEB_K@Z 0000000180082620 f i libucrtd:argv_wildcards.obj
 0001:00081670       ??$tcsncpy_s@PEADAEB_KAEBQEBDAEB_K@?$__crt_char_traits@D@@SAH$$QEAPEADAEB_KAEBQEBD1@Z 0000000180082670 f i libucrtd:argv_wildcards.obj
 0001:000816c0       ??$tcsncpy_s@PEAD_KAEBQEBDAEB_K@?$__crt_char_traits@D@@SAH$$QEAPEAD$$QEA_KAEBQEBDAEB_K@Z 00000001800826c0 f i libucrtd:argv_wildcards.obj
 0001:00081710       ??$tcspbrk@AEAPEADAEAY02$$CBD@?$__crt_char_traits@D@@SAPEADAEAPEADAEAY02$$CBD@Z 0000000180082710 f i libucrtd:argv_wildcards.obj
 0001:00081740       ??0?$__crt_unique_handle_t@U__crt_findfile_traits@@@@QEAA@QEAX@Z 0000000180082740 f i libucrtd:argv_wildcards.obj
 0001:00081760       ??0?$__crt_win32_buffer@DU__crt_win32_buffer_internal_dynamic_resizing@@@@QEAA@XZ 0000000180082760 f i libucrtd:argv_wildcards.obj
 0001:000817c0       ??0?$__crt_win32_buffer@_WU__crt_win32_buffer_internal_dynamic_resizing@@@@QEAA@XZ 00000001800827c0 f i libucrtd:argv_wildcards.obj
 0001:00081860       ??1?$__crt_unique_handle_t@U__crt_findfile_traits@@@@QEAA@XZ 0000000180082860 f i libucrtd:argv_wildcards.obj
 0001:00081880       ??1?$__crt_win32_buffer@DU__crt_win32_buffer_internal_dynamic_resizing@@@@QEAA@XZ 0000000180082880 f i libucrtd:argv_wildcards.obj
 0001:000818b0       ??1?$__crt_win32_buffer@_WU__crt_win32_buffer_internal_dynamic_resizing@@@@QEAA@XZ 00000001800828b0 f i libucrtd:argv_wildcards.obj
 0001:00081960       ??R<lambda_7c9dea7b4ca7285d2cdb541a38da6275>@@QEBAHIQEBDQEA_W_K@Z 0000000180082960 f i libucrtd:argv_wildcards.obj
 0001:00081a40       ??R<lambda_d8593a27d1aa8c02be35c86a17d324c4>@@QEBAHIQEB_WQEAD_K@Z 0000000180082a40 f i libucrtd:argv_wildcards.obj
 0001:00081aa0       ?_deallocate@?$__crt_win32_buffer@DU__crt_win32_buffer_internal_dynamic_resizing@@@@AEAAXXZ 0000000180082aa0 f i libucrtd:argv_wildcards.obj
 0001:00081af0       ?_deallocate@?$__crt_win32_buffer@_WU__crt_win32_buffer_internal_dynamic_resizing@@@@AEAAXXZ 0000000180082af0 f i libucrtd:argv_wildcards.obj
 0001:00081b40       ?allocate@?$__crt_win32_buffer@DU__crt_win32_buffer_internal_dynamic_resizing@@@@QEAAH_K@Z 0000000180082b40 f i libucrtd:argv_wildcards.obj
 0001:00081bc0       ?allocate@?$__crt_win32_buffer@_WU__crt_win32_buffer_internal_dynamic_resizing@@@@QEAAH_K@Z 0000000180082bc0 f i libucrtd:argv_wildcards.obj
 0001:00081c50       ?allocate@__crt_win32_buffer_internal_dynamic_resizing@@SAHQEAPEAX_KAEBV__crt_win32_buffer_empty_debug_info@@@Z 0000000180082c50 f i libucrtd:argv_wildcards.obj
 0001:00081d30       ?capacity@?$__crt_win32_buffer@DU__crt_win32_buffer_internal_dynamic_resizing@@@@QEBA_KXZ 0000000180082d30 f i libucrtd:argv_wildcards.obj
 0001:00081d40       ?capacity@?$__crt_win32_buffer@_WU__crt_win32_buffer_internal_dynamic_resizing@@@@QEBA_KXZ 0000000180082d40 f i libucrtd:argv_wildcards.obj
 0001:00081d50       ?close@?$__crt_unique_handle_t@U__crt_findfile_traits@@@@QEAAXXZ 0000000180082d50 f i libucrtd:argv_wildcards.obj
 0001:00081d90       ?close@__crt_findfile_traits@@SA_NPEAX@Z 0000000180082d90 f i libucrtd:argv_wildcards.obj
 0001:00081dd0       ?data@?$__crt_win32_buffer@DU__crt_win32_buffer_internal_dynamic_resizing@@@@QEAAPEADXZ 0000000180082dd0 f i libucrtd:argv_wildcards.obj
 0001:00081de0       ?data@?$__crt_win32_buffer@_WU__crt_win32_buffer_internal_dynamic_resizing@@@@QEAAPEA_WXZ 0000000180082de0 f i libucrtd:argv_wildcards.obj
 0001:00081df0       ?deallocate@__crt_win32_buffer_internal_dynamic_resizing@@SAXQEAXAEBV__crt_win32_buffer_empty_debug_info@@@Z 0000000180082df0 f i libucrtd:argv_wildcards.obj
 0001:00081e20       ?debug_info@?$__crt_win32_buffer@DU__crt_win32_buffer_internal_dynamic_resizing@@@@QEBAAEBV__crt_win32_buffer_empty_debug_info@@XZ 0000000180082e20 f i libucrtd:argv_wildcards.obj
 0001:00081e30       ?debug_info@?$__crt_win32_buffer@_WU__crt_win32_buffer_internal_dynamic_resizing@@@@QEBAAEBV__crt_win32_buffer_empty_debug_info@@XZ 0000000180082e30 f i libucrtd:argv_wildcards.obj
 0001:00082030       ?get@?$__crt_unique_handle_t@U__crt_findfile_traits@@@@QEBAPEAXXZ 0000000180083030 f i libucrtd:argv_wildcards.obj
 0001:00082090       ?get_invalid_value@__crt_findfile_traits@@SAPEAXXZ 0000000180083090 f i libucrtd:argv_wildcards.obj
 0001:00082120       ?set_to_nullptr@?$__crt_win32_buffer@DU__crt_win32_buffer_internal_dynamic_resizing@@@@QEAAXXZ 0000000180083120 f i libucrtd:argv_wildcards.obj
 0001:00082160       ?set_to_nullptr@?$__crt_win32_buffer@_WU__crt_win32_buffer_internal_dynamic_resizing@@@@QEAAXXZ 0000000180083160 f i libucrtd:argv_wildcards.obj
 0001:000821a0       ?size@?$__crt_win32_buffer@DU__crt_win32_buffer_internal_dynamic_resizing@@@@QEAAX_K@Z 00000001800831a0 f i libucrtd:argv_wildcards.obj
 0001:000821c0       ?size@?$__crt_win32_buffer@_WU__crt_win32_buffer_internal_dynamic_resizing@@@@QEAAX_K@Z 00000001800831c0 f i libucrtd:argv_wildcards.obj
 0001:00082200       ?strpbrk@@YAPEADQEADQEBD@Z 0000000180083200 f i libucrtd:argv_wildcards.obj
 0001:00082230       __acrt_expand_narrow_argv_wildcards 0000000180083230 f   libucrtd:argv_wildcards.obj
 0001:00082300       ??$initialize_from_array@$$BY10BAA@E@?$dual_state_global@PEAE@__crt_state_management@@QEAAXAEAY10BAA@E@Z 0000000180083300 f i libucrtd:mbctype.obj
 0001:00082370       ??$initialize_from_array@$$BY10BAB@E@?$dual_state_global@PEAE@__crt_state_management@@QEAAXAEAY10BAB@E@Z 0000000180083370 f i libucrtd:mbctype.obj
 0001:00082660       ?dangerous_get_state_array@?$dual_state_global@PEAE@__crt_state_management@@QEAAPEAPEAEXZ 0000000180083660 f i libucrtd:mbctype.obj
 0001:00082670       ?dangerous_get_state_array@?$dual_state_global@PEAU__crt_multibyte_data@@@__crt_state_management@@QEAAPEAPEAU__crt_multibyte_data@@XZ 0000000180083670 f i libucrtd:mbctype.obj
 0001:00082760       ?initialize@?$dual_state_global@PEAU__crt_multibyte_data@@@__crt_state_management@@QEAAXQEAU__crt_multibyte_data@@@Z 0000000180083760 f i libucrtd:mbctype.obj
 0001:00083030       ?value@?$dual_state_global@PEAE@__crt_state_management@@QEAAAEAPEAEXZ 0000000180084030 f i libucrtd:mbctype.obj
 0001:00083050       __acrt_initialize_multibyte 0000000180084050 f   libucrtd:mbctype.obj
 0001:00083120       __acrt_update_thread_multibyte_data 0000000180084120 f   libucrtd:mbctype.obj
 0001:00083160       _setmbcp_nolock            0000000180084160 f   libucrtd:mbctype.obj
 0001:00083850       _ismbblead                 0000000180084850 f   libucrtd:ismbbyte.obj
 0001:00083880       __acrt_initialize_command_line 0000000180084880 f   libucrtd:argv_data.obj
 0001:000838b0       __acrt_uninitialize_command_line 00000001800848b0 f   libucrtd:argv_data.obj
 0001:00083960       __acrt_MultiByteToWideChar 0000000180084960 f   libucrtd:multibytetowidechar.obj
 0001:00083a60       __acrt_WideCharToMultiByte 0000000180084a60 f   libucrtd:widechartomultibyte.obj
 0001:00083ce0       __dcrt_get_narrow_environment_from_os 0000000180084ce0 f   libucrtd:get_environment_from_os.obj
 0001:000845d0       GetCurrentThreadEffectiveToken 00000001800855d0 f i libucrtd:winapi_thunks.obj
 0001:000845e0       __acrt_AppPolicyGetProcessTerminationMethodInternal 00000001800855e0 f   libucrtd:winapi_thunks.obj
 0001:00084640       __acrt_AppPolicyGetShowDeveloperDiagnosticInternal 0000000180085640 f   libucrtd:winapi_thunks.obj
 0001:000846a0       __acrt_AppPolicyGetWindowingModelInternal 00000001800856a0 f   libucrtd:winapi_thunks.obj
 0001:00084700       __acrt_AreFileApisANSI     0000000180085700 f   libucrtd:winapi_thunks.obj
 0001:00084750       __acrt_FlsAlloc            0000000180085750 f   libucrtd:winapi_thunks.obj
 0001:00084770       __acrt_FlsFree             0000000180085770 f   libucrtd:winapi_thunks.obj
 0001:00084790       __acrt_FlsGetValue         0000000180085790 f   libucrtd:winapi_thunks.obj
 0001:000847b0       __acrt_FlsSetValue         00000001800857b0 f   libucrtd:winapi_thunks.obj
 0001:000847e0       __acrt_InitializeCriticalSectionEx 00000001800857e0 f   libucrtd:winapi_thunks.obj
 0001:00084860       __acrt_LCMapStringEx       0000000180085860 f   libucrtd:winapi_thunks.obj
 0001:00084970       __acrt_LocaleNameToLCID    0000000180085970 f   libucrtd:winapi_thunks.obj
 0001:000849e0       __acrt_MessageBoxW         00000001800859e0 f   libucrtd:winapi_thunks.obj
 0001:00084a60       __acrt_can_show_message_box 0000000180085a60 f   libucrtd:winapi_thunks.obj
 0001:00084aa0       __acrt_get_parent_window   0000000180085aa0 f   libucrtd:winapi_thunks.obj
 0001:00084b40       __acrt_initialize_winapi_thunks 0000000180085b40 f   libucrtd:winapi_thunks.obj
 0001:00084bc0       __acrt_is_interactive      0000000180085bc0 f   libucrtd:winapi_thunks.obj
 0001:00084cd0       __acrt_uninitialize_winapi_thunks 0000000180085cd0 f   libucrtd:winapi_thunks.obj
 0001:00084d70       __acrt_initialize_heap     0000000180085d70 f   libucrtd:heap_handle.obj
 0001:00084da0       __acrt_uninitialize_heap   0000000180085da0 f   libucrtd:heap_handle.obj
 0001:00084dc0       __acrt_execute_initializers 0000000180085dc0 f   libucrtd:shared_initialization.obj
 0001:00084ec0       __acrt_execute_uninitializers 0000000180085ec0 f   libucrtd:shared_initialization.obj
 0001:00084f50       ??$__crt_fast_decode_pointer@P6AH_K@Z@@YAP6AH_K@ZQ6AH0@Z@Z 0000000180085f50 f i libucrtd:new_handler.obj
 0001:00084f90       ?initialize@?$dual_state_global@P6AH_K@Z@__crt_state_management@@QEAAXQ6AH_K@Z@Z 0000000180085f90 f i libucrtd:new_handler.obj
 0001:00084fe0       ?value@?$dual_state_global@P6AH_K@Z@__crt_state_management@@QEAAAEAP6AH_K@ZXZ 0000000180085fe0 f i libucrtd:new_handler.obj
 0001:00085000       __acrt_initialize_new_handler 0000000180086000 f   libucrtd:new_handler.obj
 0001:00085020       _callnewh                  0000000180086020 f   libucrtd:new_handler.obj
 0001:00085080       _query_new_handler         0000000180086080 f   libucrtd:new_handler.obj
 0001:000850c0       ??$__crt_fast_decode_pointer@P6AHPEAU_exception@@@Z@@YAP6AHPEAU_exception@@@ZQ6AH0@Z@Z 00000001800860c0 f i libucrtd:matherr.obj
 0001:00085100       ?initialize@?$dual_state_global@P6AHPEAU_exception@@@Z@__crt_state_management@@QEAAXQ6AHPEAU_exception@@@Z@Z 0000000180086100 f i libucrtd:matherr.obj
 0001:00085150       ?value@?$dual_state_global@P6AHPEAU_exception@@@Z@__crt_state_management@@QEAAAEAP6AHPEAU_exception@@@ZXZ 0000000180086150 f i libucrtd:matherr.obj
 0001:00085170       __acrt_has_user_matherr    0000000180086170 f   libucrtd:matherr.obj
 0001:000851b0       __acrt_initialize_user_matherr 00000001800861b0 f   libucrtd:matherr.obj
 0001:000851d0       __acrt_invoke_user_matherr 00000001800861d0 f   libucrtd:matherr.obj
 0001:00085240       ?has_temporary_buffer@__crt_stdio_stream@@QEBA_NXZ 0000000180086240 f i libucrtd:_sftbuf.obj
 0001:00085260       __acrt_should_use_temporary_buffer 0000000180086260 f   libucrtd:_sftbuf.obj
 0001:000852b0       __acrt_stdio_begin_temporary_buffering_nolock 00000001800862b0 f   libucrtd:_sftbuf.obj
 0001:00085510       __acrt_stdio_end_temporary_buffering_nolock 0000000180086510 f   libucrtd:_sftbuf.obj
 0001:000855c0       _free_base                 00000001800865c0 f   libucrtd:free_base.obj
 0001:00085620       _realloc_base              0000000180086620 f   libucrtd:realloc_base.obj
 0001:00085740       _expand_base               0000000180086740 f   libucrtd:expand.obj
 0001:000858d0       ?value@?$dual_state_global@J@__crt_state_management@@QEAAAEAJXZ 00000001800868d0 f i libucrtd:new_mode.obj
 0001:000858f0       _query_new_mode            00000001800868f0 f   libucrtd:new_mode.obj
 0001:00085910       _CrtDefaultAllocHook       0000000180086910 f   libucrtd:debug_heap_hook.obj
 0001:00085930       _CrtGetDebugFillThreshold  0000000180086930 f   libucrtd:debug_fill_threshold.obj
 0001:00085940       ?__acrt_fp_classify@@YA?AW4__acrt_fp_class@@AEBN@Z 0000000180086940 f i libucrtd:cvt.obj
 0001:00085a40       ?__acrt_fp_is_negative@@YA_NAEBN@Z 0000000180086a40 f i libucrtd:cvt.obj
 0001:00087360       ?strrchr@@YAPEADQEADH@Z    0000000180088360 f i libucrtd:cvt.obj
 0001:00087380       __acrt_fp_format           0000000180088380 f   libucrtd:cvt.obj
 0001:00087a40       ?value_or@?$cached@H@__crt_cached_ptd_host@@QEBAHH@Z 0000000180088a40 f i libucrtd:wctomb.obj
 0001:00087a70       _wctomb_internal           0000000180088a70 f   libucrtd:wctomb.obj
 0001:00087fd0       _mbtowc_internal           0000000180088fd0 f   libucrtd:mbtowc.obj
 0001:00088360       _get_printf_count_output   0000000180089360 f   libucrtd:printf_count_output.obj
 0001:00088440       _fputwc_nolock_internal    0000000180089440 f   libucrtd:fputwc.obj
 0001:00088700       _fputc_nolock_internal     0000000180089700 f   libucrtd:fputc.obj
 0001:000887c0       _VCrtDbgReportA            00000001800897c0 f   libucrtd:dbgrptt.obj
 0001:00089200       _VCrtDbgReportW            000000018008a200 f   libucrtd:dbgrptt.obj
 0001:00089e10       _snprintf_s                000000018008ae10 f i libucrtd:dbgrptt.obj
 0001:00089e80       _vsnprintf_s               000000018008ae80 f i libucrtd:dbgrptt.obj
 0001:00089ed0       _vsnprintf_s_l             000000018008aed0 f i libucrtd:dbgrptt.obj
 0001:00089f50       ??0?$__crt_scoped_stack_ptr@_W@@QEAA@U?$__crt_scoped_stack_ptr_tag@_W@@@Z 000000018008af50 f i libucrtd:getstringtypea.obj
 0001:00089f70       ??0?$__crt_scoped_stack_ptr_tag@_W@@QEAA@QEA_W@Z 000000018008af70 f i libucrtd:getstringtypea.obj
 0001:00089f90       ??1?$__crt_scoped_stack_ptr@_W@@QEAA@XZ 000000018008af90 f i libucrtd:getstringtypea.obj
 0001:00089fb0       ?get@?$__crt_scoped_stack_ptr@_W@@QEBAPEA_WXZ 000000018008afb0 f i libucrtd:getstringtypea.obj
 0001:00089fc0       _MallocaComputeSize        000000018008afc0 f i libucrtd:getstringtypea.obj
 0001:0008a000       _MarkAllocaS               000000018008b000 f i libucrtd:getstringtypea.obj
 0001:0008a030       __acrt_GetStringTypeA      000000018008b030 f   libucrtd:getstringtypea.obj
 0001:0008a290       _freea_crt                 000000018008b290 f i libucrtd:getstringtypea.obj
 0001:0008a330       __acrt_add_locale_ref      000000018008b330 f   libucrtd:locale_refcounting.obj
 0001:0008a490       __acrt_free_locale         000000018008b490 f   libucrtd:locale_refcounting.obj
 0001:0008a810       __acrt_locale_add_lc_time_reference 000000018008b810 f   libucrtd:locale_refcounting.obj
 0001:0008a850       __acrt_locale_free_lc_time_if_unreferenced 000000018008b850 f   libucrtd:locale_refcounting.obj
 0001:0008a8b0       __acrt_locale_release_lc_time_reference 000000018008b8b0 f   libucrtd:locale_refcounting.obj
 0001:0008a8f0       __acrt_release_locale_ref  000000018008b8f0 f   libucrtd:locale_refcounting.obj
 0001:0008aa60       __acrt_update_thread_locale_data 000000018008ba60 f   libucrtd:locale_refcounting.obj
 0001:0008ab00       _updatetlocinfoEx_nolock   000000018008bb00 f   libucrtd:locale_refcounting.obj
 0001:0008aba0       __acrt_locale_free_monetary 000000018008bba0 f   libucrtd:initmon.obj
 0001:0008adb0       __acrt_locale_free_numeric 000000018008bdb0 f   libucrtd:initnum.obj
 0001:0008afb0       __acrt_locale_free_time    000000018008bfb0 f   libucrtd:inittime.obj
 0001:0008b7d0       wcsncpy_s                  000000018008c7d0 f   libucrtd:wcsncpy_s.obj
 0001:0008b810       fegetround                 000000018008c810 f   libucrtd:fegetround.obj
 0001:0008b840       _get_fpsr                  000000018008c840 f   libucrtd:fpsr.obj
 0001:0008b850       _set_fpsr                  000000018008c850 f   libucrtd:fpsr.obj
 0001:0008b85a       _fclrf                     000000018008c85a f   libucrtd:fpsr.obj
 0001:0008b86e       _frnd                      000000018008c86e f   libucrtd:fpsr.obj
 0001:0008b890       _fcloseall                 000000018008c890 f   libucrtd:closeall.obj
 0001:0008b9a0       __ascii_wcsnicmp           000000018008c9a0 f   libucrtd:wcsnicmp.obj
 0001:0008ba70       __ascii_strnicmp           000000018008ca70 f   libucrtd:strnicmp.obj
 0001:0008bb40       _strnicmp                  000000018008cb40 f   libucrtd:strnicmp.obj
 0001:0008bd90       _strnicmp_l                000000018008cd90 f   libucrtd:strnicmp.obj
 0001:0008c450       ??$tsopen_nolock@PEAHAEBQEAHAEBQEBDAEBHAEBHAEBHAEBH@?$__crt_char_traits@D@@SAH$$QEAPEAHAEBQEAHAEBQEBDAEBH333@Z 000000018008d450 f i libucrtd:open.obj
 0001:0008d1a0       _sopen_dispatch            000000018008e1a0 f   libucrtd:open.obj
 0001:0008d1f0       _sopen_nolock              000000018008e1f0 f   libucrtd:open.obj
 0001:0008d2c0       _sopen_s                   000000018008e2c0 f   libucrtd:open.obj
 0001:0008d310       _wsopen_nolock             000000018008e310 f   libucrtd:open.obj
 0001:0008da80       ??$?RU__crt_lowio_handle_data@@@__crt_internal_free_policy@@QEBAXQEBU__crt_lowio_handle_data@@@Z 000000018008ea80 f i libucrtd:osfinfo.obj
 0001:0008dab0       ??0?$__crt_unique_heap_ptr@U__crt_lowio_handle_data@@U__crt_internal_free_policy@@@@QEAA@QEAU__crt_lowio_handle_data@@@Z 000000018008eab0 f i libucrtd:osfinfo.obj
 0001:0008dad0       ??1?$__crt_unique_heap_ptr@U__crt_lowio_handle_data@@U__crt_internal_free_policy@@@@QEAA@XZ 000000018008ead0 f i libucrtd:osfinfo.obj
 0001:0008daf0       ??B?$__crt_unique_heap_ptr@U__crt_lowio_handle_data@@U__crt_internal_free_policy@@@@QEBA_NXZ 000000018008eaf0 f i libucrtd:osfinfo.obj
 0001:0008db10       ?detach@?$__crt_unique_heap_ptr@U__crt_lowio_handle_data@@U__crt_internal_free_policy@@@@QEAAPEAU__crt_lowio_handle_data@@XZ 000000018008eb10 f i libucrtd:osfinfo.obj
 0001:0008db40       ?get@?$__crt_unique_heap_ptr@U__crt_lowio_handle_data@@U__crt_internal_free_policy@@@@QEBAPEAU__crt_lowio_handle_data@@XZ 000000018008eb40 f i libucrtd:osfinfo.obj
 0001:0008db50       ?is_valid@?$__crt_unique_heap_ptr@U__crt_lowio_handle_data@@U__crt_internal_free_policy@@@@QEBA_NXZ 000000018008eb50 f i libucrtd:osfinfo.obj
 0001:0008db80       ?release@?$__crt_unique_heap_ptr@U__crt_lowio_handle_data@@U__crt_internal_free_policy@@@@QEAAXXZ 000000018008eb80 f i libucrtd:osfinfo.obj
 0001:0008dbb0       __acrt_lowio_create_handle_array 000000018008ebb0 f   libucrtd:osfinfo.obj
 0001:0008dd70       __acrt_lowio_destroy_handle_array 000000018008ed70 f   libucrtd:osfinfo.obj
 0001:0008ddf0       __acrt_lowio_ensure_fh_exists 000000018008edf0 f   libucrtd:osfinfo.obj
 0001:0008df50       __acrt_lowio_lock_fh       000000018008ef50 f   libucrtd:osfinfo.obj
 0001:0008df90       __acrt_lowio_set_os_handle 000000018008ef90 f   libucrtd:osfinfo.obj
 0001:0008e0a0       __acrt_lowio_unlock_fh     000000018008f0a0 f   libucrtd:osfinfo.obj
 0001:0008e0e0       _alloc_osfhnd              000000018008f0e0 f   libucrtd:osfinfo.obj
 0001:0008e2f0       _free_osfhnd               000000018008f2f0 f   libucrtd:osfinfo.obj
 0001:0008e420       _get_osfhandle             000000018008f420 f   libucrtd:osfinfo.obj
 0001:0008e840       _commit                    000000018008f840 f   libucrtd:commit.obj
 0001:00090230       _write                     0000000180091230 f   libucrtd:write.obj
 0001:00090290       _write_internal            0000000180091290 f   libucrtd:write.obj
 0001:00090630       _write_nolock              0000000180091630 f   libucrtd:write.obj
 0001:00090d10       _isatty                    0000000180091d10 f   libucrtd:isatty.obj
 0001:00090e20       __acrt_OutputDebugStringA  0000000180091e20 f   libucrtd:outputdebugstringa.obj
 0001:00091070       qsort                      0000000180092070 f   libucrtd:qsort.obj
 0001:00091ee0       strncpy_s                  0000000180092ee0 f   libucrtd:strncpy_s.obj
 0001:00092050       strpbrk                    0000000180093050 f   libucrtd:strpbrk.obj
 0001:00092940       _mbsdec                    0000000180093940 f   libucrtd:mbsdec.obj
 0001:00092970       _mbsdec_l                  0000000180093970 f   libucrtd:mbsdec.obj
 0001:00092c00       ??B?$__crt_scoped_stack_ptr@_W@@QEBA_NXZ 0000000180093c00 f i libucrtd:lcmapstringa.obj
 0001:00093230       __acrt_LCMapStringA        0000000180094230 f   libucrtd:lcmapstringa.obj
 0001:000933c0       __acrt_DownlevelLocaleNameToLCID 00000001800943c0 f   libucrtd:lcidtoname_downlevel.obj
 0001:00093420       _malloc_base               0000000180094420 f   libucrtd:malloc_base.obj
 0001:00093670       __acrt_fp_strflt_to_string 0000000180094670 f   libucrtd:_fptostr.obj
 0001:00094230       ??0big_integer@__crt_strtox@@QEAA@AEBU01@@Z 0000000180095230 f i libucrtd:cfout.obj
 0001:00094290       ??0big_integer@__crt_strtox@@QEAA@XZ 0000000180095290 f i libucrtd:cfout.obj
 0001:00094350       ??4big_integer@__crt_strtox@@QEAAAEAU01@AEBU01@@Z 0000000180095350 f i libucrtd:cfout.obj
 0001:000943b0       ??8__crt_strtox@@YA_NAEBUbig_integer@0@0@Z 00000001800953b0 f i libucrtd:cfout.obj
 0001:00094420       ??9__crt_strtox@@YA_NAEBUbig_integer@0@0@Z 0000000180095420 f i libucrtd:cfout.obj
 0001:00094460       ?add_carry@__crt_strtox@@YAIAEAIII@Z 0000000180095460 f i libucrtd:cfout.obj
 0001:000944b0       ?add_multiply_carry@__crt_strtox@@YAIAEAIIII@Z 00000001800954b0 f i libucrtd:cfout.obj
 0001:00094510       ?bit_scan_reverse@__crt_strtox@@YAII@Z 0000000180095510 f i libucrtd:cfout.obj
 0001:00094550       ?count_sequential_high_zeroes@__crt_strtox@@YAII@Z 0000000180095550 f i libucrtd:cfout.obj
 0001:00094590       ?divide@__crt_strtox@@YA_KAEAUbig_integer@1@AEBU21@@Z 0000000180095590 f i libucrtd:cfout.obj
 0001:00094f60       ?is_zero@__crt_strtox@@YA_NAEBUbig_integer@1@@Z 0000000180095f60 f i libucrtd:cfout.obj
 0001:00094f90       ?make_big_integer@__crt_strtox@@YA?AUbig_integer@1@_K@Z 0000000180095f90 f i libucrtd:cfout.obj
 0001:00095060       ?make_big_integer_power_of_two@__crt_strtox@@YA?AUbig_integer@1@I@Z 0000000180096060 f i libucrtd:cfout.obj
 0001:00095130       ?multiply@__crt_strtox@@YA_NAEAUbig_integer@1@AEBU21@@Z 0000000180096130 f i libucrtd:cfout.obj
 0001:000954b0       ?multiply@__crt_strtox@@YA_NAEAUbig_integer@1@I@Z 00000001800964b0 f i libucrtd:cfout.obj
 0001:000955d0       ?multiply_64_32@__crt_strtox@@YA_K_KI@Z 00000001800965d0 f i libucrtd:cfout.obj
 0001:000955f0       ?multiply_by_power_of_ten@__crt_strtox@@YA_NAEAUbig_integer@1@I@Z 00000001800965f0 f i libucrtd:cfout.obj
 0001:000957a0       ?multiply_core@__crt_strtox@@YAIQEAIII@Z 00000001800967a0 f i libucrtd:cfout.obj
 0001:00095820       ?shift_left@__crt_strtox@@YA_NAEAUbig_integer@1@I@Z 0000000180096820 f i libucrtd:cfout.obj
 0001:00095b00       __acrt_fltout              0000000180096b00 f   libucrtd:cfout.obj
 0001:00096000       ?__c32rtomb_utf8@__crt_mbstring@@YA_KPEAD_UPEAU_Mbstatet@@AEAV__crt_cached_ptd_host@@@Z 0000000180097000 f   libucrtd:c32rtomb.obj
 0001:00096310       ?__mbrtowc_utf8@__crt_mbstring@@YA_KPEA_WPEBD_KPEAU_Mbstatet@@AEAV__crt_cached_ptd_host@@@Z 0000000180097310 f   libucrtd:mbrtowc.obj
 0001:00096390       ?__mbsrtowcs_utf8@__crt_mbstring@@YA_KPEA_WPEAPEBD_KPEAU_Mbstatet@@AEAV__crt_cached_ptd_host@@@Z 0000000180097390 f   libucrtd:mbrtowc.obj
 0001:00097200       __acrt_stdio_flush_and_write_narrow_nolock 0000000180098200 f   libucrtd:_flsbuf.obj
 0001:00097240       __acrt_stdio_flush_and_write_wide_nolock 0000000180098240 f   libucrtd:_flsbuf.obj
 0001:00097d90       mbstowcs_s                 0000000180098d90 f   libucrtd:mbstowcs.obj
 0001:00098c00       wcstombs_s                 0000000180099c00 f   libucrtd:wcstombs.obj
 0001:00098c80       ??$__acrt_fenv_shift_bits@W4__acrt_fenv_abstract_control@@@@YA?AW4__acrt_fenv_abstract_control@@W40@0I@Z 0000000180099c80 f i libucrtd:_fenvutils.obj
 0001:00098cb0       ??$__acrt_fenv_shift_bits@W4__acrt_fenv_abstract_status@@@@YA?AW4__acrt_fenv_abstract_status@@W40@0I@Z 0000000180099cb0 f i libucrtd:_fenvutils.obj
 0001:00098ce0       ??$__acrt_fenv_translate_bit@W4__acrt_fenv_abstract_control@@W4__acrt_fenv_machine_sse_control@@@@YA?AW4__acrt_fenv_abstract_control@@W4__acrt_fenv_machine_sse_control@@0W40@1@Z 0000000180099ce0 f i libucrtd:_fenvutils.obj
 0001:00098d40       ??$__acrt_fenv_translate_bit@W4__acrt_fenv_abstract_status@@W4__acrt_fenv_machine_sse_status@@@@YA?AW4__acrt_fenv_abstract_status@@W4__acrt_fenv_machine_sse_status@@0W40@1@Z 0000000180099d40 f i libucrtd:_fenvutils.obj
 0001:00098d90       ??$__acrt_fenv_translate_bit@W4__acrt_fenv_machine_sse_control@@W4__acrt_fenv_abstract_control@@@@YA?AW4__acrt_fenv_machine_sse_control@@W4__acrt_fenv_abstract_control@@0W40@1@Z 0000000180099d90 f i libucrtd:_fenvutils.obj
 0001:00098df0       ??$__acrt_fenv_translate_bit@W4__acrt_fenv_machine_sse_status@@W4__acrt_fenv_abstract_status@@@@YA?AW4__acrt_fenv_machine_sse_status@@W4__acrt_fenv_abstract_status@@0W40@1@Z 0000000180099df0 f i libucrtd:_fenvutils.obj
 0001:00098e40       ??$__acrt_fenv_unshift_bits@W4__acrt_fenv_abstract_control@@@@YA?AW4__acrt_fenv_abstract_control@@W40@0I@Z 0000000180099e40 f i libucrtd:_fenvutils.obj
 0001:00098e70       ??$__acrt_fenv_unshift_bits@W4__acrt_fenv_abstract_status@@@@YA?AW4__acrt_fenv_abstract_status@@W40@0I@Z 0000000180099e70 f i libucrtd:_fenvutils.obj
 0001:00099360       ??I@YA?AW4__acrt_fenv_abstract_control@@W40@0@Z 000000018009a360 f i libucrtd:_fenvutils.obj
 0001:00099380       ??I@YA?AW4__acrt_fenv_abstract_status@@W40@0@Z 000000018009a380 f i libucrtd:_fenvutils.obj
 0001:000993a0       ??I@YA?AW4__acrt_fenv_machine_sse_control@@W40@0@Z 000000018009a3a0 f i libucrtd:_fenvutils.obj
 0001:000993c0       ??I@YA?AW4__acrt_fenv_machine_sse_status@@W40@0@Z 000000018009a3c0 f i libucrtd:_fenvutils.obj
 0001:000993e0       ??U@YA?AW4__acrt_fenv_abstract_control@@W40@0@Z 000000018009a3e0 f i libucrtd:_fenvutils.obj
 0001:00099400       ??U@YA?AW4__acrt_fenv_abstract_status@@W40@0@Z 000000018009a400 f i libucrtd:_fenvutils.obj
 0001:00099420       ??U@YA?AW4__acrt_fenv_machine_sse_control@@W40@0@Z 000000018009a420 f i libucrtd:_fenvutils.obj
 0001:00099440       ??_5@YAAEAW4__acrt_fenv_abstract_control@@AEAW40@W40@@Z 000000018009a440 f i libucrtd:_fenvutils.obj
 0001:00099470       ??_5@YAAEAW4__acrt_fenv_abstract_status@@AEAW40@W40@@Z 000000018009a470 f i libucrtd:_fenvutils.obj
 0001:000994a0       ??_5@YAAEAW4__acrt_fenv_machine_sse_control@@AEAW40@W40@@Z 000000018009a4a0 f i libucrtd:_fenvutils.obj
 0001:000994d0       ??_5@YAAEAW4__acrt_fenv_machine_sse_status@@AEAW40@W40@@Z 000000018009a4d0 f i libucrtd:_fenvutils.obj
 0001:00099500       ?__acrt_fenv_shift_abstract_sse_control@@YA?AW4__acrt_fenv_abstract_control@@W41@@Z 000000018009a500 f i libucrtd:_fenvutils.obj
 0001:00099550       ?__acrt_fenv_shift_abstract_sse_status@@YA?AW4__acrt_fenv_abstract_status@@W41@@Z 000000018009a550 f i libucrtd:_fenvutils.obj
 0001:00099580       ?__acrt_fenv_unshift_abstract_sse_control@@YA?AW4__acrt_fenv_abstract_control@@W41@@Z 000000018009a580 f i libucrtd:_fenvutils.obj
 0001:000995d0       ?__acrt_fenv_unshift_abstract_sse_status@@YA?AW4__acrt_fenv_abstract_status@@W41@@Z 000000018009a5d0 f i libucrtd:_fenvutils.obj
 0001:000998c0       __acrt_fenv_get_common_round_control 000000018009a8c0 f   libucrtd:_fenvutils.obj
 0001:000998e0       __acrt_fenv_get_control    000000018009a8e0 f   libucrtd:_fenvutils.obj
 0001:00099910       __acrt_fenv_get_status     000000018009a910 f   libucrtd:_fenvutils.obj
 0001:00099940       __acrt_fenv_set_control    000000018009a940 f   libucrtd:_fenvutils.obj
 0001:00099960       __acrt_fenv_set_status     000000018009a960 f   libucrtd:_fenvutils.obj
 0001:00099980       ??$__crt_interlocked_read@H@@YAHPEDH@Z 000000018009a980 f i libucrtd:setmode.obj
 0001:000999a0       ?value@?$dual_state_global@H@__crt_state_management@@QEAAAEAHXZ 000000018009a9a0 f i libucrtd:setmode.obj
 0001:000999c0       _get_fmode                 000000018009a9c0 f   libucrtd:setmode.obj
 0001:00099a90       _setmode_nolock            000000018009aa90 f   libucrtd:setmode.obj
 0001:00099d50       ??0__crt_seek_guard@@QEAA@H_J@Z 000000018009ad50 f i libucrtd:chsize.obj
 0001:00099dd0       ??1__crt_seek_guard@@QEAA@XZ 000000018009add0 f i libucrtd:chsize.obj
 0001:00099e00       ?check@?$cached@K@__crt_cached_ptd_host@@QEBA_NK@Z 000000018009ae00 f i libucrtd:chsize.obj
 0001:00099e40       _chsize_nolock             000000018009ae40 f   libucrtd:chsize.obj
 0001:00099e90       _chsize_nolock_internal    000000018009ae90 f   libucrtd:chsize.obj
 0001:0009a200       _putwch_nolock             000000018009b200 f   libucrtd:putwch.obj
 0001:0009a250       __strncnt                  000000018009b250 f   libucrtd:strncnt.obj
 0001:0009a2b0       log10                      000000018009b2b0 f   libucrtd:log10.obj
 0001:0009a860       ceil                       000000018009b860 f   libucrtd:ceil.obj
 0001:0009aa30       _controlfp_s               000000018009ba30 f   libucrtd:contrlfp.obj
 0001:0009ab60       fegetenv                   000000018009bb60 f   libucrtd:fegetenv.obj
 0001:0009ab90       fesetenv                   000000018009bb90 f   libucrtd:fesetenv.obj
 0001:0009ac10       feholdexcept               000000018009bc10 f   libucrtd:feholdexcept.obj
 0001:0009ac80       ?reset_and_return@__crt_mbstring@@YA_K_KPEAU_Mbstatet@@@Z 000000018009bc80 f   libucrtd:common_utf8.obj
 0001:0009acc0       ?return_illegal_sequence@__crt_mbstring@@YA_KPEAU_Mbstatet@@AEAV__crt_cached_ptd_host@@@Z 000000018009bcc0 f   libucrtd:common_utf8.obj
 0001:0009ad20       ?__mbrtoc32_utf8@__crt_mbstring@@YA_KPEA_UPEBD_KPEAU_Mbstatet@@AEAV__crt_cached_ptd_host@@@Z 000000018009bd20 f   libucrtd:mbrtoc32.obj
 0001:0009b120       ?__wcsrtombs_utf8@__crt_mbstring@@YA_KPEADPEAPEB_W_KPEAU_Mbstatet@@AEAV__crt_cached_ptd_host@@@Z 000000018009c120 f   libucrtd:wcrtomb.obj
 0001:0009b3a0       ?dangerous_get_state_array@?$dual_state_global@H@__crt_state_management@@QEAAPEAHXZ 000000018009c3a0 f i libucrtd:txtmode.obj
 0001:0009b3b0       __acrt_initialize_fmode    000000018009c3b0 f   libucrtd:txtmode.obj
 0001:0009b550       __dcrt_lowio_ensure_console_output_initialized 000000018009c550 f   libucrtd:initcon.obj
 0001:0009b580       __dcrt_terminate_console_output 000000018009c580 f   libucrtd:initcon.obj
 0001:0009b5b0       __dcrt_write_console       000000018009c5b0 f   libucrtd:initcon.obj
 0001:0009b5f0       _log10_special             000000018009c5f0 f   libucrtd:log_special.obj
 0001:0009b950       _clearfp                   000000018009c950 f   libucrtd:ieee.obj
 0001:0009b970       _control87                 000000018009c970 f   libucrtd:ieee.obj
 0001:0009bc00       ?__c16rtomb_utf8@__crt_mbstring@@YA_KPEAD_SPEAU_Mbstatet@@AEAV__crt_cached_ptd_host@@@Z 000000018009cc00 f   libucrtd:c16rtomb.obj
 0001:0009be40       _FindPESection             000000018009ce40 f   LIBCMTD:pesect.obj
 0001:0009bef0       _IsNonwritableInCurrentImage 000000018009cef0 f   LIBCMTD:pesect.obj
 0001:0009bf80       _ValidateImageBase         000000018009cf80 f   LIBCMTD:pesect.obj
 0001:0009c000       ??1type_info@@UEAA@XZ      000000018009d000 f   LIBCMTD:std_type_info_static.obj
 0001:0009c020       ??_Etype_info@@UEAAPEAXI@Z 000000018009d020 f i LIBCMTD:std_type_info_static.obj
 0001:0009c020       ??_Gtype_info@@UEAAPEAXI@Z 000000018009d020 f i LIBCMTD:std_type_info_static.obj
 0001:0009c060       ??3@YAXPEAX_K@Z            000000018009d060 f   LIBCMTD:delete_scalar_size.obj
 0001:0009c080       __GSHandlerCheck_SEH       000000018009d080 f   LIBCMTD:gshandlerseh.obj
 0001:0009c140       __GSHandlerCheck_EH        000000018009d140 f   LIBCMTD:gshandlereh.obj
 0001:0009c1f0       ??3@YAXPEAX@Z              000000018009d1f0 f   LIBCMTD:delete_scalar.obj
 0001:0009c210       __C_specific_handler_noexcept 000000018009d210 f   libvcruntimed:chandler_noexcept.obj
 0001:0009c280       _local_unwind              000000018009d280 f   libvcruntimed:jmpuwind.obj
 0001:0009c2c0       memcmp                     000000018009d2c0 f   libvcruntimed:memcmp.obj
 0001:0009c390       strrchr                    000000018009d390 f   libvcruntimed:strrchr.obj
 0001:0009c7c0       _guard_dispatch_icall_nop  000000018009d7c0 f   LIBCMTD:guard_dispatch.obj
 0001:0009c7e0       _guard_xfg_dispatch_icall_nop 000000018009d7e0 f   libucrtd:guard_xfg_dispatch.obj
 0002:00000000       __imp_CompareFileTime      000000018009f000     kernel32:KERNEL32.dll
 0002:00000008       __imp_CreateFileA          000000018009f008     kernel32:KERNEL32.dll
 0002:00000010       __imp_GetFileSizeEx        000000018009f010     kernel32:KERNEL32.dll
 0002:00000018       __imp_GetFileTime          000000018009f018     kernel32:KERNEL32.dll
 0002:00000020       __imp_ReadFile             000000018009f020     kernel32:KERNEL32.dll
 0002:00000028       __imp_OutputDebugStringA   000000018009f028     kernel32:KERNEL32.dll
 0002:00000030       __imp_CloseHandle          000000018009f030     kernel32:KERNEL32.dll
 0002:00000038       __imp_GetLastError         000000018009f038     kernel32:KERNEL32.dll
 0002:00000040       __imp_VirtualAlloc         000000018009f040     kernel32:KERNEL32.dll
 0002:00000048       __imp_VirtualFree          000000018009f048     kernel32:KERNEL32.dll
 0002:00000050       __imp_GetProcAddress       000000018009f050     kernel32:KERNEL32.dll
 0002:00000058       __imp_RtlCaptureContext    000000018009f058     kernel32:KERNEL32.dll
 0002:00000060       __imp_RtlLookupFunctionEntry 000000018009f060     kernel32:KERNEL32.dll
 0002:00000068       __imp_RtlVirtualUnwind     000000018009f068     kernel32:KERNEL32.dll
 0002:00000070       __imp_UnhandledExceptionFilter 000000018009f070     kernel32:KERNEL32.dll
 0002:00000078       __imp_SetUnhandledExceptionFilter 000000018009f078     kernel32:KERNEL32.dll
 0002:00000080       __imp_GetCurrentProcess    000000018009f080     kernel32:KERNEL32.dll
 0002:00000088       __imp_TerminateProcess     000000018009f088     kernel32:KERNEL32.dll
 0002:00000090       __imp_IsProcessorFeaturePresent 000000018009f090     kernel32:KERNEL32.dll
 0002:00000098       __imp_QueryPerformanceCounter 000000018009f098     kernel32:KERNEL32.dll
 0002:000000a0       __imp_GetCurrentProcessId  000000018009f0a0     kernel32:KERNEL32.dll
 0002:000000a8       __imp_GetCurrentThreadId   000000018009f0a8     kernel32:KERNEL32.dll
 0002:000000b0       __imp_GetSystemTimeAsFileTime 000000018009f0b0     kernel32:KERNEL32.dll
 0002:000000b8       __imp_InitializeSListHead  000000018009f0b8     kernel32:KERNEL32.dll
 0002:000000c0       __imp_IsDebuggerPresent    000000018009f0c0     kernel32:KERNEL32.dll
 0002:000000c8       __imp_GetStartupInfoW      000000018009f0c8     kernel32:KERNEL32.dll
 0002:000000d0       __imp_GetModuleHandleW     000000018009f0d0     kernel32:KERNEL32.dll
 0002:000000d8       __imp_SetEndOfFile         000000018009f0d8     kernel32:KERNEL32.dll
 0002:000000e0       __imp_RtlUnwindEx          000000018009f0e0     kernel32:KERNEL32.dll
 0002:000000e8       __imp_InterlockedFlushSList 000000018009f0e8     kernel32:KERNEL32.dll
 0002:000000f0       __imp_SetLastError         000000018009f0f0     kernel32:KERNEL32.dll
 0002:000000f8       __imp_EnterCriticalSection 000000018009f0f8     kernel32:KERNEL32.dll
 0002:00000100       __imp_LeaveCriticalSection 000000018009f100     kernel32:KERNEL32.dll
 0002:00000108       __imp_DeleteCriticalSection 000000018009f108     kernel32:KERNEL32.dll
 0002:00000110       __imp_InitializeCriticalSectionAndSpinCount 000000018009f110     kernel32:KERNEL32.dll
 0002:00000118       __imp_TlsAlloc             000000018009f118     kernel32:KERNEL32.dll
 0002:00000120       __imp_TlsGetValue          000000018009f120     kernel32:KERNEL32.dll
 0002:00000128       __imp_TlsSetValue          000000018009f128     kernel32:KERNEL32.dll
 0002:00000130       __imp_TlsFree              000000018009f130     kernel32:KERNEL32.dll
 0002:00000138       __imp_FreeLibrary          000000018009f138     kernel32:KERNEL32.dll
 0002:00000140       __imp_LoadLibraryExW       000000018009f140     kernel32:KERNEL32.dll
 0002:00000148       __imp_EncodePointer        000000018009f148     kernel32:KERNEL32.dll
 0002:00000150       __imp_RaiseException       000000018009f150     kernel32:KERNEL32.dll
 0002:00000158       __imp_RtlPcToFileHeader    000000018009f158     kernel32:KERNEL32.dll
 0002:00000160       __imp_GetStdHandle         000000018009f160     kernel32:KERNEL32.dll
 0002:00000168       __imp_GetFileType          000000018009f168     kernel32:KERNEL32.dll
 0002:00000170       __imp_GetModuleFileNameW   000000018009f170     kernel32:KERNEL32.dll
 0002:00000178       __imp_GetModuleHandleExW   000000018009f178     kernel32:KERNEL32.dll
 0002:00000180       __imp_WriteConsoleW        000000018009f180     kernel32:KERNEL32.dll
 0002:00000188       __imp_ExitProcess          000000018009f188     kernel32:KERNEL32.dll
 0002:00000190       __imp_HeapAlloc            000000018009f190     kernel32:KERNEL32.dll
 0002:00000198       __imp_HeapSize             000000018009f198     kernel32:KERNEL32.dll
 0002:000001a0       __imp_HeapValidate         000000018009f1a0     kernel32:KERNEL32.dll
 0002:000001a8       __imp_GetSystemInfo        000000018009f1a8     kernel32:KERNEL32.dll
 0002:000001b0       __imp_GetConsoleMode       000000018009f1b0     kernel32:KERNEL32.dll
 0002:000001b8       __imp_ReadConsoleW         000000018009f1b8     kernel32:KERNEL32.dll
 0002:000001c0       __imp_SetFilePointerEx     000000018009f1c0     kernel32:KERNEL32.dll
 0002:000001c8       __imp_WriteFile            000000018009f1c8     kernel32:KERNEL32.dll
 0002:000001d0       __imp_OutputDebugStringW   000000018009f1d0     kernel32:KERNEL32.dll
 0002:000001d8       __imp_FindClose            000000018009f1d8     kernel32:KERNEL32.dll
 0002:000001e0       __imp_FindFirstFileExW     000000018009f1e0     kernel32:KERNEL32.dll
 0002:000001e8       __imp_FindNextFileW        000000018009f1e8     kernel32:KERNEL32.dll
 0002:000001f0       __imp_IsValidCodePage      000000018009f1f0     kernel32:KERNEL32.dll
 0002:000001f8       __imp_GetACP               000000018009f1f8     kernel32:KERNEL32.dll
 0002:00000200       __imp_GetOEMCP             000000018009f200     kernel32:KERNEL32.dll
 0002:00000208       __imp_GetCPInfo            000000018009f208     kernel32:KERNEL32.dll
 0002:00000210       __imp_GetCommandLineA      000000018009f210     kernel32:KERNEL32.dll
 0002:00000218       __imp_GetCommandLineW      000000018009f218     kernel32:KERNEL32.dll
 0002:00000220       __imp_MultiByteToWideChar  000000018009f220     kernel32:KERNEL32.dll
 0002:00000228       __imp_WideCharToMultiByte  000000018009f228     kernel32:KERNEL32.dll
 0002:00000230       __imp_GetEnvironmentStringsW 000000018009f230     kernel32:KERNEL32.dll
 0002:00000238       __imp_FreeEnvironmentStringsW 000000018009f238     kernel32:KERNEL32.dll
 0002:00000240       __imp_FlsAlloc             000000018009f240     kernel32:KERNEL32.dll
 0002:00000248       __imp_FlsGetValue          000000018009f248     kernel32:KERNEL32.dll
 0002:00000250       __imp_FlsSetValue          000000018009f250     kernel32:KERNEL32.dll
 0002:00000258       __imp_FlsFree              000000018009f258     kernel32:KERNEL32.dll
 0002:00000260       __imp_LCMapStringW         000000018009f260     kernel32:KERNEL32.dll
 0002:00000268       __imp_GetProcessHeap       000000018009f268     kernel32:KERNEL32.dll
 0002:00000270       __imp_HeapFree             000000018009f270     kernel32:KERNEL32.dll
 0002:00000278       __imp_HeapReAlloc          000000018009f278     kernel32:KERNEL32.dll
 0002:00000280       __imp_HeapQueryInformation 000000018009f280     kernel32:KERNEL32.dll
 0002:00000288       __imp_GetStringTypeW       000000018009f288     kernel32:KERNEL32.dll
 0002:00000290       __imp_CreateFileW          000000018009f290     kernel32:KERNEL32.dll
 0002:00000298       __imp_SetStdHandle         000000018009f298     kernel32:KERNEL32.dll
 0002:000002a0       __imp_FlushFileBuffers     000000018009f2a0     kernel32:KERNEL32.dll
 0002:000002a8       __imp_GetConsoleOutputCP   000000018009f2a8     kernel32:KERNEL32.dll
 0002:000002b0       __imp_RtlUnwind            000000018009f2b0     kernel32:KERNEL32.dll
 0002:000002b8       \177KERNEL32_NULL_THUNK_DATA 000000018009f2b8     kernel32:KERNEL32.dll
 0002:000002c0       __guard_check_icall_fptr   000000018009f2c0     LIBCMTD:guard_support.obj
 0002:000002c8       __guard_dispatch_icall_fptr 000000018009f2c8     LIBCMTD:guard_support.obj
 0002:000002d0       __guard_xfg_dispatch_icall_fptr 000000018009f2d0     libucrtd:guard_support.obj
 0002:000002d8       __xc_a                     000000018009f2d8     LIBCMTD:initializers.obj
 0002:000002e0       __xc_z                     000000018009f2e0     LIBCMTD:initializers.obj
 0002:000002e8       __xi_a                     000000018009f2e8     LIBCMTD:initializers.obj
 0002:000002f0       __acrt_stdio_initializer   000000018009f2f0     libucrtd:stdio_initializer.obj
 0002:000002f8       __acrt_tran_fma3_initializer 000000018009f2f8     libucrtd:fma3_initializer.obj
 0002:00000300       __acrt_multibyte_initializer 000000018009f300     libucrtd:multibyte_initializer.obj
 0002:00000308       __acrt_fmode_initializer   000000018009f308     libucrtd:fmode_initializer.obj
 0002:00000310       __xi_z                     000000018009f310     LIBCMTD:initializers.obj
 0002:00000318       __xl_a                     000000018009f318     LIBCMTD:tlssup.obj
 0002:00000320       __xl_z                     000000018009f320     LIBCMTD:tlssup.obj
 0002:00000328       __xp_a                     000000018009f328     LIBCMTD:initializers.obj
 0002:00000330       __acrt_locale_terminator   000000018009f330     libucrtd:locale_initializer.obj
 0002:00000338       __dcrt_console_output_terminator 000000018009f338     libucrtd:console_output_initializer.obj
 0002:00000340       __acrt_stdio_terminator    000000018009f340     libucrtd:stdio_initializer.obj
 0002:00000348       __xp_z                     000000018009f348     LIBCMTD:initializers.obj
 0002:00000350       __xt_a                     000000018009f350     LIBCMTD:initializers.obj
 0002:00000358       __xt_z                     000000018009f358     LIBCMTD:initializers.obj
 0002:00003b90       ??_C@_0BC@CEJOOBCO@Invalid?5Code?5Path@ 00000001800a2b90     raymarch_art_demo.obj
 0002:00003ba4       ??_C@_04GHJNJNPO@main@     00000001800a2ba4     raymarch_art_demo.obj
 0002:00003bb0       ??_C@_0EA@MCGBFPFE@?4?4?2libs?2framework_vulkan?2shader@ 00000001800a2bb0     raymarch_art_demo.obj
 0002:00003bf0       ??_C@_0BG@HBCIDECD@vkGetInstanceProcAddr@ 00000001800a2bf0     raymarch_art_demo.obj
 0002:00003c08       ??_C@_0BB@EIEAKGGC@vkCreateInstance@ 00000001800a2c08     raymarch_art_demo.obj
 0002:00003c20       ??_C@_0CH@DNHGEPME@vkEnumerateInstanceExtensionPro@ 00000001800a2c20     raymarch_art_demo.obj
 0002:00003c48       ??_C@_0CD@OBEAIOFF@vkEnumerateInstanceLayerPropert@ 00000001800a2c48     raymarch_art_demo.obj
 0002:00003c70       ??_C@_0BC@CIPIPPNH@vkDestroyInstance@ 00000001800a2c70     raymarch_art_demo.obj
 0002:00003c88       ??_C@_0BL@DFPDILFK@vkEnumeratePhysicalDevices@ 00000001800a2c88     raymarch_art_demo.obj
 0002:00003ca8       ??_C@_0BO@NNIAOKH@vkGetPhysicalDeviceProperties@ 00000001800a2ca8     raymarch_art_demo.obj
 0002:00003cc8       ??_C@_0BM@CGKNLAIF@vkGetPhysicalDeviceFeatures@ 00000001800a2cc8     raymarch_art_demo.obj
 0002:00003ce8       ??_C@_0CJ@IDACLAAE@vkGetPhysicalDeviceQueueFamilyP@ 00000001800a2ce8     raymarch_art_demo.obj
 0002:00003d18       ??_C@_0P@KHGBEFEA@vkCreateDevice@ 00000001800a2d18     raymarch_art_demo.obj
 0002:00003d28       ??_C@_0BE@FIFNFHEG@vkGetDeviceProcAddr@ 00000001800a2d28     raymarch_art_demo.obj
 0002:00003d40       ??_C@_0CF@HGNCFNIG@vkEnumerateDeviceExtensionPrope@ 00000001800a2d40     raymarch_art_demo.obj
 0002:00003d68       ??_C@_0BE@NMLOINDF@vkDestroySurfaceKHR@ 00000001800a2d68     raymarch_art_demo.obj
 0002:00003d80       ??_C@_0CF@KCGJHCCP@vkGetPhysicalDeviceSurfaceSuppo@ 00000001800a2d80     raymarch_art_demo.obj
 0002:00003da8       ??_C@_0CK@LHGCODEN@vkGetPhysicalDeviceSurfaceCapab@ 00000001800a2da8     raymarch_art_demo.obj
 0002:00003dd8       ??_C@_0CF@LAEKEDKL@vkGetPhysicalDeviceSurfaceForma@ 00000001800a2dd8     raymarch_art_demo.obj
 0002:00003e00       ??_C@_0CK@ONBJHPIF@vkGetPhysicalDeviceSurfacePrese@ 00000001800a2e00     raymarch_art_demo.obj
 0002:00003e30       ??_C@_0BI@INMBJMIJ@vkCreateWin32SurfaceKHR@ 00000001800a2e30     raymarch_art_demo.obj
 0002:00003e48       ??_C@_0CE@DNKEFNG@vkGetPhysicalDeviceMemoryProper@ 00000001800a2e48     raymarch_art_demo.obj
 0002:00003e70       ??_C@_0CE@CEAFLIGF@vkGetPhysicalDeviceFormatProper@ 00000001800a2e70     raymarch_art_demo.obj
 0002:00003e98       ??_C@_0BB@JLPAGEHI@vkGetDeviceQueue@ 00000001800a2e98     raymarch_art_demo.obj
 0002:00003eb0       ??_C@_0BA@BNDMPHAN@vkDestroyDevice@ 00000001800a2eb0     raymarch_art_demo.obj
 0002:00003ec0       ??_C@_0BB@LDOONJCF@vkDeviceWaitIdle@ 00000001800a2ec0     raymarch_art_demo.obj
 0002:00003ed8       ??_C@_0BA@CKODHPBK@vkQueueWaitIdle@ 00000001800a2ed8     raymarch_art_demo.obj
 0002:00003ee8       ??_C@_0BF@LAOLFHPB@vkCreateSwapchainKHR@ 00000001800a2ee8     raymarch_art_demo.obj
 0002:00003f00       ??_C@_0BG@JIIELJIO@vkDestroySwapchainKHR@ 00000001800a2f00     raymarch_art_demo.obj
 0002:00003f18       ??_C@_0BI@ENKOCHJN@vkGetSwapchainImagesKHR@ 00000001800a2f18     raymarch_art_demo.obj
 0002:00003f30       ??_C@_0BG@DJMKCOKI@vkAcquireNextImageKHR@ 00000001800a2f30     raymarch_art_demo.obj
 0002:00003f48       ??_C@_0BC@DGDLPOJO@vkQueuePresentKHR@ 00000001800a2f48     raymarch_art_demo.obj
 0002:00003f60       ??_C@_0BC@EBAFOOGP@vkCreateSemaphore@ 00000001800a2f60     raymarch_art_demo.obj
 0002:00003f78       ??_C@_0O@IHLADMGD@vkQueueSubmit@ 00000001800a2f78     raymarch_art_demo.obj
 0002:00003f88       ??_C@_0BE@EKCNHPIE@vkCreateCommandPool@ 00000001800a2f88     raymarch_art_demo.obj
 0002:00003fa0       ??_C@_0BJ@DFIMKCPH@vkAllocateCommandBuffers@ 00000001800a2fa0     raymarch_art_demo.obj
 0002:00003fc0       ??_C@_0BF@ELGCKIPI@vkBeginCommandBuffer@ 00000001800a2fc0     raymarch_art_demo.obj
 0002:00003fd8       ??_C@_0BF@MLKJDNIH@vkCmdPipelineBarrier@ 00000001800a2fd8     raymarch_art_demo.obj
 0002:00003ff0       ??_C@_0BF@KMOJHLNN@vkCmdClearColorImage@ 00000001800a2ff0     raymarch_art_demo.obj
 0002:00004008       ??_C@_0BD@LGACMFFB@vkEndCommandBuffer@ 00000001800a3008     raymarch_art_demo.obj
 0002:00004020       ??_C@_0BC@PHNCHCBG@vkCreateImageView@ 00000001800a3020     raymarch_art_demo.obj
 0002:00004038       ??_C@_0BD@IHGACEAD@vkCreateRenderPass@ 00000001800a3038     raymarch_art_demo.obj
 0002:00004050       ??_C@_0BE@KMAPGMMD@vkCreateFramebuffer@ 00000001800a3050     raymarch_art_demo.obj
 0002:00004068       ??_C@_0BF@FFAADJEJ@vkCreateShaderModule@ 00000001800a3068     raymarch_art_demo.obj
 0002:00004080       ??_C@_0BH@DEIGKOOG@vkCreatePipelineLayout@ 00000001800a3080     raymarch_art_demo.obj
 0002:00004098       ??_C@_0BK@BKKHOKEM@vkCreateGraphicsPipelines@ 00000001800a3098     raymarch_art_demo.obj
 0002:000040b8       ??_C@_0BF@FPIIGCOO@vkCmdBeginRenderPass@ 00000001800a30b8     raymarch_art_demo.obj
 0002:000040d0       ??_C@_0BC@EOGEKKNK@vkCmdBindPipeline@ 00000001800a30d0     raymarch_art_demo.obj
 0002:000040e8       ??_C@_09KCCMAAPA@vkCmdDraw@ 00000001800a30e8     raymarch_art_demo.obj
 0002:000040f8       ??_C@_0BD@JHGDNNBP@vkCmdEndRenderPass@ 00000001800a30f8     raymarch_art_demo.obj
 0002:00004110       ??_C@_0O@LIBDEIBI@vkCreateFence@ 00000001800a3110     raymarch_art_demo.obj
 0002:00004120       ??_C@_0P@POOKANBB@vkCreateBuffer@ 00000001800a3120     raymarch_art_demo.obj
 0002:00004130       ??_C@_0BO@KPEBBPKP@vkGetBufferMemoryRequirements@ 00000001800a3130     raymarch_art_demo.obj
 0002:00004150       ??_C@_0BB@JJHAPMEH@vkAllocateMemory@ 00000001800a3150     raymarch_art_demo.obj
 0002:00004168       ??_C@_0BD@KGCOAEHD@vkBindBufferMemory@ 00000001800a3168     raymarch_art_demo.obj
 0002:00004180       ??_C@_0M@GGCOCEOH@vkMapMemory@ 00000001800a3180     raymarch_art_demo.obj
 0002:00004190       ??_C@_0BK@EAPEOHNL@vkFlushMappedMemoryRanges@ 00000001800a3190     raymarch_art_demo.obj
 0002:000041b0       ??_C@_0O@GGHCKANL@vkUnmapMemory@ 00000001800a31b0     raymarch_art_demo.obj
 0002:000041c0       ??_C@_0BB@KKNBMCNI@vkCmdSetViewport@ 00000001800a31c0     raymarch_art_demo.obj
 0002:000041d8       ??_C@_0BA@PAIBKKDE@vkCmdSetScissor@ 00000001800a31d8     raymarch_art_demo.obj
 0002:000041e8       ??_C@_0BH@DIGFIBII@vkCmdBindVertexBuffers@ 00000001800a31e8     raymarch_art_demo.obj
 0002:00004200       ??_C@_0BA@KNKMFLMO@vkWaitForFences@ 00000001800a3200     raymarch_art_demo.obj
 0002:00004210       ??_C@_0O@DNPNOMFA@vkResetFences@ 00000001800a3210     raymarch_art_demo.obj
 0002:00004220       ??_C@_0N@CHGOJOGH@vkFreeMemory@ 00000001800a3220     raymarch_art_demo.obj
 0002:00004230       ??_C@_0BA@EELHLPFM@vkDestroyBuffer@ 00000001800a3230     raymarch_art_demo.obj
 0002:00004240       ??_C@_0P@DFJHAAOM@vkDestroyFence@ 00000001800a3240     raymarch_art_demo.obj
 0002:00004250       ??_C@_0BF@MBFJINPL@vkDestroyFramebuffer@ 00000001800a3250     raymarch_art_demo.obj
 0002:00004268       ??_C@_0BA@KDIBBLOF@vkCmdCopyBuffer@ 00000001800a3268     raymarch_art_demo.obj
 0002:00004278       ??_C@_0O@CGFPAJIG@vkCreateImage@ 00000001800a3278     raymarch_art_demo.obj
 0002:00004288       ??_C@_0BN@OGDFKDMI@vkGetImageMemoryRequirements@ 00000001800a3288     raymarch_art_demo.obj
 0002:000042a8       ??_C@_0BC@PDCNGLMF@vkBindImageMemory@ 00000001800a32a8     raymarch_art_demo.obj
 0002:000042c0       ??_C@_0BA@LFMBDAHN@vkCreateSampler@ 00000001800a32c0     raymarch_art_demo.obj
 0002:000042d0       ??_C@_0BH@NIDOKPGI@vkCmdCopyBufferToImage@ 00000001800a32d0     raymarch_art_demo.obj
 0002:000042e8       ??_C@_0BM@NKHFNKMI@vkCreateDescriptorSetLayout@ 00000001800a32e8     raymarch_art_demo.obj
 0002:00004308       ??_C@_0BH@IOGFOLOM@vkCreateDescriptorPool@ 00000001800a3308     raymarch_art_demo.obj
 0002:00004320       ??_C@_0BJ@IKIJDGHP@vkAllocateDescriptorSets@ 00000001800a3320     raymarch_art_demo.obj
 0002:00004340       ??_C@_0BH@NLKENCKJ@vkUpdateDescriptorSets@ 00000001800a3340     raymarch_art_demo.obj
 0002:00004358       ??_C@_0BI@MGEIFFAB@vkCmdBindDescriptorSets@ 00000001800a3358     raymarch_art_demo.obj
 0002:00004370       ??_C@_0BI@GBHAGJMF@vkDestroyDescriptorPool@ 00000001800a3370     raymarch_art_demo.obj
 0002:00004388       ??_C@_0BN@JCPPGHLF@vkDestroyDescriptorSetLayout@ 00000001800a3388     raymarch_art_demo.obj
 0002:000043a8       ??_C@_0BB@LNBGFAOC@vkDestroySampler@ 00000001800a33a8     raymarch_art_demo.obj
 0002:000043c0       ??_C@_0P@KLNLEBHC@vkDestroyImage@ 00000001800a33c0     raymarch_art_demo.obj
 0002:000043d0       ??_C@_0BB@MJKPPB@vkCmdNextSubpass@ 00000001800a33d0     raymarch_art_demo.obj
 0002:000043e8       ??_C@_0BF@EGPIEIPD@vkFreeCommandBuffers@ 00000001800a33e8     raymarch_art_demo.obj
 0002:00004400       ??_C@_0BF@OAHPGKCL@vkCmdExecuteCommands@ 00000001800a3400     raymarch_art_demo.obj
 0002:00004418       ??_C@_0BJ@PGJEOIIP@vkCreateComputePipelines@ 00000001800a3418     raymarch_art_demo.obj
 0002:00004438       ??_C@_0O@OMKANCAP@vkCmdDispatch@ 00000001800a3438     raymarch_art_demo.obj
 0002:00004448       ??_C@_0BA@KBGHEJMK@vkCmdFillBuffer@ 00000001800a3448     raymarch_art_demo.obj
 0002:00004458       ??_C@_0BD@EDDLCHJM@vkCmdPushConstants@ 00000001800a3458     raymarch_art_demo.obj
 0002:00004470       ??_C@_0BG@HNGPNHDG@vkDestroyShaderModule@ 00000001800a3470     raymarch_art_demo.obj
 0002:00004488       ??_C@_0BD@MBPGADMM@vkCreateBufferView@ 00000001800a3488     raymarch_art_demo.obj
 0002:000044a0       ??_C@_0BF@FOEEMCKJ@vkCmdBindIndexBuffer@ 00000001800a34a0     raymarch_art_demo.obj
 0002:000044b8       ??_C@_0BB@EJMHFNEG@vkCmdDrawIndexed@ 00000001800a34b8     raymarch_art_demo.obj
 0002:000044d0       ??_C@_0BD@EMLJINEM@vkDestroyImageView@ 00000001800a34d0     raymarch_art_demo.obj
 0002:000044e8       ??_C@_0BC@BPIBMICA@vkCreateQueryPool@ 00000001800a34e8     raymarch_art_demo.obj
 0002:00004500       ??_C@_0BE@IDGDHNEF@vkCmdResetQueryPool@ 00000001800a3500     raymarch_art_demo.obj
 0002:00004518       ??_C@_0BG@KOBGMNJG@vkGetQueryPoolResults@ 00000001800a3518     raymarch_art_demo.obj
 0002:00004530       ??_C@_0BE@IILBLIHA@vkCmdWriteTimestamp@ 00000001800a3530     raymarch_art_demo.obj
 0002:00004548       ??_C@_0BE@MGFPHBG@vkDestroyRenderPass@ 00000001800a3548     raymarch_art_demo.obj
 0002:00004560       ??_C@_0BC@OMJIFBFF@vkCmdDrawIndirect@ 00000001800a3560     raymarch_art_demo.obj
 0002:00004578       ??_C@_0BA@PNNJJLPN@vkCmdWaitEvents@ 00000001800a3578     raymarch_art_demo.obj
 0002:00004588       ??_C@_0BA@CONBGPEI@vkCmdResetEvent@ 00000001800a3588     raymarch_art_demo.obj
 0002:00004598       ??_C@_0O@DGHEPFAO@vkCmdSetEvent@ 00000001800a3598     raymarch_art_demo.obj
 0002:000045a8       ??_C@_0O@JFMHOAKG@vkCreateEvent@ 00000001800a35a8     raymarch_art_demo.obj
 0002:000045b8       ??_C@_0P@CFFCPPHM@vkCmdCopyImage@ 00000001800a35b8     raymarch_art_demo.obj
 0002:000045c8       ??_C@_0BC@HENPMEE@vkCmdSetDepthBias@ 00000001800a35c8     raymarch_art_demo.obj
 0002:000045e0       ??_C@_0P@IENCOMCD@VK_KHR_surface@ 00000001800a35e0     raymarch_art_demo.obj
 0002:000045f0       ??_C@_0BF@COCMEDFO@VK_KHR_win32_surface@ 00000001800a35f0     raymarch_art_demo.obj
 0002:00004608       ??_C@_06COGLIGFC@Dragon@   00000001800a3608     raymarch_art_demo.obj
 0002:00004610       ??_C@_0BM@LGHMGEMH@VK_LAYER_KHRONOS_validation@ 00000001800a3610     raymarch_art_demo.obj
 0002:00004630       ??_C@_0BB@MGNLFLJB@VK_KHR_swapchain@ 00000001800a3630     raymarch_art_demo.obj
 0002:00004648       ??_C@_0DN@OAMJKFLI@?4?4?2libs?2framework_vulkan?2shader@ 00000001800a3648     raymarch_art_demo.obj
 0002:00004690       ??_C@_0FA@GFJNDKOK@?4?4?2libs?2framework_vulkan?2shader@ 00000001800a3690     raymarch_art_demo.obj
 0002:000046e0       ??_C@_0FA@DMMNMFLB@?4?4?2libs?2framework_vulkan?2shader@ 00000001800a36e0     raymarch_art_demo.obj
 0002:00004730       ??_C@_0EN@GPKPDLIN@?4?4?2libs?2framework_vulkan?2shader@ 00000001800a3730     raymarch_art_demo.obj
 0002:00004780       ??_C@_0EK@DIJCHONG@?4?4?2libs?2framework_vulkan?2shader@ 00000001800a3780     raymarch_art_demo.obj
 0002:00004800       ??_C@_02JDPG@rb@           00000001800a3800     raymarch_art_demo.obj
 0002:00004808       ??_C@_0BL@ILAGMMEJ@C?3?2Windows?2Fonts?2Arial?4ttf@ 00000001800a3808     raymarch_art_demo.obj
 0002:00004828       ??_C@_0BM@JJNHLFFD@?4?4?2libs?2ui?2ui_rect_vert?4spv@ 00000001800a3828     raymarch_art_demo.obj
 0002:00004848       ??_C@_0BM@JABNDJHG@?4?4?2libs?2ui?2ui_rect_frag?4spv@ 00000001800a3848     raymarch_art_demo.obj
 0002:00004868       ??_C@_0BN@JGCHNKAC@?4?4?2libs?2ui?2ui_glyph_vert?4spv@ 00000001800a3868     raymarch_art_demo.obj
 0002:00004888       ??_C@_0BN@JPONFGCH@?4?4?2libs?2ui?2ui_glyph_frag?4spv@ 00000001800a3888     raymarch_art_demo.obj
 0002:000048a8       __real@00000000            00000001800a38a8     raymarch_art_demo.obj
 0002:000048b0       __real@0000000000000000    00000001800a38b0     raymarch_art_demo.obj
 0002:000048b8       __real@38d1b717            00000001800a38b8     raymarch_art_demo.obj
 0002:000048bc       __real@39800000            00000001800a38bc     raymarch_art_demo.obj
 0002:000048c0       __real@3c23d70a            00000001800a38c0     raymarch_art_demo.obj
 0002:000048c4       __real@3dcccccd            00000001800a38c4     raymarch_art_demo.obj
 0002:000048c8       __real@3e4ccccd            00000001800a38c8     raymarch_art_demo.obj
 0002:000048cc       __real@3eaaaaab            00000001800a38cc     raymarch_art_demo.obj
 0002:000048d0       __real@3eb33333            00000001800a38d0     raymarch_art_demo.obj
 0002:000048d4       __real@3f000000            00000001800a38d4     raymarch_art_demo.obj
 0002:000048d8       __real@3f7d70a4            00000001800a38d8     raymarch_art_demo.obj
 0002:000048dc       __real@3f800000            00000001800a38dc     raymarch_art_demo.obj
 0002:000048e0       __real@3f8147ae            00000001800a38e0     raymarch_art_demo.obj
 0002:000048e4       __real@3fddb3d7            00000001800a38e4     raymarch_art_demo.obj
 0002:000048e8       __real@3ff0000000000000    00000001800a38e8     raymarch_art_demo.obj
 0002:000048f0       __real@3ff921fafc8b007a    00000001800a38f0     raymarch_art_demo.obj
 0002:000048f8       __real@40000000            00000001800a38f8     raymarch_art_demo.obj
 0002:000048fc       __real@40400000            00000001800a38fc     raymarch_art_demo.obj
 0002:00004900       __real@40490fdb            00000001800a3900     raymarch_art_demo.obj
 0002:00004904       __real@40800000            00000001800a3904     raymarch_art_demo.obj
 0002:00004908       __real@40a00000            00000001800a3908     raymarch_art_demo.obj
 0002:0000490c       __real@41100000            00000001800a390c     raymarch_art_demo.obj
 0002:00004910       __real@41200000            00000001800a3910     raymarch_art_demo.obj
 0002:00004914       __real@41800000            00000001800a3914     raymarch_art_demo.obj
 0002:00004918       __real@41c00000            00000001800a3918     raymarch_art_demo.obj
 0002:0000491c       __real@41d80000            00000001800a391c     raymarch_art_demo.obj
 0002:00004920       __real@42b40000            00000001800a3920     raymarch_art_demo.obj
 0002:00004924       __real@43200000            00000001800a3924     raymarch_art_demo.obj
 0002:00004928       __real@43340000            00000001800a3928     raymarch_art_demo.obj
 0002:0000492c       __real@437f0000            00000001800a392c     raymarch_art_demo.obj
 0002:00004930       __real@447a0000            00000001800a3930     raymarch_art_demo.obj
 0002:00004934       __real@46800000            00000001800a3934     raymarch_art_demo.obj
 0002:00004938       __real@477fff00            00000001800a3938     raymarch_art_demo.obj
 0002:0000493c       __real@47800000            00000001800a393c     raymarch_art_demo.obj
 0002:00004940       __real@497423f0            00000001800a3940     raymarch_art_demo.obj
 0002:00004944       __real@5f800000            00000001800a3944     raymarch_art_demo.obj
 0002:00004948       __real@bf000000            00000001800a3948     raymarch_art_demo.obj
 0002:0000494c       __real@bf800000            00000001800a394c     raymarch_art_demo.obj
 0002:00004950       __real@c0000000            00000001800a3950     raymarch_art_demo.obj
 0002:00004954       __real@c1d80000            00000001800a3954     raymarch_art_demo.obj
 0002:00004960       __xmm@00000200000002000000020000000200 00000001800a3960     raymarch_art_demo.obj
 0002:00004970       __xmm@00080008000800080008000800080008 00000001800a3970     raymarch_art_demo.obj
 0002:00004980       __xmm@00ff00ff00ff00ff00ff00ff00ff00ff 00000001800a3980     raymarch_art_demo.obj
 0002:00004990       __xmm@01010000010100000101000001010000 00000001800a3990     raymarch_art_demo.obj
 0002:000049a0       __xmm@08a914e808a914e808a914e808a914e8 00000001800a39a0     raymarch_art_demo.obj
 0002:000049b0       __xmm@11c8e09e11c8e09e11c8e09e11c8e09e 00000001800a39b0     raymarch_art_demo.obj
 0002:000049c0       __xmm@11c8f9c311c8f9c311c8f9c311c8f9c3 00000001800a39c0     raymarch_art_demo.obj
 0002:000049d0       __xmm@12d0046b12d0046b12d0046b12d0046b 00000001800a39d0     raymarch_art_demo.obj
 0002:000049e0       __xmm@166f166f166f166f166f166f166f166f 00000001800a39e0     raymarch_art_demo.obj
 0002:000049f0       __xmm@1c5a1c5a1c5a1c5a1c5a1c5a1c5a1c5a 00000001800a39f0     raymarch_art_demo.obj
 0002:00004a00       __xmm@7fffffffffffffff7fffffffffffffff 00000001800a3a00     raymarch_art_demo.obj
 0002:00004a10       __xmm@80000000800000008000000080000000 00000001800a3a10     raymarch_art_demo.obj
 0002:00004a20       __xmm@80808080808080808080808080808080 00000001800a3a20     raymarch_art_demo.obj
 0002:00004a30       __xmm@e09ee565e09ee565e09ee565e09ee565 00000001800a3a30     raymarch_art_demo.obj
 0002:00004a40       __xmm@e9cf12d0e9cf12d0e9cf12d0e9cf12d0 00000001800a3a40     raymarch_art_demo.obj
 0002:00004a50       __xmm@eb1a08a9eb1a08a9eb1a08a9eb1a08a9 00000001800a3a50     raymarch_art_demo.obj
 0002:00004a60       __xmm@f493f493f493f493f493f493f493f493 00000001800a3a60     raymarch_art_demo.obj
 0002:00004a70       __xmm@f9c31a9df9c31a9df9c31a9df9c31a9d 00000001800a3a70     raymarch_art_demo.obj
 0002:00004a80       __xmm@fa7efa7efa7efa7efa7efa7efa7efa7e 00000001800a3a80     raymarch_art_demo.obj
 0002:00004a90       _pRawDllMain               00000001800a3a90     LIBCMTD:dll_dllmain.obj
 0002:00004a90       _pDefaultRawDllMain        00000001800a3a90     LIBCMTD:dll_dllmain.obj
 0002:00004aa8       _pDestructExceptionObject  00000001800a3aa8     libvcruntimed:ehhelpers.obj
 0002:00004de8       ??_C@_08EHJDFFNH@__based?$CI@ 00000001800a3de8     libvcruntimed:undname.obj
 0002:00004df8       ??_C@_07KOLFKCDI@__cdecl@  00000001800a3df8     libvcruntimed:undname.obj
 0002:00004e00       ??_C@_08GHMPAG@__pascal@   00000001800a3e00     libvcruntimed:undname.obj
 0002:00004e10       ??_C@_09IFJBGAPI@__stdcall@ 00000001800a3e10     libvcruntimed:undname.obj
 0002:00004e20       ??_C@_0L@NPHFGOKO@__thiscall@ 00000001800a3e20     libvcruntimed:undname.obj
 0002:00004e30       ??_C@_0L@JMKHOMEK@__fastcall@ 00000001800a3e30     libvcruntimed:undname.obj
 0002:00004e40       ??_C@_0N@BCKKPABJ@__vectorcall@ 00000001800a3e40     libvcruntimed:undname.obj
 0002:00004e50       ??_C@_09HIJEGCPM@__clrcall@ 00000001800a3e50     libvcruntimed:undname.obj
 0002:00004e5c       ??_C@_06GHPCKEAG@__eabi@   00000001800a3e5c     libvcruntimed:undname.obj
 0002:00004e68       ??_C@_09IOPIDJLG@__swift_1@ 00000001800a3e68     libvcruntimed:undname.obj
 0002:00004e78       ??_C@_09KFNFGKHF@__swift_2@ 00000001800a3e78     libvcruntimed:undname.obj
 0002:00004e88       ??_C@_07JOMMBBKO@__ptr64@  00000001800a3e88     libvcruntimed:undname.obj
 0002:00004e90       ??_C@_0L@PILCLIHE@__restrict@ 00000001800a3e90     libvcruntimed:undname.obj
 0002:00004ea0       ??_C@_0M@GFIIJFMG@__unaligned@ 00000001800a3ea0     libvcruntimed:undname.obj
 0002:00004eb0       ??_C@_09DHDLOLLB@restrict?$CI@ 00000001800a3eb0     libvcruntimed:undname.obj
 0002:00004eba       ??_C@_00CNPNBAHC@@         00000001800a3eba     libvcruntimed:undname.obj
 0002:00004ebc       ??_C@_04NIHEBCM@?5new@     00000001800a3ebc     libvcruntimed:undname.obj
 0002:00004ec8       ??_C@_07FPCDHGMM@?5delete@ 00000001800a3ec8     libvcruntimed:undname.obj
 0002:00004ed0       ??_C@_01NEMOKFLO@?$DN@     00000001800a3ed0     libvcruntimed:undname.obj
 0002:00004ed4       ??_C@_02GPIOPFAK@?$DO?$DO@ 00000001800a3ed4     libvcruntimed:undname.obj
 0002:00004ed8       ??_C@_02FODMEDOG@?$DM?$DM@ 00000001800a3ed8     libvcruntimed:undname.obj
 0002:00004edc       ??_C@_01DCLJPIOD@?$CB@     00000001800a3edc     libvcruntimed:undname.obj
 0002:00004ee0       ??_C@_02EGOFBIJA@?$DN?$DN@ 00000001800a3ee0     libvcruntimed:undname.obj
 0002:00004ee4       ??_C@_02FDNJECIE@?$CB?$DN@ 00000001800a3ee4     libvcruntimed:undname.obj
 0002:00004ee8       ??_C@_02GPECMEKF@?$FL?$FN@ 00000001800a3ee8     libvcruntimed:undname.obj
 0002:00004ef0       ??_C@_08LHJFAFGD@operator@ 00000001800a3ef0     libvcruntimed:undname.obj
 0002:00004efc       ??_C@_02HBOOOICD@?9?$DO@   00000001800a3efc     libvcruntimed:undname.obj
 0002:00004f00       ??_C@_01NBENCBCI@?$CK@     00000001800a3f00     libvcruntimed:undname.obj
 0002:00004f04       ??_C@_02ECNGHCIF@?$CL?$CL@ 00000001800a3f04     libvcruntimed:undname.obj
 0002:00004f08       ??_C@_02BAABKJLB@?9?9@     00000001800a3f08     libvcruntimed:undname.obj
 0002:00004f0c       ??_C@_01JOAMLHOP@?9@       00000001800a3f0c     libvcruntimed:undname.obj
 0002:00004f10       ??_C@_01MIFGBAGJ@?$CL@     00000001800a3f10     libvcruntimed:undname.obj
 0002:00004f14       ??_C@_01HNPIGOCE@?$CG@     00000001800a3f14     libvcruntimed:undname.obj
 0002:00004f18       ??_C@_03MNHNFDLC@?9?$DO?$CK@ 00000001800a3f18     libvcruntimed:undname.obj
 0002:00004f1c       ??_C@_01KMDKNFGN@?1@       00000001800a3f1c     libvcruntimed:undname.obj
 0002:00004f20       ??_C@_01FGNFDNOH@?$CF@     00000001800a3f20     libvcruntimed:undname.obj
 0002:00004f24       ??_C@_01MNNFJEPP@?$DM@     00000001800a3f24     libvcruntimed:undname.obj
 0002:00004f28       ??_C@_02EHCHHCKH@?$DM?$DN@ 00000001800a3f28     libvcruntimed:undname.obj
 0002:00004f2c       ??_C@_01PPODPGHN@?$DO@     00000001800a3f2c     libvcruntimed:undname.obj
 0002:00004f30       ??_C@_02EEKDKGMJ@?$DO?$DN@ 00000001800a3f30     libvcruntimed:undname.obj
 0002:00004f34       ??_C@_01IHBHIGKO@?0@       00000001800a3f34     libvcruntimed:undname.obj
 0002:00004f38       ??_C@_02HCKGKOFO@?$CI?$CJ@ 00000001800a3f38     libvcruntimed:undname.obj
 0002:00004f3c       ??_C@_01PJKLJHI@?$HO@      00000001800a3f3c     libvcruntimed:undname.obj
 0002:00004f40       ??_C@_01JKBOJNNK@?$FO@     00000001800a3f40     libvcruntimed:undname.obj
 0002:00004f44       ??_C@_01DNKMNLPK@?$HM@     00000001800a3f44     libvcruntimed:undname.obj
 0002:00004f48       ??_C@_02PPKAJPJL@?$CG?$CG@ 00000001800a3f48     libvcruntimed:undname.obj
 0002:00004f4c       ??_C@_02NONPIBCD@?$HM?$HM@ 00000001800a3f4c     libvcruntimed:undname.obj
 0002:00004f50       ??_C@_02FPIMKNGF@?$CK?$DN@ 00000001800a3f50     libvcruntimed:undname.obj
 0002:00004f54       ??_C@_02FOEOMHFC@?$CL?$DN@ 00000001800a3f54     libvcruntimed:undname.obj
 0002:00004f58       ??_C@_02FKMDLLOA@?9?$DN@   00000001800a3f58     libvcruntimed:undname.obj
 0002:00004f5c       ??_C@_02FJEHGPIO@?1?$DN@   00000001800a3f5c     libvcruntimed:undname.obj
 0002:00004f60       ??_C@_02FENAOKFI@?$CF?$DN@ 00000001800a3f60     libvcruntimed:undname.obj
 0002:00004f64       ??_C@_03IKFCCPFF@?$DO?$DO?$DN@ 00000001800a3f64     libvcruntimed:undname.obj
 0002:00004f68       ??_C@_03CDNPDDLA@?$DM?$DM?$DN@ 00000001800a3f68     libvcruntimed:undname.obj
 0002:00004f6c       ??_C@_02FGJGFEAB@?$CG?$DN@ 00000001800a3f6c     libvcruntimed:undname.obj
 0002:00004f70       ??_C@_02DHLNPPGH@?$HM?$DN@ 00000001800a3f70     libvcruntimed:undname.obj
 0002:00004f74       ??_C@_02MHEGNOJ@?$FO?$DN@  00000001800a3f74     libvcruntimed:undname.obj
 0002:00004f78       ??_C@_09IFPLHPGF@?$GAvftable?8@ 00000001800a3f78     libvcruntimed:undname.obj
 0002:00004f88       ??_C@_09BLBHBJP@?$GAvbtable?8@ 00000001800a3f88     libvcruntimed:undname.obj
 0002:00004f98       ??_C@_07FEEIOKP@?$GAvcall?8@ 00000001800a3f98     libvcruntimed:undname.obj
 0002:00004fa0       ??_C@_08LLFFHHDJ@?$GAtypeof?8@ 00000001800a3fa0     libvcruntimed:undname.obj
 0002:00004fb0       ??_C@_0BF@KDPPACIK@?$GAlocal?5static?5guard?8@ 00000001800a3fb0     libvcruntimed:undname.obj
 0002:00004fc8       ??_C@_08OBABFOLI@?$GAstring?8@ 00000001800a3fc8     libvcruntimed:undname.obj
 0002:00004fd8       ??_C@_0BD@JDLKDPAB@?$GAvbase?5destructor?8@ 00000001800a3fd8     libvcruntimed:undname.obj
 0002:00004ff0       ??_C@_0BN@DEGPLNFK@?$GAvector?5deleting?5destructor?8@ 00000001800a3ff0     libvcruntimed:undname.obj
 0002:00005010       ??_C@_0BO@OBMKPJIG@?$GAdefault?5constructor?5closure?8@ 00000001800a4010     libvcruntimed:undname.obj
 0002:00005030       ??_C@_0BN@IMDCHIKM@?$GAscalar?5deleting?5destructor?8@ 00000001800a4030     libvcruntimed:undname.obj
 0002:00005050       ??_C@_0BO@PFGOCPJJ@?$GAvector?5constructor?5iterator?8@ 00000001800a4050     libvcruntimed:undname.obj
 0002:00005070       ??_C@_0BN@LFPFMEDL@?$GAvector?5destructor?5iterator?8@ 00000001800a4070     libvcruntimed:undname.obj
 0002:00005090       ??_C@_0CE@IKBNEHA@?$GAvector?5vbase?5constructor?5itera@ 00000001800a4090     libvcruntimed:undname.obj
 0002:000050b8       ??_C@_0BL@NILFHHPC@?$GAvirtual?5displacement?5map?8@ 00000001800a40b8     libvcruntimed:undname.obj
 0002:000050d8       ??_C@_0CB@JONCMFFK@?$GAeh?5vector?5constructor?5iterator@ 00000001800a40d8     libvcruntimed:undname.obj
 0002:00005100       ??_C@_0CA@GCEOPDGL@?$GAeh?5vector?5destructor?5iterator?8@ 00000001800a4100     libvcruntimed:undname.obj
 0002:00005120       ??_C@_0CH@OOJPLCPH@?$GAeh?5vector?5vbase?5constructor?5it@ 00000001800a4120     libvcruntimed:undname.obj
 0002:00005148       ??_C@_0BL@LLKPOHJI@?$GAcopy?5constructor?5closure?8@ 00000001800a4148     libvcruntimed:undname.obj
 0002:00005168       ??_C@_0BA@KBCDOMBN@?$GAudt?5returning?8@ 00000001800a4168     libvcruntimed:undname.obj
 0002:00005178       ??_C@_03KLGMFNMG@?$GAEH@   00000001800a4178     libvcruntimed:undname.obj
 0002:0000517c       ??_C@_05KHLCHHI@?$GARTTI@  00000001800a417c     libvcruntimed:undname.obj
 0002:00005188       ??_C@_0BA@KKLDJDLB@?$GAlocal?5vftable?8@ 00000001800a4188     libvcruntimed:undname.obj
 0002:00005198       ??_C@_0CE@IIHCMGGL@?$GAlocal?5vftable?5constructor?5clos@ 00000001800a4198     libvcruntimed:undname.obj
 0002:000051bc       ??_C@_06FHBGPFGH@?5new?$FL?$FN@ 00000001800a41bc     libvcruntimed:undname.obj
 0002:000051c8       ??_C@_09LBNFPBCA@?5delete?$FL?$FN@ 00000001800a41c8     libvcruntimed:undname.obj
 0002:000051d8       ??_C@_0P@HJKNJFNN@?$GAomni?5callsig?8@ 00000001800a41d8     libvcruntimed:undname.obj
 0002:000051e8       ??_C@_0BL@CNOONJFP@?$GAplacement?5delete?5closure?8@ 00000001800a41e8     libvcruntimed:undname.obj
 0002:00005208       ??_C@_0BN@CKNJLHMB@?$GAplacement?5delete?$FL?$FN?5closure?8@ 00000001800a4208     libvcruntimed:undname.obj
 0002:00005228       ??_C@_0CG@CFDHKGGD@?$GAmanaged?5vector?5constructor?5ite@ 00000001800a4228     libvcruntimed:undname.obj
 0002:00005250       ??_C@_0CF@IMGKMJNO@?$GAmanaged?5vector?5destructor?5iter@ 00000001800a4250     libvcruntimed:undname.obj
 0002:00005278       ??_C@_0CG@HLDDJMAG@?$GAeh?5vector?5copy?5constructor?5ite@ 00000001800a4278     libvcruntimed:undname.obj
 0002:000052a0       ??_C@_0CM@FCBBDIGB@?$GAeh?5vector?5vbase?5copy?5construct@ 00000001800a42a0     libvcruntimed:undname.obj
 0002:000052d0       ??_C@_0BL@CLIPGLGB@?$GAdynamic?5initializer?5for?5?8@ 00000001800a42d0     libvcruntimed:undname.obj
 0002:000052f0       ??_C@_0CB@PDBIFEP@?$GAdynamic?5atexit?5destructor?5for?5@ 00000001800a42f0     libvcruntimed:undname.obj
 0002:00005318       ??_C@_0CD@CGAJBKEJ@?$GAvector?5copy?5constructor?5iterat@ 00000001800a4318     libvcruntimed:undname.obj
 0002:00005340       ??_C@_0CJ@GJELGAMM@?$GAvector?5vbase?5copy?5constructor?5@ 00000001800a4340     libvcruntimed:undname.obj
 0002:00005370       ??_C@_0CL@FGIJHLCE@?$GAmanaged?5vector?5copy?5constructo@ 00000001800a4370     libvcruntimed:undname.obj
 0002:000053a0       ??_C@_0BM@PMGGMLDN@?$GAlocal?5static?5thread?5guard?8@ 00000001800a43a0     libvcruntimed:undname.obj
 0002:000053c0       ??_C@_0N@BDNMDMOL@operator?5?$CC?$CC?5@ 00000001800a43c0     libvcruntimed:undname.obj
 0002:000053d0       ??_C@_0BC@GGEBGALA@operator?5co_await@ 00000001800a43d0     libvcruntimed:undname.obj
 0002:000053e8       ??_C@_0BC@DAFEJGAK@?5Type?5Descriptor?8@ 00000001800a43e8     libvcruntimed:undname.obj
 0002:00005400       ??_C@_0BM@LDKODKLH@?5Base?5Class?5Descriptor?5at?5?$CI@ 00000001800a4400     libvcruntimed:undname.obj
 0002:00005420       ??_C@_0BD@LGICGFMM@?5Base?5Class?5Array?8@ 00000001800a4420     libvcruntimed:undname.obj
 0002:00005438       ??_C@_0BN@MECKDCOJ@?5Class?5Hierarchy?5Descriptor?8@ 00000001800a4438     libvcruntimed:undname.obj
 0002:00005458       ??_C@_0BK@CFCOFLF@?5Complete?5Object?5Locator?8@ 00000001800a4458     libvcruntimed:undname.obj
 0002:00005480       ??_C@_0EO@EFANHAJD@d?3?2agent?2_work?21?2s?2src?2vctools?2@ 00000001800a4480     libvcruntimed:per_thread_data.obj
 0002:000054e8       ??_C@_1DM@KHCHBNEB@?$AAa?$AAp?$AAi?$AA?9?$AAm?$AAs?$AA?9?$AAw?$AAi?$AAn?$AA?9?$AAc?$AAo?$AAr?$AAe@ 00000001800a44e8     libvcruntimed:winapi_downlevel.obj
 0002:00005528       ??_C@_1DK@LPPGFMPP@?$AAa?$AAp?$AAi?$AA?9?$AAm?$AAs?$AA?9?$AAw?$AAi?$AAn?$AA?9?$AAc?$AAo?$AAr?$AAe@ 00000001800a4528     libvcruntimed:winapi_downlevel.obj
 0002:00005568       ??_C@_1BC@GDMECMAK@?$AAk?$AAe?$AAr?$AAn?$AAe?$AAl?$AA3?$AA2@ 00000001800a4568     libvcruntimed:winapi_downlevel.obj
 0002:00005580       ??_C@_17CNPHIMPH@?$AA?$CF?$AAl?$AAs@ 00000001800a4580     libvcruntimed:winapi_downlevel.obj
 0002:00005588       ??_C@_1BA@PFFKHIOG@?$AAa?$AAp?$AAi?$AA?9?$AAm?$AAs?$AA?9@ 00000001800a4588     libvcruntimed:winapi_downlevel.obj
 0002:00005598       ??_C@_1BA@IAIFMGEF@?$AAe?$AAx?$AAt?$AA?9?$AAm?$AAs?$AA?9@ 00000001800a4598     libvcruntimed:winapi_downlevel.obj
 0002:000055b0       ??_C@_1EM@LBIFGLGH@?$AAc?$AAa?$AAc?$AAh?$AAe?$AAd?$AA_?$AAh?$AAa?$AAn?$AAd?$AAl?$AAe?$AA?5?$AA?$DN@ 00000001800a45b0     libvcruntimed:winapi_downlevel.obj
 0002:00005600       ??_C@_1JO@HGCMALOH@?$AAd?$AA?3?$AA?2?$AAa?$AAg?$AAe?$AAn?$AAt?$AA?2?$AA_?$AAw?$AAo?$AAr?$AAk?$AA?2@ 00000001800a4600     libvcruntimed:winapi_downlevel.obj
 0002:000056a0       ??_C@_1DI@MAHEDLDB@?$AAc?$AAa?$AAc?$AAh?$AAe?$AAd?$AA_?$AAh?$AAa?$AAn?$AAd?$AAl?$AAe?$AA?5?$AA?$DN@ 00000001800a46a0     libvcruntimed:winapi_downlevel.obj
 0002:000056e0       ??_C@_1FC@IBNCGNKL@?$AAc?$AAa?$AAc?$AAh?$AAe?$AAd?$AA_?$AAf?$AAp?$AA?5?$AA?$DN?$AA?$DN?$AA?5?$AAi?$AAn@ 00000001800a46e0     libvcruntimed:winapi_downlevel.obj
 0002:00005738       ??_C@_1CI@GDJBAGLP@?$AAc?$AAa?$AAc?$AAh?$AAe?$AAd?$AA_?$AAf?$AAp?$AA?5?$AA?$DN?$AA?$DN?$AA?5?$AAn?$AAe@ 00000001800a4738     libvcruntimed:winapi_downlevel.obj
 0002:00005768       ??_C@_08KNHFBNJ@FlsAlloc@  00000001800a4768     libvcruntimed:winapi_downlevel.obj
 0002:00005780       ??_C@_07PEJMOBNF@FlsFree@  00000001800a4780     libvcruntimed:winapi_downlevel.obj
 0002:00005790       ??_C@_0M@GDNOONDI@FlsGetValue@ 00000001800a4790     libvcruntimed:winapi_downlevel.obj
 0002:000057a8       ??_C@_0M@JCPCPOEF@FlsSetValue@ 00000001800a47a8     libvcruntimed:winapi_downlevel.obj
 0002:000057c0       ??_C@_0BM@HCFOFFN@InitializeCriticalSectionEx@ 00000001800a47c0     libvcruntimed:winapi_downlevel.obj
 0002:00005880       ??_7exception@std@@6B@     00000001800a4880     libvcruntimed:frame.obj
 0002:00005890       ??_C@_0BC@EOODALEL@Unknown?5exception@ 00000001800a4890     libvcruntimed:frame.obj
 0002:000058b0       ??_7bad_exception@std@@6B@ 00000001800a48b0     libvcruntimed:frame.obj
 0002:000058c0       ??_C@_0O@DPKOEFFH@bad?5exception@ 00000001800a48c0     libvcruntimed:frame.obj
 0002:000058d0       ??_C@_1FK@OACNEHHA@?$AAt?$AAo?$AA?9?$AA?$DO?$AA_?$AAW?$AAh?$AAa?$AAt?$AA?5?$AA?$DN?$AA?$DN?$AA?5?$AAn?$AAu@ 00000001800a48d0     libvcruntimed:std_exception.obj
 0002:00005930       ??_C@_1IM@CGBJDMAM@?$AAd?$AA?3?$AA?2?$AAa?$AAg?$AAe?$AAn?$AAt?$AA?2?$AA_?$AAw?$AAo?$AAr?$AAk?$AA?2@ 00000001800a4930     libvcruntimed:std_exception.obj
 0002:00005a00       ??_C@_1GE@DPGDJKLM@?$AAm?$AAi?$AAn?$AAk?$AAe?$AAr?$AAn?$AAe?$AAl?$AA?2?$AAc?$AAr?$AAt?$AAs?$AA?2@ 00000001800a4a00     libucrtd:strtox.obj
 0002:00005a70       ??_C@_1EO@MLJCKPIB@?$AAb?$AAa?$AAs?$AAe?$AA?5?$AA?$DN?$AA?$DN?$AA?5?$AA0?$AA?5?$AA?$HM?$AA?$HM?$AA?5?$AA?$CI?$AA2@ 00000001800a4a70     libucrtd:strtox.obj
 0002:00005ac0       ??_C@_1DI@BANODKFL@?$AA_?$AA_?$AAc?$AAr?$AAt?$AA_?$AAs?$AAt?$AAr?$AAt?$AAo?$AAx?$AA?3?$AA?3?$AAp@ 00000001800a4ac0     libucrtd:strtox.obj
 0002:00005af8       ??_C@_1CM@GJENOOEJ@?$AAc?$AA?5?$AA?$DN?$AA?$DN?$AA?5?$AA?8?$AA?2?$AA0?$AA?8?$AA?5?$AA?$HM?$AA?$HM?$AA?5?$AA?$CK?$AA_@ 00000001800a4af8     libucrtd:strtox.obj
 0002:00005b30       ??_C@_1HA@CONLANFI@?$AA_?$AA_?$AAc?$AAr?$AAt?$AA_?$AAs?$AAt?$AAr?$AAt?$AAo?$AAx?$AA?3?$AA?3?$AAc@ 00000001800a4b30     libucrtd:strtox.obj
 0002:00005ba0       ??_C@_1BM@PNEBBBDO@?$AA_?$AAp?$AA?5?$AA?$CB?$AA?$DN?$AA?5?$AAn?$AAu?$AAl?$AAl?$AAp?$AAt?$AAr@ 00000001800a4ba0     libucrtd:strtox.obj
 0002:00005bc0       ??_C@_1HG@FCDBLOEG@?$AA_?$AA_?$AAc?$AAr?$AAt?$AA_?$AAs?$AAt?$AAr?$AAt?$AAo?$AAx?$AA?3?$AA?3?$AAc@ 00000001800a4bc0     libucrtd:strtox.obj
 0002:00005c40       ??_C@_1GK@MNHIDABG@?$AA_?$AA_?$AAc?$AAr?$AAt?$AA_?$AAs?$AAt?$AAr?$AAt?$AAo?$AAx?$AA?3?$AA?3?$AAc@ 00000001800a4c40     libucrtd:strtox.obj
 0002:00005cb0       ??_C@_1HA@MKKIHBHP@?$AA_?$AA_?$AAc?$AAr?$AAt?$AA_?$AAs?$AAt?$AAr?$AAt?$AAo?$AAx?$AA?3?$AA?3?$AAc@ 00000001800a4cb0     libucrtd:strtox.obj
 0002:00005d20       ??_C@_1CK@LLOEFJJG@?$AAf?$AAi?$AAl?$AAe?$AA_?$AAn?$AAa?$AAm?$AAe?$AA?5?$AA?$CB?$AA?$DN?$AA?5?$AAn?$AAu@ 00000001800a4d20     libucrtd:fopen.obj
 0002:00005d50       ??_C@_1FO@JKHHBFCN@?$AAm?$AAi?$AAn?$AAk?$AAe?$AAr?$AAn?$AAe?$AAl?$AA?2?$AAc?$AAr?$AAt?$AAs?$AA?2@ 00000001800a4d50     libucrtd:fopen.obj
 0002:00005db0       ??_C@_1BM@HBDCPLIA@?$AAc?$AAo?$AAm?$AAm?$AAo?$AAn?$AA_?$AAf?$AAs?$AAo?$AAp?$AAe?$AAn@ 00000001800a4db0     libucrtd:fopen.obj
 0002:00005dd0       ??_C@_1CA@HJKPLBCC@?$AAm?$AAo?$AAd?$AAe?$AA?5?$AA?$CB?$AA?$DN?$AA?5?$AAn?$AAu?$AAl?$AAl?$AAp?$AAt?$AAr@ 00000001800a4dd0     libucrtd:fopen.obj
 0002:00005df0       ??_C@_1BG@HEFEIBLN@?$AA?$CK?$AAm?$AAo?$AAd?$AAe?$AA?5?$AA?$CB?$AA?$DN?$AA?5?$AA0@ 00000001800a4df0     libucrtd:fopen.obj
 0002:00005e08       ??_C@_1CE@JMFACANE@?$AAr?$AAe?$AAs?$AAu?$AAl?$AAt?$AA?5?$AA?$CB?$AA?$DN?$AA?5?$AAn?$AAu?$AAl?$AAl?$AAp@ 00000001800a4e08     libucrtd:fopen.obj
 0002:00005e30       ??_C@_1BO@JGGJAKB@?$AAc?$AAo?$AAm?$AAm?$AAo?$AAn?$AA_?$AAf?$AAo?$AAp?$AAe?$AAn?$AA_?$AAs@ 00000001800a4e30     libucrtd:fopen.obj
 0002:00005e50       ??_C@_1BO@MHPFFFJJ@?$AAs?$AAt?$AAr?$AAe?$AAa?$AAm?$AA?4?$AAv?$AAa?$AAl?$AAi?$AAd?$AA?$CI?$AA?$CJ@ 00000001800a4e50     libucrtd:fclose.obj
 0002:00005e70       ??_C@_1GA@DKNOMDCL@?$AAm?$AAi?$AAn?$AAk?$AAe?$AAr?$AAn?$AAe?$AAl?$AA?2?$AAc?$AAr?$AAt?$AAs?$AA?2@ 00000001800a4e70     libucrtd:fclose.obj
 0002:00005ed0       ??_C@_1DA@IHIKPHIN@?$AA_?$AAf?$AAc?$AAl?$AAo?$AAs?$AAe?$AA_?$AAn?$AAo?$AAl?$AAo?$AAc?$AAk?$AA_@ 00000001800a4ed0     libucrtd:fclose.obj
 0002:00005f00       ??_C@_1CC@LPELGHFC@?$AA_?$AAf?$AAc?$AAl?$AAo?$AAs?$AAe?$AA_?$AAi?$AAn?$AAt?$AAe?$AAr?$AAn?$AAa@ 00000001800a4f00     libucrtd:fclose.obj
 0002:00005f28       ??_C@_1DC@OGOLMDEL@?$AAp?$AAu?$AAb?$AAl?$AAi?$AAc?$AA_?$AAs?$AAt?$AAr?$AAe?$AAa?$AAm?$AA?5?$AA?$CB@ 00000001800a4f28     libucrtd:feoferr.obj
 0002:00005f60       ??_C@_1GC@CMLBJHAF@?$AAm?$AAi?$AAn?$AAk?$AAe?$AAr?$AAn?$AAe?$AAl?$AA?2?$AAc?$AAr?$AAt?$AAs?$AA?2@ 00000001800a4f60     libucrtd:feoferr.obj
 0002:00005fc8       ??_C@_19LPGIFIDB@?$AAf?$AAe?$AAo?$AAf@ 00000001800a4fc8     libucrtd:feoferr.obj
 0002:00005fd8       ??_C@_1O@MOPHEPGP@?$AAf?$AAe?$AAr?$AAr?$AAo?$AAr@ 00000001800a4fd8     libucrtd:feoferr.obj
 0002:00005ff0       ??_C@_1BDG@MKBKGHOH@?$AA?$CI?$AA?5?$AA?$CI?$AA_?$AAS?$AAt?$AAr?$AAe?$AAa?$AAm?$AA?4?$AAi?$AAs?$AA_?$AAs@ 00000001800a4ff0     libucrtd:fgetc.obj
 0002:00006130       ??_C@_1FO@HEEKIEFN@?$AAm?$AAi?$AAn?$AAk?$AAe?$AAr?$AAn?$AAe?$AAl?$AA?2?$AAc?$AAr?$AAt?$AAs?$AA?2@ 00000001800a5130     libucrtd:fgetc.obj
 0002:00006190       ??_C@_1BM@ODJEACKA@?$AA_?$AAf?$AAg?$AAe?$AAt?$AAc?$AA_?$AAn?$AAo?$AAl?$AAo?$AAc?$AAk@ 00000001800a5190     libucrtd:fgetc.obj
 0002:000061b0       ??_C@_1M@FBFFFGJE@?$AAf?$AAg?$AAe?$AAt?$AAc@ 00000001800a51b0     libucrtd:fgetc.obj
 0002:000061c0       ??_C@_1CE@JLIJLEKO@?$AAs?$AAt?$AAr?$AAe?$AAa?$AAm?$AA?5?$AA?$CB?$AA?$DN?$AA?5?$AAn?$AAu?$AAl?$AAl?$AAp@ 00000001800a51c0     libucrtd:fread.obj
 0002:000061f0       ??_C@_1FO@CIJKACCM@?$AAm?$AAi?$AAn?$AAk?$AAe?$AAr?$AAn?$AAe?$AAl?$AA?2?$AAc?$AAr?$AAt?$AAs?$AA?2@ 00000001800a51f0     libucrtd:fread.obj
 0002:00006250       ??_C@_1BA@CMLCEIGG@?$AAf?$AAr?$AAe?$AAa?$AAd?$AA_?$AAs@ 00000001800a5250     libucrtd:fread.obj
 0002:00006260       ??_C@_1CE@MCCHPLBM@?$AAb?$AAu?$AAf?$AAf?$AAe?$AAr?$AA?5?$AA?$CB?$AA?$DN?$AA?5?$AAn?$AAu?$AAl?$AAl?$AAp@ 00000001800a5260     libucrtd:fread.obj
 0002:00006288       ??_C@_1CA@IDPOGFL@?$AA_?$AAf?$AAr?$AAe?$AAa?$AAd?$AA_?$AAn?$AAo?$AAl?$AAo?$AAc?$AAk?$AA_?$AAs@ 00000001800a5288     libucrtd:fread.obj
 0002:000062b0       ??_C@_1FG@KLKDPCLL@?$AAe?$AAl?$AAe?$AAm?$AAe?$AAn?$AAt?$AA_?$AAc?$AAo?$AAu?$AAn?$AAt?$AA?5?$AA?$DM@ 00000001800a52b0     libucrtd:fread.obj
 0002:00006310       ??_C@_1LG@DCNDJCHK@?$AA?$CI?$AA?$CC?$AAI?$AAn?$AAc?$AAo?$AAn?$AAs?$AAi?$AAs?$AAt?$AAe?$AAn?$AAt?$AA?5@ 00000001800a5310     libucrtd:fread.obj
 0002:000063c8       ??_C@_1DA@DKEFLDMG@?$AA?$CI?$AA?$CC?$AAb?$AAu?$AAf?$AAf?$AAe?$AAr?$AA?5?$AAt?$AAo?$AAo?$AA?5?$AAs?$AAm@ 00000001800a53c8     libucrtd:fread.obj
 0002:00006420       ??_C@_1FO@KMPAKEKH@?$AAm?$AAi?$AAn?$AAk?$AAe?$AAr?$AAn?$AAe?$AAl?$AA?2?$AAc?$AAr?$AAt?$AAs?$AA?2@ 00000001800a5420     libucrtd:fseek.obj
 0002:00006480       ??_C@_1BK@HEPGDNON@?$AAc?$AAo?$AAm?$AAm?$AAo?$AAn?$AA_?$AAf?$AAs?$AAe?$AAe?$AAk@ 00000001800a5480     libucrtd:fseek.obj
 0002:000064a0       ??_C@_1HO@BJGCGJL@?$AAw?$AAh?$AAe?$AAn?$AAc?$AAe?$AA?5?$AA?$DN?$AA?$DN?$AA?5?$AAS?$AAE?$AAE?$AAK?$AA_@ 00000001800a54a0     libucrtd:fseek.obj
 0002:00006520       ??_C@_1CO@LBNDLIPC@?$AAs?$AAt?$AAr?$AAe?$AAa?$AAm?$AA?4?$AAp?$AAu?$AAb?$AAl?$AAi?$AAc?$AA_?$AAs@ 00000001800a5520     libucrtd:ftell.obj
 0002:00006550       ??_C@_1FO@JHBALIAM@?$AAm?$AAi?$AAn?$AAk?$AAe?$AAr?$AAn?$AAe?$AAl?$AA?2?$AAc?$AAr?$AAt?$AAs?$AA?2@ 00000001800a5550     libucrtd:ftell.obj
 0002:000065b0       ??_C@_1CI@MOKEPKDC@?$AAc?$AAo?$AAm?$AAm?$AAo?$AAn?$AA_?$AAf?$AAt?$AAe?$AAl?$AAl?$AA_?$AAn?$AAo@ 00000001800a55b0     libucrtd:ftell.obj
 0002:000065e0       ??_C@_1GM@EDHJGDLB@?$AA?$CI?$AAb?$AAu?$AAf?$AAf?$AAe?$AAr?$AA_?$AAl?$AAa?$AAs?$AAt?$AA?5?$AA?9?$AA?5@ 00000001800a55e0     libucrtd:ftell.obj
 0002:00006650       ??_C@_1BK@CMPCEPOF@?$AAc?$AAo?$AAm?$AAm?$AAo?$AAn?$AA_?$AAf?$AAt?$AAe?$AAl?$AAl@ 00000001800a5650     libucrtd:ftell.obj
 0002:00006670       ??_C@_1GA@JPJEOEOF@?$AAm?$AAi?$AAn?$AAk?$AAe?$AAr?$AAn?$AAe?$AAl?$AA?2?$AAc?$AAr?$AAt?$AAs?$AA?2@ 00000001800a5670     libucrtd:ungetc.obj
 0002:000066d0       ??_C@_1O@JDPLECOK@?$AAu?$AAn?$AAg?$AAe?$AAt?$AAc@ 00000001800a56d0     libucrtd:ungetc.obj
 0002:000066e0       ??_C@_1BO@OLMLKKEA@?$AA_?$AAu?$AAn?$AAg?$AAe?$AAt?$AAc?$AA_?$AAn?$AAo?$AAl?$AAo?$AAc?$AAk@ 00000001800a56e0     libucrtd:ungetc.obj
 0002:00006700       ??_C@_1FE@LHBLIKM@?$AAA?$AAs?$AAs?$AAe?$AAr?$AAt?$AAi?$AAo?$AAn?$AA?5?$AAf?$AAa?$AAi?$AAl?$AAe@ 00000001800a5700     libucrtd:assert.obj
 0002:00006760       ??_C@_1EK@MBDPDCGA@?$AAM?$AAi?$AAc?$AAr?$AAo?$AAs?$AAo?$AAf?$AAt?$AA?5?$AAV?$AAi?$AAs?$AAu?$AAa@ 00000001800a5760     libucrtd:assert.obj
 0002:000067b0       ??_C@_0BC@LAIDCHCH@Assertion?5failed?$CB@ 00000001800a57b0     libucrtd:assert.obj
 0002:000067c8       ??_C@_1CE@OJBNHDMO@?$AAA?$AAs?$AAs?$AAe?$AAr?$AAt?$AAi?$AAo?$AAn?$AA?5?$AAf?$AAa?$AAi?$AAl?$AAe@ 00000001800a57c8     libucrtd:assert.obj
 0002:000067f0       ??_C@_1BE@PHKBBGE@?$AAP?$AAr?$AAo?$AAg?$AAr?$AAa?$AAm?$AA?3?$AA?5@ 00000001800a57f0     libucrtd:assert.obj
 0002:00006808       ??_C@_1O@HEMHKNDC@?$AAF?$AAi?$AAl?$AAe?$AA?3?$AA?5@ 00000001800a5808     libucrtd:assert.obj
 0002:00006818       ??_C@_1O@KCAFKHJE@?$AAL?$AAi?$AAn?$AAe?$AA?3?$AA?5@ 00000001800a5818     libucrtd:assert.obj
 0002:00006828       ??_C@_1BK@PEDCIPMA@?$AAE?$AAx?$AAp?$AAr?$AAe?$AAs?$AAs?$AAi?$AAo?$AAn?$AA?3?$AA?5@ 00000001800a5828     libucrtd:assert.obj
 0002:00006850       ??_C@_1OA@EGMLFBHJ@?$AAF?$AAo?$AAr?$AA?5?$AAi?$AAn?$AAf?$AAo?$AAr?$AAm?$AAa?$AAt?$AAi?$AAo?$AAn@ 00000001800a5850     libucrtd:assert.obj
 0002:00006930       ??_C@_1HK@POCJMFGK@?$AA?$CI?$AAP?$AAr?$AAe?$AAs?$AAs?$AA?5?$AAR?$AAe?$AAt?$AAr?$AAy?$AA?5?$AAt?$AAo@ 00000001800a5930     libucrtd:assert.obj
 0002:000069b0       ??_C@_17LGKOMLJ@?$AA?4?$AA?4?$AA?4@ 00000001800a59b0     libucrtd:assert.obj
 0002:000069b8       ??_C@_01EEMJAFIK@?6@       00000001800a59b8     libucrtd:assert.obj
 0002:000069bc       ??_C@_13LBAGMAIH@?$AA?6@   00000001800a59bc     libucrtd:assert.obj
 0002:000069c0       ??_C@_15IABLJNFO@?$AA?6?$AA?6@ 00000001800a59c0     libucrtd:assert.obj
 0002:000069c8       ??_C@_0BH@DNAGHKFM@?$DMprogram?5name?5unknown?$DO@ 00000001800a59c8     libucrtd:assert.obj
 0002:000069e0       ??_C@_1CO@EAEJAADC@?$AA?$DM?$AAp?$AAr?$AAo?$AAg?$AAr?$AAa?$AAm?$AA?5?$AAn?$AAa?$AAm?$AAe?$AA?5?$AAu@ 00000001800a59e0     libucrtd:assert.obj
 0002:00006a10       ??_C@_1GE@PMLOPPED@?$AAm?$AAi?$AAn?$AAk?$AAe?$AAr?$AAn?$AAe?$AAl?$AA?2?$AAc?$AAr?$AAt?$AAs?$AA?2@ 00000001800a5a10     libucrtd:assert.obj
 0002:00006a80       ??_C@_1FE@LPBNNEBB@?$AAc?$AAo?$AAm?$AAm?$AAo?$AAn?$AA_?$AAa?$AAs?$AAs?$AAe?$AAr?$AAt?$AA_?$AAt@ 00000001800a5a80     libucrtd:assert.obj
 0002:00006ae0       ??_C@_1KC@PIMENJIN@?$AAt?$AAr?$AAa?$AAi?$AAt?$AAs?$AA?3?$AA?3?$AAt?$AAc?$AAs?$AAc?$AAp?$AAy?$AA_@ 00000001800a5ae0     libucrtd:assert.obj
 0002:00006b90       ??_C@_1KM@HGCBPADM@?$AAt?$AAr?$AAa?$AAi?$AAt?$AAs?$AA?3?$AA?3?$AAt?$AAc?$AAs?$AAc?$AAa?$AAt?$AA_@ 00000001800a5b90     libucrtd:assert.obj
 0002:00006c40       ??_C@_1KK@KDENILFB@?$AAt?$AAr?$AAa?$AAi?$AAt?$AAs?$AA?3?$AA?3?$AAt?$AAc?$AAs?$AAc?$AAa?$AAt?$AA_@ 00000001800a5c40     libucrtd:assert.obj
 0002:00006cf0       ??_C@_1PE@ECNALGCA@?$AAt?$AAr?$AAa?$AAi?$AAt?$AAs?$AA?3?$AA?3?$AAt?$AAc?$AAs?$AAc?$AAp?$AAy?$AA_@ 00000001800a5cf0     libucrtd:assert.obj
 0002:00006df0       ??_C@_1BCM@OLNPCNDL@?$AAm?$AAe?$AAm?$AAc?$AAp?$AAy?$AA_?$AAs?$AA?$CI?$AA?5?$AAp?$AAc?$AAh?$AAP?$AAr@ 00000001800a5df0     libucrtd:assert.obj
 0002:00006f20       ??_C@_1HM@LGKHMJCC@?$AAt?$AAr?$AAa?$AAi?$AAt?$AAs?$AA?3?$AA?3?$AAt?$AAc?$AAs?$AAc?$AAa?$AAt?$AA_@ 00000001800a5f20     libucrtd:assert.obj
 0002:00006fa0       ??_C@_1JO@KJEGDHLC@?$AAt?$AAr?$AAa?$AAi?$AAt?$AAs?$AA?3?$AA?3?$AAt?$AAc?$AAs?$AAc?$AAa?$AAt?$AA_@ 00000001800a5fa0     libucrtd:assert.obj
 0002:00007040       ??_C@_1KE@NJCNOBGA@?$AAt?$AAr?$AAa?$AAi?$AAt?$AAs?$AA?3?$AA?3?$AAt?$AAc?$AAs?$AAc?$AAa?$AAt?$AA_@ 00000001800a6040     libucrtd:assert.obj
 0002:000070f0       ??_C@_1LC@HKLLCKBM@?$AAt?$AAr?$AAa?$AAi?$AAt?$AAs?$AA?3?$AA?3?$AAt?$AAc?$AAs?$AAn?$AAc?$AAa?$AAt@ 00000001800a60f0     libucrtd:assert.obj
 0002:000071b0       ??_C@_1KI@JBNHIIKF@?$AAt?$AAr?$AAa?$AAi?$AAt?$AAs?$AA?3?$AA?3?$AAt?$AAc?$AAs?$AAc?$AAa?$AAt?$AA_@ 00000001800a61b0     libucrtd:assert.obj
 0002:00007260       ??_C@_1IK@KKBPPOFO@?$AAt?$AAr?$AAa?$AAi?$AAt?$AAs?$AA?3?$AA?3?$AAt?$AAc?$AAs?$AAc?$AAa?$AAt?$AA_@ 00000001800a6260     libucrtd:assert.obj
 0002:000072f0       ??_C@_1LO@BFIEBOKI@?$AAt?$AAr?$AAa?$AAi?$AAt?$AAs?$AA?3?$AA?3?$AAt?$AAc?$AAs?$AAn?$AAc?$AAa?$AAt@ 00000001800a62f0     libucrtd:assert.obj
 0002:000073b0       ??_C@_1KE@OEANDPDB@?$AAt?$AAr?$AAa?$AAi?$AAt?$AAs?$AA?3?$AA?3?$AAt?$AAc?$AAs?$AAn?$AAc?$AAa?$AAt@ 00000001800a63b0     libucrtd:assert.obj
 0002:00007460       ??_C@_1LG@LMABGFBP@?$AAt?$AAr?$AAa?$AAi?$AAt?$AAs?$AA?3?$AA?3?$AAt?$AAc?$AAs?$AAc?$AAa?$AAt?$AA_@ 00000001800a6460     libucrtd:assert.obj
 0002:00007520       ??_C@_1IA@JPAKIPAA@?$AAt?$AAr?$AAa?$AAi?$AAt?$AAs?$AA?3?$AA?3?$AAt?$AAc?$AAs?$AAc?$AAa?$AAt?$AA_@ 00000001800a6520     libucrtd:assert.obj
 0002:000075a0       ??_C@_1KE@PADDJOL@?$AAt?$AAr?$AAa?$AAi?$AAt?$AAs?$AA?3?$AA?3?$AAt?$AAc?$AAs?$AAc?$AAa?$AAt?$AA_@ 00000001800a65a0     libucrtd:assert.obj
 0002:00007650       ??_C@_1BAK@NPHNFBPH@?$AAt?$AAr?$AAa?$AAi?$AAt?$AAs?$AA?3?$AA?3?$AAi?$AAt?$AAo?$AAt?$AA_?$AAs?$AA?$CI@ 00000001800a6650     libucrtd:assert.obj
 0002:00007760       ??_C@_1LA@JOKMAPHG@?$AAt?$AAr?$AAa?$AAi?$AAt?$AAs?$AA?3?$AA?3?$AAt?$AAc?$AAs?$AAc?$AAa?$AAt?$AA_@ 00000001800a6760     libucrtd:assert.obj
 0002:00007810       ??_C@_1LA@IFFOJJCK@?$AAt?$AAr?$AAa?$AAi?$AAt?$AAs?$AA?3?$AA?3?$AAt?$AAc?$AAs?$AAn?$AAc?$AAa?$AAt@ 00000001800a6810     libucrtd:assert.obj
 0002:000078c0       ??_C@_1KG@MFCBNPOK@?$AAt?$AAr?$AAa?$AAi?$AAt?$AAs?$AA?3?$AA?3?$AAt?$AAc?$AAs?$AAc?$AAa?$AAt?$AA_@ 00000001800a68c0     libucrtd:assert.obj
 0002:00007970       ??_C@_1IC@EDHOAOJ@?$AAt?$AAr?$AAa?$AAi?$AAt?$AAs?$AA?3?$AA?3?$AAt?$AAc?$AAs?$AAc?$AAa?$AAt?$AA_@ 00000001800a6970     libucrtd:assert.obj
 0002:00007a00       ??_C@_1KE@NALOKOIG@?$AAt?$AAr?$AAa?$AAi?$AAt?$AAs?$AA?3?$AA?3?$AAt?$AAc?$AAs?$AAc?$AAa?$AAt?$AA_@ 00000001800a6a00     libucrtd:assert.obj
 0002:00007ab0       ??_C@_1KE@GGOFBC@?$AAt?$AAr?$AAa?$AAi?$AAt?$AAs?$AA?3?$AA?3?$AAt?$AAc?$AAs?$AAc?$AAa?$AAt?$AA_@ 00000001800a6ab0     libucrtd:assert.obj
 0002:00007b70       ??_C@_05FFFCHCED@acosf@    00000001800a6b70     libucrtd:acosf.obj
 0002:00007b78       __real@3b81ce6b            00000001800a6b78     libucrtd:acosf.obj
 0002:00007b7c       __real@3e3c94dc            00000001800a6b7c     libucrtd:acosf.obj
 0002:00007b80       __real@3f561f0d            00000001800a6b80     libucrtd:acosf.obj
 0002:00007b84       __real@3f8d6fa5            00000001800a6b84     libucrtd:acosf.obj
 0002:00007b88       __real@4000000000000000    00000001800a6b88     libucrtd:acosf.obj
 0002:00007b90       __real@bc5b3fe1            00000001800a6b90     libucrtd:acosf.obj
 0002:00007b94       __real@bd678bdd            00000001800a6b94     libucrtd:acosf.obj
 0002:00007d9c       ??_C@_05OOAOEJGP@fmodf@    00000001800a6d9c     libucrtd:fmodf.obj
 0002:00007db0       __xmm@80000000000000008000000000000000 00000001800a6db0     libucrtd:fmodf.obj
 0002:00009a68       ??_C@_05KGFAIMPG@sqrtf@    00000001800a8a68     libucrtd:sqrtf.obj
 0002:00009b60       __acrt_exception_action_table 00000001800a8b60     libucrtd:exception_filter.obj
 0002:00009c20       __acrt_signal_action_table_count 00000001800a8c20     libucrtd:exception_filter.obj
 0002:00009c28       __acrt_signal_action_first_fpe_index 00000001800a8c28     libucrtd:exception_filter.obj
 0002:00009c30       __acrt_signal_action_fpe_count 00000001800a8c30     libucrtd:exception_filter.obj
 0002:00009cb0       ??_C@_1BI@BGOHAHKC@?$AAm?$AAs?$AAc?$AAo?$AAr?$AAe?$AAe?$AA?4?$AAd?$AAl?$AAl@ 00000001800a8cb0     libucrtd:exit.obj
 0002:00009cc8       ??_C@_0P@MIGLKIOC@CorExitProcess@ 00000001800a8cc8     libucrtd:exit.obj
 0002:00009d00       ??_C@_0DI@KNDIGDEP@minkernel?2crts?2ucrt?2src?2appcrt?2@ 00000001800a8d00     libucrtd:argv_parsing.obj
 0002:00009d40       ??_C@_1JO@PGBIJBAM@?$AAm?$AAo?$AAd?$AAe?$AA?5?$AA?$DN?$AA?$DN?$AA?5?$AA_?$AAc?$AAr?$AAt?$AA_?$AAa?$AAr@ 00000001800a8d40     libucrtd:argv_parsing.obj
 0002:00009de0       ??_C@_1HA@JMLCANEE@?$AAm?$AAi?$AAn?$AAk?$AAe?$AAr?$AAn?$AAe?$AAl?$AA?2?$AAc?$AAr?$AAt?$AAs?$AA?2@ 00000001800a8de0     libucrtd:argv_parsing.obj
 0002:00009e50       ??_C@_1CM@LHOJELIC@?$AAc?$AAo?$AAm?$AAm?$AAo?$AAn?$AA_?$AAc?$AAo?$AAn?$AAf?$AAi?$AAg?$AAu?$AAr@ 00000001800a8e50     libucrtd:argv_parsing.obj
 0002:00009ed0       ??_C@_0EG@LEHKHOEH@minkernel?2crts?2ucrt?2src?2desktop@ 00000001800a8ed0     libucrtd:environment_initialization.obj
 0002:00009f20       ??_C@_1IM@IMOFFPLG@?$AAm?$AAi?$AAn?$AAk?$AAe?$AAr?$AAn?$AAe?$AAl?$AA?2?$AAc?$AAr?$AAt?$AAs?$AA?2@ 00000001800a8f20     libucrtd:environment_initialization.obj
 0002:00009fb0       ??_C@_1CG@MNNNBNAK@?$AAc?$AAr?$AAe?$AAa?$AAt?$AAe?$AA_?$AAe?$AAn?$AAv?$AAi?$AAr?$AAo?$AAn?$AAm@ 00000001800a8fb0     libucrtd:environment_initialization.obj
 0002:00009fe0       ??_C@_1HI@OOPIFFGA@?$AAt?$AAr?$AAa?$AAi?$AAt?$AAs?$AA?3?$AA?3?$AAt?$AAc?$AAs?$AAc?$AAp?$AAy?$AA_@ 00000001800a8fe0     libucrtd:environment_initialization.obj
 0002:0000a200       ??_C@_04HJMOFLDF@Free@     00000001800a9200     libucrtd:debug_heap.obj
 0002:0000a208       ??_C@_06EFAGIKOH@Normal@   00000001800a9208     libucrtd:debug_heap.obj
 0002:0000a210       ??_C@_03OGPFLFLO@CRT@      00000001800a9210     libucrtd:debug_heap.obj
 0002:0000a214       ??_C@_06KMEJCCGM@Ignore@   00000001800a9214     libucrtd:debug_heap.obj
 0002:0000a21c       ??_C@_06PJIGMIJB@Client@   00000001800a921c     libucrtd:debug_heap.obj
 0002:0000a2a0       ??_C@_1CE@LJFEPPMP@?$AA_?$AAC?$AAr?$AAt?$AAC?$AAh?$AAe?$AAc?$AAk?$AAM?$AAe?$AAm?$AAo?$AAr?$AAy@ 00000001800a92a0     libucrtd:debug_heap.obj
 0002:0000a2d0       ??_C@_1GG@OCLHPJPK@?$AAm?$AAi?$AAn?$AAk?$AAe?$AAr?$AAn?$AAe?$AAl?$AA?2?$AAc?$AAr?$AAt?$AAs?$AA?2@ 00000001800a92d0     libucrtd:debug_heap.obj
 0002:0000a338       ??_C@_0DF@BBEGIFEK@Client?5hook?5allocation?5failure?5@ 00000001800a9338     libucrtd:debug_heap.obj
 0002:0000a370       ??_C@_0CB@CCLOLAHO@Client?5hook?5allocation?5failure?4@ 00000001800a9370     libucrtd:debug_heap.obj
 0002:0000a394       ??_C@_02DKCKIIND@?$CFs@    00000001800a9394     libucrtd:debug_heap.obj
 0002:0000a398       ??_C@_0DC@JEMAGEKG@Error?3?5memory?5allocation?3?5bad?5m@ 00000001800a9398     libucrtd:debug_heap.obj
 0002:0000a3d0       ??_C@_0DI@KKJPDPGM@Client?5hook?5re?9allocation?5failu@ 00000001800a93d0     libucrtd:debug_heap.obj
 0002:0000a408       ??_C@_0CE@DOFMDOL@Client?5hook?5re?9allocation?5failu@ 00000001800a9408     libucrtd:debug_heap.obj
 0002:0000a430       ??_C@_0FA@EFEIGJKG@Error?3?5memory?5allocation?3?5bad?5m@ 00000001800a9430     libucrtd:debug_heap.obj
 0002:0000a480       ??_C@_0EM@LGFLMAGJ@The?5Block?5at?50x?$CFp?5was?5allocated@ 00000001800a9480     libucrtd:debug_heap.obj
 0002:0000a4d0       ??_C@_1DM@DEDLGNML@?$AA_?$AAC?$AAr?$AAt?$AAI?$AAs?$AAV?$AAa?$AAl?$AAi?$AAd?$AAH?$AAe?$AAa?$AAp@ 00000001800a94d0     libucrtd:debug_heap.obj
 0002:0000a510       ??_C@_1PC@MCGKJLN@?$AAo?$AAl?$AAd?$AA_?$AAh?$AAe?$AAa?$AAd?$AA?9?$AA?$DO?$AA_?$AAl?$AAi?$AAn?$AAe@ 00000001800a9510     libucrtd:debug_heap.obj
 0002:0000a608       ??_C@_0DA@HFBKENN@Error?3?5possible?5heap?5corruption@ 00000001800a9608     libucrtd:debug_heap.obj
 0002:0000a640       ??_C@_1JM@MCMEPJEP@?$AAr?$AAe?$AAa?$AAl?$AAl?$AAo?$AAc?$AAa?$AAt?$AAi?$AAo?$AAn?$AA_?$AAi?$AAs@ 00000001800a9640     libucrtd:debug_heap.obj
 0002:0000a6e0       ??_C@_1DM@LNOPKAIJ@?$AA_?$AA_?$AAa?$AAc?$AAr?$AAt?$AA_?$AAl?$AAa?$AAs?$AAt?$AA_?$AAb?$AAl?$AAo@ 00000001800a96e0     libucrtd:debug_heap.obj
 0002:0000a720       ??_C@_1DO@HABCJBHO@?$AA_?$AA_?$AAa?$AAc?$AAr?$AAt?$AA_?$AAf?$AAi?$AAr?$AAs?$AAt?$AA_?$AAb?$AAl@ 00000001800a9720     libucrtd:debug_heap.obj
 0002:0000a760       ??_C@_1CC@CKEAHJPH@?$AAb?$AAl?$AAo?$AAc?$AAk?$AA?5?$AA?$CB?$AA?$DN?$AA?5?$AAn?$AAu?$AAl?$AAl?$AAp?$AAt@ 00000001800a9760     libucrtd:debug_heap.obj
 0002:0000a790       ??_C@_0EJ@HEIBCIMJ@The?5Block?5at?50x?$CFp?5was?5allocated@ 00000001800a9790     libucrtd:debug_heap.obj
 0002:0000a7e0       ??_C@_0BL@KEIPLFAC@Client?5hook?5free?5failure?4?6@ 00000001800a97e0     libucrtd:debug_heap.obj
 0002:0000a800       ??_C@_1FA@KDNEBILF@?$AAi?$AAs?$AA_?$AAb?$AAl?$AAo?$AAc?$AAk?$AA_?$AAt?$AAy?$AAp?$AAe?$AA_?$AAv@ 00000001800a9800     libucrtd:debug_heap.obj
 0002:0000a850       ??_C@_0KI@JGFOHMEB@HEAP?5CORRUPTION?5DETECTED?3?5befor@ 00000001800a9850     libucrtd:debug_heap.obj
 0002:0000a900       ??_C@_0IK@PJCGLBOB@HEAP?5CORRUPTION?5DETECTED?3?5befor@ 00000001800a9900     libucrtd:debug_heap.obj
 0002:0000a990       ??_C@_0KE@MBMNHHHN@HEAP?5CORRUPTION?5DETECTED?3?5after@ 00000001800a9990     libucrtd:debug_heap.obj
 0002:0000aa40       ??_C@_0IG@LEMBDCJK@HEAP?5CORRUPTION?5DETECTED?3?5after@ 00000001800a9a40     libucrtd:debug_heap.obj
 0002:0000aad0       ??_C@_1OK@GFEOEJAF@?$AAh?$AAe?$AAa?$AAd?$AAe?$AAr?$AA?9?$AA?$DO?$AA_?$AAl?$AAi?$AAn?$AAe?$AA_?$AAn@ 00000001800a9ad0     libucrtd:debug_heap.obj
 0002:0000abc0       ??_C@_1ME@GFALMLNA@?$AAh?$AAe?$AAa?$AAd?$AAe?$AAr?$AA?9?$AA?$DO?$AA_?$AAb?$AAl?$AAo?$AAc?$AAk?$AA_@ 00000001800a9bc0     libucrtd:debug_heap.obj
 0002:0000ac88       ??_C@_1DI@ILNOPEPI@?$AA_?$AA_?$AAa?$AAc?$AAr?$AAt?$AA_?$AAl?$AAa?$AAs?$AAt?$AA_?$AAb?$AAl?$AAo@ 00000001800a9c88     libucrtd:debug_heap.obj
 0002:0000acc0       ??_C@_1DK@KEHFGDIJ@?$AA_?$AA_?$AAa?$AAc?$AAr?$AAt?$AA_?$AAf?$AAi?$AAr?$AAs?$AAt?$AA_?$AAb?$AAl@ 00000001800a9cc0     libucrtd:debug_heap.obj
 0002:0000ad00       ??_C@_1BG@MBKOGDLD@?$AA_?$AAm?$AAs?$AAi?$AAz?$AAe?$AA_?$AAd?$AAb?$AAg@ 00000001800a9d00     libucrtd:debug_heap.obj
 0002:0000ad18       ??_C@_07OHKEFPKJ@DAMAGED@  00000001800a9d18     libucrtd:debug_heap.obj
 0002:0000ad20       ??_C@_0KA@IHNJJKPL@HEAP?5CORRUPTION?5DETECTED?3?5on?5to@ 00000001800a9d20     libucrtd:debug_heap.obj
 0002:0000adc0       ??_C@_0IC@BBJIOOJH@HEAP?5CORRUPTION?5DETECTED?3?5on?5to@ 00000001800a9dc0     libucrtd:debug_heap.obj
 0002:0000ae50       ??_C@_0EG@DGJMPDBH@?$CFhs?5located?5at?50x?$CFp?5is?5?$CFIu?5byte@ 00000001800a9e50     libucrtd:debug_heap.obj
 0002:0000ae98       ??_C@_0CI@JMLBEDHJ@?$CFhs?5located?5at?50x?$CFp?5is?5?$CFIu?5byte@ 00000001800a9e98     libucrtd:debug_heap.obj
 0002:0000aec0       ??_C@_0EG@GPFHANHO@Cycle?5in?5block?5list?5detected?5wh@ 00000001800a9ec0     libucrtd:debug_heap.obj
 0002:0000af08       ??_C@_0BJ@ELMAOCAJ@Heap?5validation?5failed?4?6@ 00000001800a9f08     libucrtd:debug_heap.obj
 0002:0000af30       ??_C@_1IE@BBIFDGEB@?$AAn?$AAe?$AAw?$AA_?$AAb?$AAi?$AAt?$AAs?$AA?5?$AA?$DN?$AA?$DN?$AA?5?$AA_?$AAC?$AAR@ 00000001800a9f30     libucrtd:debug_heap.obj
 0002:0000afb8       ??_C@_1BO@GJFDNMNF@?$AA_?$AAC?$AAr?$AAt?$AAS?$AAe?$AAt?$AAD?$AAb?$AAg?$AAF?$AAl?$AAa?$AAg@ 00000001800a9fb8     libucrtd:debug_heap.obj
 0002:0000afd8       ??_C@_1CC@BBKMONGA@?$AAs?$AAt?$AAa?$AAt?$AAe?$AA?5?$AA?$CB?$AA?$DN?$AA?5?$AAn?$AAu?$AAl?$AAl?$AAp?$AAt@ 00000001800a9fd8     libucrtd:debug_heap.obj
 0002:0000b000       ??_C@_1CE@NJJKELF@?$AA_?$AAC?$AAr?$AAt?$AAM?$AAe?$AAm?$AAC?$AAh?$AAe?$AAc?$AAk?$AAp?$AAo?$AAi@ 00000001800aa000     libucrtd:debug_heap.obj
 0002:0000b028       ??_C@_0DP@LEFMFBOD@Bad?5memory?5block?5found?5at?50x?$CFp?4@ 00000001800aa028     libucrtd:debug_heap.obj
 0002:0000b068       ??_C@_0CB@EAAIGELO@Bad?5memory?5block?5found?5at?50x?$CFp?4@ 00000001800aa068     libucrtd:debug_heap.obj
 0002:0000b08c       ??_C@_05MKKEDADM@?$CF?42X?5@ 00000001800aa08c     libucrtd:debug_heap.obj
 0002:0000b098       ??_C@_1CC@DIJAHFFJ@?$AAp?$AAr?$AAi?$AAn?$AAt?$AA_?$AAb?$AAl?$AAo?$AAc?$AAk?$AA_?$AAd?$AAa?$AAt@ 00000001800aa098     libucrtd:debug_heap.obj
 0002:0000b0c0       ??_C@_1BI@KALLJECN@?$AA?$CI?$AA?$CK?$AA_?$AAe?$AAr?$AAr?$AAn?$AAo?$AA?$CI?$AA?$CJ?$AA?$CJ@ 00000001800aa0c0     libucrtd:debug_heap.obj
 0002:0000b0d8       ??_C@_0BA@HJBKCELP@?5Data?3?5?$DM?$CFs?$DO?5?$CFs?6@ 00000001800aa0d8     libucrtd:debug_heap.obj
 0002:0000b0e8       ??_C@_0BE@KCIPKCIA@Dumping?5objects?5?9?$DO?6@ 00000001800aa0e8     libucrtd:debug_heap.obj
 0002:0000b100       ??_C@_0BE@OIEFNFL@?$CDFile?5Error?$CD?$CI?$CFd?$CJ?5?3?5@ 00000001800aa100     libucrtd:debug_heap.obj
 0002:0000b118       ??_C@_0L@JMEFFCCJ@?$CFhs?$CI?$CFd?$CJ?5?3?5@ 00000001800aa118     libucrtd:debug_heap.obj
 0002:0000b124       ??_C@_06PKLGBFGM@?$HL?$CFld?$HN?5@ 00000001800aa124     libucrtd:debug_heap.obj
 0002:0000b130       ??_C@_0DD@GHNAAKBB@client?5block?5at?50x?$CFp?0?5subtype?5?$CF@ 00000001800aa130     libucrtd:debug_heap.obj
 0002:0000b168       ??_C@_0CH@FAGDDGPN@normal?5block?5at?50x?$CFp?0?5?$CFIu?5bytes@ 00000001800aa168     libucrtd:debug_heap.obj
 0002:0000b190       ??_C@_0DA@MDLBNIBM@crt?5block?5at?50x?$CFp?0?5subtype?5?$CFx?0?5@ 00000001800aa190     libucrtd:debug_heap.obj
 0002:0000b1c0       ??_C@_0BH@GFGKJDCO@Object?5dump?5complete?4?6@ 00000001800aa1c0     libucrtd:debug_heap.obj
 0002:0000b1d8       ??_C@_0BI@JBFPOEJA@Detected?5memory?5leaks?$CB?6@ 00000001800aa1d8     libucrtd:debug_heap.obj
 0002:0000b1f0       ??_C@_1GI@BBAEIKL@?$AA?$CI?$AA?$CI?$AAd?$AAe?$AAs?$AAt?$AAi?$AAn?$AAa?$AAt?$AAi?$AAo?$AAn?$AA?$CJ?$AA?$CJ@ 00000001800aa1f0     libucrtd:strcpy_s.obj
 0002:0000b260       ??_C@_1HI@PBJPCEBC@?$AAm?$AAi?$AAn?$AAk?$AAe?$AAr?$AAn?$AAe?$AAl?$AA?2?$AAc?$AAr?$AAt?$AAs?$AA?2@ 00000001800aa260     libucrtd:strcpy_s.obj
 0002:0000b2d8       ??_C@_1CA@FHIAGDFH@?$AAc?$AAo?$AAm?$AAm?$AAo?$AAn?$AA_?$AAt?$AAc?$AAs?$AAc?$AAp?$AAy?$AA_?$AAs@ 00000001800aa2d8     libucrtd:strcpy_s.obj
 0002:0000b2f8       ??_C@_1CK@EIOKGPJL@?$AA?$CI?$AA?$CI?$AA?$CI?$AAs?$AAo?$AAu?$AAr?$AAc?$AAe?$AA?$CJ?$AA?$CJ?$AA?$CJ?$AA?5?$AA?$CB?$AA?$DN@ 00000001800aa2f8     libucrtd:strcpy_s.obj
 0002:0000b328       ??_C@_1CI@HCPHDDLE@?$AAB?$AAu?$AAf?$AAf?$AAe?$AAr?$AA?5?$AAi?$AAs?$AA?5?$AAt?$AAo?$AAo?$AA?5?$AAs@ 00000001800aa328     libucrtd:strcpy_s.obj
 0002:0000b350       ??_C@_1DM@MADKGDLO@?$AA?$CI?$AAL?$AA?$CC?$AAB?$AAu?$AAf?$AAf?$AAe?$AAr?$AA?5?$AAi?$AAs?$AA?5?$AAt?$AAo@ 00000001800aa350     libucrtd:strcpy_s.obj
 0002:0000b390       ?standard_lookup_table_spectre@__crt_stdio_output@@3V?$spectre_mitigated_lookup_table@Ustate_transition_pair@__crt_stdio_output@@$0IA@@1@B 00000001800aa390     libucrtd:output.obj
 0002:0000b490       ?format_validation_lookup_table_spectre@__crt_stdio_output@@3V?$spectre_mitigated_lookup_table@Ustate_transition_pair@__crt_stdio_output@@$0IA@@1@B 00000001800aa490     libucrtd:output.obj
 0002:0000b700       ??_C@_1GC@LCDLABEA@?$AAm?$AAi?$AAn?$AAk?$AAe?$AAr?$AAn?$AAe?$AAl?$AA?2?$AAc?$AAr?$AAt?$AAs?$AA?2@ 00000001800aa700     libucrtd:output.obj
 0002:0000b770       ??_C@_1GA@MOBAPGIO@?$AAm?$AAi?$AAn?$AAk?$AAe?$AAr?$AAn?$AAe?$AAl?$AA?2?$AAc?$AAr?$AAt?$AAs?$AA?2@ 00000001800aa770     libucrtd:output.obj
 0002:0000b7d0       ??_C@_1CA@GELIJBMC@?$AAc?$AAo?$AAm?$AAm?$AAo?$AAn?$AA_?$AAv?$AAf?$AAp?$AAr?$AAi?$AAn?$AAt?$AAf@ 00000001800aa7d0     libucrtd:output.obj
 0002:0000b7f0       ??_C@_1CE@EAKLPBKK@?$AAf?$AAo?$AAr?$AAm?$AAa?$AAt?$AA?5?$AA?$CB?$AA?$DN?$AA?5?$AAn?$AAu?$AAl?$AAl?$AAp@ 00000001800aa7f0     libucrtd:output.obj
 0002:0000b818       ??_C@_1CA@PIMGHCEK@?$AAc?$AAo?$AAm?$AAm?$AAo?$AAn?$AA_?$AAv?$AAs?$AAp?$AAr?$AAi?$AAn?$AAt?$AAf@ 00000001800aa818     libucrtd:output.obj
 0002:0000b840       ??_C@_1EO@EGEEFEFM@?$AAb?$AAu?$AAf?$AAf?$AAe?$AAr?$AA_?$AAc?$AAo?$AAu?$AAn?$AAt?$AA?5?$AA?$DN?$AA?$DN@ 00000001800aa840     libucrtd:output.obj
 0002:0000b890       ??_C@_1CE@JEILLNB@?$AAc?$AAo?$AAm?$AAm?$AAo?$AAn?$AA_?$AAv?$AAs?$AAp?$AAr?$AAi?$AAn?$AAt?$AAf@ 00000001800aa890     libucrtd:output.obj
 0002:0000b8c0       ??_C@_1EM@OAFHAOLH@?$AAb?$AAu?$AAf?$AAf?$AAe?$AAr?$AA?5?$AA?$CB?$AA?$DN?$AA?5?$AAn?$AAu?$AAl?$AAl?$AAp@ 00000001800aa8c0     libucrtd:output.obj
 0002:0000b910       ??_C@_1DA@HPBFKMEB@?$AA?$CI?$AA?$CC?$AAB?$AAu?$AAf?$AAf?$AAe?$AAr?$AA?5?$AAt?$AAo?$AAo?$AA?5?$AAs?$AAm@ 00000001800aa910     libucrtd:output.obj
 0002:0000b940       ??_C@_1CG@LHFJHFBB@?$AAc?$AAo?$AAm?$AAm?$AAo?$AAn?$AA_?$AAv?$AAs?$AAn?$AAp?$AAr?$AAi?$AAn?$AAt@ 00000001800aa940     libucrtd:output.obj
 0002:0000b968       ??_C@_1CM@JOIJBMEM@?$AA_?$AAf?$AAo?$AAr?$AAm?$AAa?$AAt?$AA_?$AAi?$AAt?$AA?5?$AA?$CB?$AA?$DN?$AA?5?$AAn@ 00000001800aa968     libucrtd:output.obj
 0002:0000b9a0       ??_C@_1HA@DMAAKIJP@?$AAm?$AAi?$AAn?$AAk?$AAe?$AAr?$AAn?$AAe?$AAl?$AA?2?$AAc?$AAr?$AAt?$AAs?$AA?2@ 00000001800aa9a0     libucrtd:output.obj
 0002:0000ba10       ??_C@_1EE@DMAIGNBG@?$AA?$CI?$AA?$CC?$AAI?$AAn?$AAc?$AAo?$AAr?$AAr?$AAe?$AAc?$AAt?$AA?5?$AAf?$AAo?$AAr@ 00000001800aaa10     libucrtd:output.obj
 0002:0000ba60       ??_C@_1BLI@IKDKMDHI@?$AA_?$AA_?$AAc?$AAr?$AAt?$AA_?$AAs?$AAt?$AAd?$AAi?$AAo?$AA_?$AAo?$AAu?$AAt@ 00000001800aaa60     libucrtd:output.obj
 0002:0000bc20       ??_C@_1BLI@EEAAPJD@?$AA_?$AA_?$AAc?$AAr?$AAt?$AA_?$AAs?$AAt?$AAd?$AAi?$AAo?$AA_?$AAo?$AAu?$AAt@ 00000001800aac20     libucrtd:output.obj
 0002:0000bde0       ??_C@_1FG@OBJBDPAC@?$AA?$CI?$AA?$CC?$AAN?$AA?5?$AAl?$AAe?$AAn?$AAg?$AAt?$AAh?$AA?5?$AAm?$AAo?$AAd?$AAi@ 00000001800aade0     libucrtd:output.obj
 0002:0000be40       ??_C@_1EC@GJPNJDCN@?$AA_?$AAl?$AAe?$AAn?$AAg?$AAt?$AAh?$AA?5?$AA?$DN?$AA?$DN?$AA?5?$AAl?$AAe?$AAn?$AAg@ 00000001800aae40     libucrtd:output.obj
 0002:0000be88       ??_C@_1DG@CEJKFDMO@?$AAs?$AAt?$AAa?$AAt?$AAe?$AA_?$AAc?$AAa?$AAs?$AAe?$AA_?$AAn?$AAo?$AAr?$AAm@ 00000001800aae88     libucrtd:output.obj
 0002:0000bec0       ??_C@_1BMI@KBPJOJJI@?$AA_?$AA_?$AAc?$AAr?$AAt?$AA_?$AAs?$AAt?$AAd?$AAi?$AAo?$AA_?$AAo?$AAu?$AAt@ 00000001800aaec0     libucrtd:output.obj
 0002:0000c090       ??_C@_1BMM@PGHHMNDM@?$AA_?$AA_?$AAc?$AAr?$AAt?$AA_?$AAs?$AAt?$AAd?$AAi?$AAo?$AA_?$AAo?$AAu?$AAt@ 00000001800ab090     libucrtd:output.obj
 0002:0000c260       ??_C@_1CI@DDKMNCPP@?$AA_?$AAc?$AAo?$AAn?$AAt?$AAe?$AAx?$AAt?$AA?5?$AA?$CB?$AA?$DN?$AA?5?$AAn?$AAu?$AAl@ 00000001800ab260     libucrtd:output.obj
 0002:0000c290       ??_C@_1HK@IIPGOADH@?$AA_?$AA_?$AAc?$AAr?$AAt?$AA_?$AAs?$AAt?$AAd?$AAi?$AAo?$AA_?$AAo?$AAu?$AAt@ 00000001800ab290     libucrtd:output.obj
 0002:0000c310       ??_C@_1HE@IACOMEJF@?$AA_?$AA_?$AAc?$AAr?$AAt?$AA_?$AAs?$AAt?$AAd?$AAi?$AAo?$AA_?$AAo?$AAu?$AAt@ 00000001800ab310     libucrtd:output.obj
 0002:0000c390       ??_C@_1GC@BNMHNGKM@?$AA_?$AAs?$AAt?$AAa?$AAt?$AAe?$AA?5?$AA?$DN?$AA?$DN?$AA?5?$AAs?$AAt?$AAa?$AAt?$AAe@ 00000001800ab390     libucrtd:output.obj
 0002:0000c400       ??_C@_1BMI@DNMDMAAN@?$AA_?$AA_?$AAc?$AAr?$AAt?$AA_?$AAs?$AAt?$AAd?$AAi?$AAo?$AA_?$AAo?$AAu?$AAt@ 00000001800ab400     libucrtd:output.obj
 0002:0000c5d0       ??_C@_1BMM@JHGFKAND@?$AA_?$AA_?$AAc?$AAr?$AAt?$AA_?$AAs?$AAt?$AAd?$AAi?$AAo?$AA_?$AAo?$AAu?$AAt@ 00000001800ab5d0     libucrtd:output.obj
 0002:0000c7a0       ??_C@_1CA@ONEGMNAN@?$AA_?$AAs?$AAt?$AAr?$AAe?$AAa?$AAm?$AA?4?$AAv?$AAa?$AAl?$AAi?$AAd?$AA?$CI?$AA?$CJ@ 00000001800ab7a0     libucrtd:output.obj
 0002:0000c7c0       ??_C@_1HK@MPBCDOK@?$AA_?$AA_?$AAc?$AAr?$AAt?$AA_?$AAs?$AAt?$AAd?$AAi?$AAo?$AA_?$AAo?$AAu?$AAt@ 00000001800ab7c0     libucrtd:output.obj
 0002:0000c840       ??_C@_1EK@PNGFDECN@?$AA?$CI?$AA?$CC?$AA?8?$AAn?$AA?8?$AA?5?$AAf?$AAo?$AAr?$AAm?$AAa?$AAt?$AA?5?$AAs?$AAp@ 00000001800ab840     libucrtd:output.obj
 0002:0000c890       ??_C@_1EO@GHKFGFKL@?$AA?$CI?$AA?$CC?$AAI?$AAn?$AAv?$AAa?$AAl?$AAi?$AAd?$AA?5?$AAi?$AAn?$AAt?$AAe?$AAg@ 00000001800ab890     libucrtd:output.obj
 0002:0000c8e0       ??_C@_1BEC@NDOOKIMC@?$AA_?$AA_?$AAc?$AAr?$AAt?$AA_?$AAs?$AAt?$AAd?$AAi?$AAo?$AA_?$AAo?$AAu?$AAt@ 00000001800ab8e0     libucrtd:output.obj
 0002:0000ca30       ??_C@_1BDG@KOLEFKPF@?$AA_?$AA_?$AAc?$AAr?$AAt?$AA_?$AAs?$AAt?$AAd?$AAi?$AAo?$AA_?$AAo?$AAu?$AAt@ 00000001800aba30     libucrtd:output.obj
 0002:0000cb70       ??_C@_1BMA@IHIBOLMD@?$AA_?$AA_?$AAc?$AAr?$AAt?$AA_?$AAs?$AAt?$AAd?$AAi?$AAo?$AA_?$AAo?$AAu?$AAt@ 00000001800abb70     libucrtd:output.obj
 0002:0000cd30       ??_C@_1BMA@PGOJAHFP@?$AA_?$AA_?$AAc?$AAr?$AAt?$AA_?$AAs?$AAt?$AAd?$AAi?$AAo?$AA_?$AAo?$AAu?$AAt@ 00000001800abd30     libucrtd:output.obj
 0002:0000cef0       ??_C@_1O@CEDCILHN@?$AA?$CI?$AAn?$AAu?$AAl?$AAl?$AA?$CJ@ 00000001800abef0     libucrtd:output.obj
 0002:0000cf00       ??_C@_06OJHGLDPL@?$CInull?$CJ@ 00000001800abf00     libucrtd:output.obj
 0002:0000cf08       ??_C@_1CK@LGDCECDH@?$AA_?$AAf?$AAo?$AAr?$AAm?$AAa?$AAt?$AA_?$AAc?$AAh?$AAa?$AAr?$AA?5?$AA?$CB?$AA?$DN@ 00000001800abf08     libucrtd:output.obj
 0002:0000cf38       ??_C@_0DI@KIFBHMNO@minkernel?2crts?2ucrt?2inc?2corecrt@ 00000001800abf38     libucrtd:output.obj
 0002:0000cf70       ??_C@_1BMM@MBMBCJIF@?$AA_?$AA_?$AAc?$AAr?$AAt?$AA_?$AAs?$AAt?$AAd?$AAi?$AAo?$AA_?$AAo?$AAu?$AAt@ 00000001800abf70     libucrtd:output.obj
 0002:0000d140       ??_C@_1BMM@KANDEEGK@?$AA_?$AA_?$AAc?$AAr?$AAt?$AA_?$AAs?$AAt?$AAd?$AAi?$AAo?$AA_?$AAo?$AAu?$AAt@ 00000001800ac140     libucrtd:output.obj
 0002:0000d310       ??_C@_1BMK@JGIBNIA@?$AA_?$AA_?$AAc?$AAr?$AAt?$AA_?$AAs?$AAt?$AAd?$AAi?$AAo?$AA_?$AAo?$AAu?$AAt@ 00000001800ac310     libucrtd:output.obj
 0002:0000d4e0       ??_C@_1BLC@INKIGOCN@?$AA_?$AA_?$AAc?$AAr?$AAt?$AA_?$AAs?$AAt?$AAd?$AAi?$AAo?$AA_?$AAo?$AAu?$AAt@ 00000001800ac4e0     libucrtd:output.obj
 0002:0000d6a0       ??_C@_1BNK@KHNJGCCP@?$AA_?$AA_?$AAc?$AAr?$AAt?$AA_?$AAs?$AAt?$AAd?$AAi?$AAo?$AA_?$AAo?$AAu?$AAt@ 00000001800ac6a0     libucrtd:output.obj
 0002:0000d880       ??_C@_1BNO@OHFFMOOJ@?$AA_?$AA_?$AAc?$AAr?$AAt?$AA_?$AAs?$AAt?$AAd?$AAi?$AAo?$AA_?$AAo?$AAu?$AAt@ 00000001800ac880     libucrtd:output.obj
 0002:0000da60       ??_C@_1BMC@FAGJFBLI@?$AA_?$AA_?$AAc?$AAr?$AAt?$AA_?$AAs?$AAt?$AAd?$AAi?$AAo?$AA_?$AAo?$AAu?$AAt@ 00000001800aca60     libucrtd:output.obj
 0002:0000dc30       ??_C@_1BMG@CGPDIFDK@?$AA_?$AA_?$AAc?$AAr?$AAt?$AA_?$AAs?$AAt?$AAd?$AAi?$AAo?$AA_?$AAo?$AAu?$AAt@ 00000001800acc30     libucrtd:output.obj
 0002:0000de00       ??_C@_1BNC@OHPDPPJK@?$AA_?$AA_?$AAc?$AAr?$AAt?$AA_?$AAs?$AAt?$AAd?$AAi?$AAo?$AA_?$AAo?$AAu?$AAt@ 00000001800ace00     libucrtd:output.obj
 0002:0000dfe0       ??_C@_1BLK@FOLFMPJH@?$AA_?$AA_?$AAc?$AAr?$AAt?$AA_?$AAs?$AAt?$AAd?$AAi?$AAo?$AA_?$AAo?$AAu?$AAt@ 00000001800acfe0     libucrtd:output.obj
 0002:0000e1a0       ??_C@_1BNC@JPKLPOHO@?$AA_?$AA_?$AAc?$AAr?$AAt?$AA_?$AAs?$AAt?$AAd?$AAi?$AAo?$AA_?$AAo?$AAu?$AAt@ 00000001800ad1a0     libucrtd:output.obj
 0002:0000e380       ??_C@_1BNO@NAODCKFA@?$AA_?$AA_?$AAc?$AAr?$AAt?$AA_?$AAs?$AAt?$AAd?$AAi?$AAo?$AA_?$AAo?$AAu?$AAt@ 00000001800ad380     libucrtd:output.obj
 0002:0000e560       ??_C@_1BMG@BBEFGBID@?$AA_?$AA_?$AAc?$AAr?$AAt?$AA_?$AAs?$AAt?$AAd?$AAi?$AAo?$AA_?$AAo?$AAu?$AAt@ 00000001800ad560     libucrtd:output.obj
 0002:0000e728       ??_C@_1DA@LLLMNMKI@?$AAa?$AAb?$AAo?$AAr?$AAt?$AA?$CI?$AA?$CJ?$AA?5?$AAh?$AAa?$AAs?$AA?5?$AAb?$AAe?$AAe@ 00000001800ad728     libucrtd:abort.obj
 0002:0000e770       ??_C@_1BA@GLMCNLEM@?$AAW?$AAa?$AAr?$AAn?$AAi?$AAn?$AAg@ 00000001800ad770     libucrtd:dbgrpt.obj
 0002:0000e780       ??_C@_1M@ILHOPKA@?$AAE?$AAr?$AAr?$AAo?$AAr@ 00000001800ad780     libucrtd:dbgrpt.obj
 0002:0000e790       ??_C@_1CC@CGHMNGDG@?$AAA?$AAs?$AAs?$AAe?$AAr?$AAt?$AAi?$AAo?$AAn?$AA?5?$AAF?$AAa?$AAi?$AAl?$AAe@ 00000001800ad790     libucrtd:dbgrpt.obj
 0002:0000e7c0       ??_C@_1OG@PMPPFHAF@?$AA?6?$AA?6?$AAF?$AAo?$AAr?$AA?5?$AAi?$AAn?$AAf?$AAo?$AAr?$AAm?$AAa?$AAt?$AAi@ 00000001800ad7c0     libucrtd:dbgrpt.obj
 0002:0000e8b0       ??_C@_1MG@LJLILFFD@?$AAD?$AAe?$AAb?$AAu?$AAg?$AA?5?$AA?$CF?$AAl?$AAs?$AA?$CB?$AA?6?$AA?6?$AAP?$AAr?$AAo@ 00000001800ad8b0     libucrtd:dbgrpt.obj
 0002:0000e980       ??_C@_1MG@OODCADGL@?$AAD?$AAe?$AAb?$AAu?$AAg?$AA?5?$AA?$CF?$AAl?$AAs?$AA?$CB?$AA?6?$AA?6?$AAP?$AAr?$AAo@ 00000001800ad980     libucrtd:dbgrpt.obj
 0002:0000ea50       ??_C@_1FO@GMJDLAJD@?$AAm?$AAi?$AAn?$AAk?$AAe?$AAr?$AAn?$AAe?$AAl?$AA?2?$AAc?$AAr?$AAt?$AAs?$AA?2@ 00000001800ada50     libucrtd:dbgrpt.obj
 0002:0000eab0       ??_C@_1CM@EHMOGBJJ@?$AAc?$AAo?$AAm?$AAm?$AAo?$AAn?$AA_?$AAm?$AAe?$AAs?$AAs?$AAa?$AAg?$AAe?$AA_@ 00000001800adab0     libucrtd:dbgrpt.obj
 0002:0000eadc       ??_C@_11LOCGONAA@@         00000001800adadc     libucrtd:dbgrpt.obj
 0002:0000eae0       ??_C@_1BA@GLLGCPCK@?$AA?6?$AAL?$AAi?$AAn?$AAe?$AA?3?$AA?5@ 00000001800adae0     libucrtd:dbgrpt.obj
 0002:0000eaf0       ??_C@_1BA@LNHECFIM@?$AA?6?$AAF?$AAi?$AAl?$AAe?$AA?3?$AA?5@ 00000001800adaf0     libucrtd:dbgrpt.obj
 0002:0000eb00       ??_C@_1BE@CGCJKGHI@?$AA?6?$AAM?$AAo?$AAd?$AAu?$AAl?$AAe?$AA?3?$AA?5@ 00000001800adb00     libucrtd:dbgrpt.obj
 0002:0000eb20       ??_C@_1JM@IBOIJEOO@?$AAw?$AAc?$AAs?$AAc?$AAp?$AAy?$AA_?$AAs?$AA?$CI?$AAm?$AAe?$AAs?$AAs?$AAa?$AAg@ 00000001800adb20     libucrtd:dbgrpt.obj
 0002:0000ebc0       ??_C@_1FG@BBOLDHGF@?$AA_?$AAC?$AAr?$AAt?$AAD?$AAb?$AAg?$AAR?$AAe?$AAp?$AAo?$AAr?$AAt?$AA?3?$AA?5@ 00000001800adbc0     libucrtd:dbgrpt.obj
 0002:0000ec20       ??_C@_1CI@JELMFMDH@?$AAc?$AA?5?$AA?$DO?$AA?$DN?$AA?5?$AA?9?$AA1?$AA?5?$AA?$CG?$AA?$CG?$AA?5?$AAc?$AA?5?$AA?$DM?$AA?$DN@ 00000001800adc20     libucrtd:isctype.obj
 0002:0000ec50       ??_C@_1GG@KPBGDFHJ@?$AAm?$AAi?$AAn?$AAk?$AAe?$AAr?$AAn?$AAe?$AAl?$AA?2?$AAc?$AAr?$AAt?$AAs?$AA?2@ 00000001800adc50     libucrtd:isctype.obj
 0002:0000ef18       ??_C@_0DM@DKIFNNOL@minkernel?2crts?2ucrt?2src?2appcrt?2@ 00000001800adf18     libucrtd:per_thread_data.obj
 0002:0000efb0       __lc_time_c                00000001800adfb0     libucrtd:nlsdata.obj
 0002:0000f270       ??_C@_03KOEHGMDN@Sun@      00000001800ae270     libucrtd:nlsdata.obj
 0002:0000f274       ??_C@_03PDAGKDH@Mon@       00000001800ae274     libucrtd:nlsdata.obj
 0002:0000f278       ??_C@_03NAGEINEP@Tue@      00000001800ae278     libucrtd:nlsdata.obj
 0002:0000f27c       ??_C@_03MHOMLAJA@Wed@      00000001800ae27c     libucrtd:nlsdata.obj
 0002:0000f280       ??_C@_03IOFIKPDN@Thu@      00000001800ae280     libucrtd:nlsdata.obj
 0002:0000f284       ??_C@_03IDIOELNC@Fri@      00000001800ae284     libucrtd:nlsdata.obj
 0002:0000f288       ??_C@_03FEFJNEK@Sat@       00000001800ae288     libucrtd:nlsdata.obj
 0002:0000f28c       ??_C@_06OOPIFAJ@Sunday@    00000001800ae28c     libucrtd:nlsdata.obj
 0002:0000f294       ??_C@_06JLEDEDGH@Monday@   00000001800ae294     libucrtd:nlsdata.obj
 0002:0000f2a0       ??_C@_07BAAGCFCM@Tuesday@  00000001800ae2a0     libucrtd:nlsdata.obj
 0002:0000f2a8       ??_C@_09DLIGFAKA@Wednesday@ 00000001800ae2a8     libucrtd:nlsdata.obj
 0002:0000f2b8       ??_C@_08HACCIKIA@Thursday@ 00000001800ae2b8     libucrtd:nlsdata.obj
 0002:0000f2c4       ??_C@_06JECMNKMI@Friday@   00000001800ae2c4     libucrtd:nlsdata.obj
 0002:0000f2d0       ??_C@_08INBOOONO@Saturday@ 00000001800ae2d0     libucrtd:nlsdata.obj
 0002:0000f2dc       ??_C@_03JIHJHPIE@Jan@      00000001800ae2dc     libucrtd:nlsdata.obj
 0002:0000f2e0       ??_C@_03HJBDCHOM@Feb@      00000001800ae2e0     libucrtd:nlsdata.obj
 0002:0000f2e4       ??_C@_03ODNJBKGA@Mar@      00000001800ae2e4     libucrtd:nlsdata.obj
 0002:0000f2e8       ??_C@_03LEOLGMJP@Apr@      00000001800ae2e8     libucrtd:nlsdata.obj
 0002:0000f2ec       ??_C@_03CNMDKL@May@        00000001800ae2ec     libucrtd:nlsdata.obj
 0002:0000f2f0       ??_C@_03IDFGHECI@Jun@      00000001800ae2f0     libucrtd:nlsdata.obj
 0002:0000f2f4       ??_C@_03LBGABGKK@Jul@      00000001800ae2f4     libucrtd:nlsdata.obj
 0002:0000f2f8       ??_C@_03IFJFEIGA@Aug@      00000001800ae2f8     libucrtd:nlsdata.obj
 0002:0000f2fc       ??_C@_03GGCAPAJC@Sep@      00000001800ae2fc     libucrtd:nlsdata.obj
 0002:0000f300       ??_C@_03BMAOKBAD@Oct@      00000001800ae300     libucrtd:nlsdata.obj
 0002:0000f304       ??_C@_03JPJOFNIA@Nov@      00000001800ae304     libucrtd:nlsdata.obj
 0002:0000f308       ??_C@_03MKABNOCG@Dec@      00000001800ae308     libucrtd:nlsdata.obj
 0002:0000f310       ??_C@_07CGJPFGJA@January@  00000001800ae310     libucrtd:nlsdata.obj
 0002:0000f318       ??_C@_08GNJGEPFN@February@ 00000001800ae318     libucrtd:nlsdata.obj
 0002:0000f324       ??_C@_05HPCKOFNC@March@    00000001800ae324     libucrtd:nlsdata.obj
 0002:0000f32c       ??_C@_05DMJDNLEJ@April@    00000001800ae32c     libucrtd:nlsdata.obj
 0002:0000f334       ??_C@_04CNLMGBGM@June@     00000001800ae334     libucrtd:nlsdata.obj
 0002:0000f33c       ??_C@_04MIEPOIFP@July@     00000001800ae33c     libucrtd:nlsdata.obj
 0002:0000f344       ??_C@_06LBBHFDDG@August@   00000001800ae344     libucrtd:nlsdata.obj
 0002:0000f350       ??_C@_09BHHEALKD@September@ 00000001800ae350     libucrtd:nlsdata.obj
 0002:0000f360       ??_C@_07JJNFCEND@October@  00000001800ae360     libucrtd:nlsdata.obj
 0002:0000f368       ??_C@_08HCHEGEOA@November@ 00000001800ae368     libucrtd:nlsdata.obj
 0002:0000f378       ??_C@_08EDHMEBNP@December@ 00000001800ae378     libucrtd:nlsdata.obj
 0002:0000f384       ??_C@_02DEDBPAFC@AM@       00000001800ae384     libucrtd:nlsdata.obj
 0002:0000f388       ??_C@_02CJNFDJBF@PM@       00000001800ae388     libucrtd:nlsdata.obj
 0002:0000f390       ??_C@_08BPBNCDIB@MM?1dd?1yy@ 00000001800ae390     libucrtd:nlsdata.obj
 0002:0000f3a0       ??_C@_0BE@CKGJFCPC@dddd?0?5MMMM?5dd?0?5yyyy@ 00000001800ae3a0     libucrtd:nlsdata.obj
 0002:0000f3b8       ??_C@_08JCCMCCIL@HH?3mm?3ss@ 00000001800ae3b8     libucrtd:nlsdata.obj
 0002:0000f3c8       ??_C@_17MBGCMIPB@?$AAS?$AAu?$AAn@ 00000001800ae3c8     libucrtd:nlsdata.obj
 0002:0000f3d0       ??_C@_17KBOMKBF@?$AAM?$AAo?$AAn@ 00000001800ae3d0     libucrtd:nlsdata.obj
 0002:0000f3d8       ??_C@_17BMKGEGOJ@?$AAT?$AAu?$AAe@ 00000001800ae3d8     libucrtd:nlsdata.obj
 0002:0000f3e0       ??_C@_17CJEDCEPE@?$AAW?$AAe?$AAd@ 00000001800ae3e0     libucrtd:nlsdata.obj
 0002:0000f3e8       ??_C@_17PDPHAADD@?$AAT?$AAh?$AAu@ 00000001800ae3e8     libucrtd:nlsdata.obj
 0002:0000f3f0       ??_C@_17HFOLPPLP@?$AAF?$AAr?$AAi@ 00000001800ae3f0     libucrtd:nlsdata.obj
 0002:0000f3f8       ??_C@_17GGIBDPIH@?$AAS?$AAa?$AAt@ 00000001800ae3f8     libucrtd:nlsdata.obj
 0002:0000f400       ??_C@_1O@IHNHDHPB@?$AAS?$AAu?$AAn?$AAd?$AAa?$AAy@ 00000001800ae400     libucrtd:nlsdata.obj
 0002:0000f410       ??_C@_1O@MMNBFLIA@?$AAM?$AAo?$AAn?$AAd?$AAa?$AAy@ 00000001800ae410     libucrtd:nlsdata.obj
 0002:0000f420       ??_C@_1BA@ENFBFFEK@?$AAT?$AAu?$AAe?$AAs?$AAd?$AAa?$AAy@ 00000001800ae420     libucrtd:nlsdata.obj
 0002:0000f430       ??_C@_1BE@EBOGMDOH@?$AAW?$AAe?$AAd?$AAn?$AAe?$AAs?$AAd?$AAa?$AAy@ 00000001800ae430     libucrtd:nlsdata.obj
 0002:0000f448       ??_C@_1BC@HHMNLIHE@?$AAT?$AAh?$AAu?$AAr?$AAs?$AAd?$AAa?$AAy@ 00000001800ae448     libucrtd:nlsdata.obj
 0002:0000f460       ??_C@_1O@PDICJHAG@?$AAF?$AAr?$AAi?$AAd?$AAa?$AAy@ 00000001800ae460     libucrtd:nlsdata.obj
 0002:0000f470       ??_C@_1BC@ENMNNPAJ@?$AAS?$AAa?$AAt?$AAu?$AAr?$AAd?$AAa?$AAy@ 00000001800ae470     libucrtd:nlsdata.obj
 0002:0000f488       ??_C@_17DKNBKCHM@?$AAJ?$AAa?$AAn@ 00000001800ae488     libucrtd:nlsdata.obj
 0002:0000f490       ??_C@_17LMDJEKJN@?$AAF?$AAe?$AAb@ 00000001800ae490     libucrtd:nlsdata.obj
 0002:0000f498       ??_C@_17CKNLEDEC@?$AAM?$AAa?$AAr@ 00000001800ae498     libucrtd:nlsdata.obj
 0002:0000f4a0       ??_C@_17LFPOIHDD@?$AAA?$AAp?$AAr@ 00000001800ae4a0     libucrtd:nlsdata.obj
 0002:0000f4a8       ??_C@_17PNNKMEED@?$AAM?$AAa?$AAy@ 00000001800ae4a8     libucrtd:nlsdata.obj
 0002:0000f4b0       ??_C@_17KCJGOCPB@?$AAJ?$AAu?$AAn@ 00000001800ae4b0     libucrtd:nlsdata.obj
 0002:0000f4b8       ??_C@_17IJPCKHK@?$AAJ?$AAu?$AAl@ 00000001800ae4b8     libucrtd:nlsdata.obj
 0002:0000f4c0       ??_C@_17ICPELBCN@?$AAA?$AAu?$AAg@ 00000001800ae4c0     libucrtd:nlsdata.obj
 0002:0000f4c8       ??_C@_17HCHCOKMG@?$AAS?$AAe?$AAp@ 00000001800ae4c8     libucrtd:nlsdata.obj
 0002:0000f4d0       ??_C@_17FNLKOI@?$AAO?$AAc?$AAt@ 00000001800ae4d0     libucrtd:nlsdata.obj
 0002:0000f4d8       ??_C@_17BBDMLCIG@?$AAN?$AAo?$AAv@ 00000001800ae4d8     libucrtd:nlsdata.obj
 0002:0000f4e0       ??_C@_17EGKACKIF@?$AAD?$AAe?$AAc@ 00000001800ae4e0     libucrtd:nlsdata.obj
 0002:0000f4e8       ??_C@_1BA@EFMEIEBA@?$AAJ?$AAa?$AAn?$AAu?$AAa?$AAr?$AAy@ 00000001800ae4e8     libucrtd:nlsdata.obj
 0002:0000f4f8       ??_C@_1BC@JGDDFFAM@?$AAF?$AAe?$AAb?$AAr?$AAu?$AAa?$AAr?$AAy@ 00000001800ae4f8     libucrtd:nlsdata.obj
 0002:0000f510       ??_C@_1M@IKEENEDF@?$AAM?$AAa?$AAr?$AAc?$AAh@ 00000001800ae510     libucrtd:nlsdata.obj
 0002:0000f520       ??_C@_1M@GJNLMHFD@?$AAA?$AAp?$AAr?$AAi?$AAl@ 00000001800ae520     libucrtd:nlsdata.obj
 0002:0000f530       ??_C@_19EPFLPGAP@?$AAJ?$AAu?$AAn?$AAe@ 00000001800ae530     libucrtd:nlsdata.obj
 0002:0000f540       ??_C@_19BIFMLPCD@?$AAJ?$AAu?$AAl?$AAy@ 00000001800ae540     libucrtd:nlsdata.obj
 0002:0000f550       ??_C@_1O@PAHLKOAC@?$AAA?$AAu?$AAg?$AAu?$AAs?$AAt@ 00000001800ae550     libucrtd:nlsdata.obj
 0002:0000f560       ??_C@_1BE@DKAAMBJL@?$AAS?$AAe?$AAp?$AAt?$AAe?$AAm?$AAb?$AAe?$AAr@ 00000001800ae560     libucrtd:nlsdata.obj
 0002:0000f578       ??_C@_1BA@EPANDLNG@?$AAO?$AAc?$AAt?$AAo?$AAb?$AAe?$AAr@ 00000001800ae578     libucrtd:nlsdata.obj
 0002:0000f588       ??_C@_1BC@BGLIFPF@?$AAN?$AAo?$AAv?$AAe?$AAm?$AAb?$AAe?$AAr@ 00000001800ae588     libucrtd:nlsdata.obj
 0002:0000f5a0       ??_C@_1BC@FEMKIFH@?$AAD?$AAe?$AAc?$AAe?$AAm?$AAb?$AAe?$AAr@ 00000001800ae5a0     libucrtd:nlsdata.obj
 0002:0000f5b4       ??_C@_15ODEHAHHF@?$AAA?$AAM@ 00000001800ae5b4     libucrtd:nlsdata.obj
 0002:0000f5bc       ??_C@_15CLMNNGEL@?$AAP?$AAM@ 00000001800ae5bc     libucrtd:nlsdata.obj
 0002:0000f5c8       ??_C@_1BC@IEBCMHCM@?$AAM?$AAM?$AA?1?$AAd?$AAd?$AA?1?$AAy?$AAy@ 00000001800ae5c8     libucrtd:nlsdata.obj
 0002:0000f5e0       ??_C@_1CI@KNAKOEBC@?$AAd?$AAd?$AAd?$AAd?$AA?0?$AA?5?$AAM?$AAM?$AAM?$AAM?$AA?5?$AAd?$AAd?$AA?0?$AA?5@ 00000001800ae5e0     libucrtd:nlsdata.obj
 0002:0000f608       ??_C@_1BC@GDGBMEMK@?$AAH?$AAH?$AA?3?$AAm?$AAm?$AA?3?$AAs?$AAs@ 00000001800ae608     libucrtd:nlsdata.obj
 0002:0000f620       ??_C@_1M@BMHNFIME@?$AAe?$AAn?$AA?9?$AAU?$AAS@ 00000001800ae620     libucrtd:nlsdata.obj
 0002:0000f630       _d_inf                     00000001800ae630     libucrtd:util.obj
 0002:0000f638       _d_max                     00000001800ae638     libucrtd:util.obj
 0002:0000f640       ??_C@_1EI@OBAKGPDD@?$AA?$CI?$AA?$CC?$AAu?$AAn?$AAe?$AAx?$AAp?$AAe?$AAc?$AAt?$AAe?$AAd?$AA?5?$AAr?$AAo@ 00000001800ae640     libucrtd:fpexcept.obj
 0002:0000f860       ??_C@_03KHJOGHMM@exp@      00000001800ae860     libucrtd:fpexcept.obj
 0002:0000f864       ??_C@_03JGHBODFD@pow@      00000001800ae864     libucrtd:fpexcept.obj
 0002:0000f868       ??_C@_03MGHMBJCF@log@      00000001800ae868     libucrtd:fpexcept.obj
 0002:0000f86c       ??_C@_05HGHHAHAP@log10@    00000001800ae86c     libucrtd:fpexcept.obj
 0002:0000f874       ??_C@_04COOMCNPB@sinh@     00000001800ae874     libucrtd:fpexcept.obj
 0002:0000f87c       ??_C@_04HPJJNFIM@cosh@     00000001800ae87c     libucrtd:fpexcept.obj
 0002:0000f884       ??_C@_04FJHINJAO@tanh@     00000001800ae884     libucrtd:fpexcept.obj
 0002:0000f88c       ??_C@_04FIHNOPOL@asin@     00000001800ae88c     libucrtd:fpexcept.obj
 0002:0000f894       ??_C@_04PDIFKINK@acos@     00000001800ae894     libucrtd:fpexcept.obj
 0002:0000f89c       ??_C@_04MLLJIGOK@atan@     00000001800ae89c     libucrtd:fpexcept.obj
 0002:0000f8a4       ??_C@_05KNGEOGJB@atan2@    00000001800ae8a4     libucrtd:fpexcept.obj
 0002:0000f8ac       ??_C@_04EIAKFFMI@sqrt@     00000001800ae8ac     libucrtd:fpexcept.obj
 0002:0000f8b4       ??_C@_03BLEJJJBH@sin@      00000001800ae8b4     libucrtd:fpexcept.obj
 0002:0000f8b8       ??_C@_03LALBNOCG@cos@      00000001800ae8b8     libucrtd:fpexcept.obj
 0002:0000f8bc       ??_C@_03IIINPABG@tan@      00000001800ae8bc     libucrtd:fpexcept.obj
 0002:0000f8c0       ??_C@_04GFPJNGEK@ceil@     00000001800ae8c0     libucrtd:fpexcept.obj
 0002:0000f8c8       ??_C@_05PBJFFIGL@floor@    00000001800ae8c8     libucrtd:fpexcept.obj
 0002:0000f8d0       ??_C@_04ODHECPBC@fabs@     00000001800ae8d0     libucrtd:fpexcept.obj
 0002:0000f8d8       ??_C@_04EHEDPDJG@modf@     00000001800ae8d8     libucrtd:fpexcept.obj
 0002:0000f8e0       ??_C@_05CEJMAHNP@ldexp@    00000001800ae8e0     libucrtd:fpexcept.obj
 0002:0000f8e8       ??_C@_05KBKMEMPO@_cabs@    00000001800ae8e8     libucrtd:fpexcept.obj
 0002:0000f8f0       ??_C@_06MEIMCGCF@_hypot@   00000001800ae8f0     libucrtd:fpexcept.obj
 0002:0000f8f8       ??_C@_04KEPJIHGP@fmod@     00000001800ae8f8     libucrtd:fpexcept.obj
 0002:0000f900       ??_C@_05GKKHEGJL@frexp@    00000001800ae900     libucrtd:fpexcept.obj
 0002:0000f908       ??_C@_03MJLDFKDL@_y0@      00000001800ae908     libucrtd:fpexcept.obj
 0002:0000f90c       ??_C@_03NAKIGLHK@_y1@      00000001800ae90c     libucrtd:fpexcept.obj
 0002:0000f910       ??_C@_03ONILCKOB@_yn@      00000001800ae910     libucrtd:fpexcept.obj
 0002:0000f914       ??_C@_05JGDBENOH@_logb@    00000001800ae914     libucrtd:fpexcept.obj
 0002:0000f920       ??_C@_0L@KDOEJCKC@_nextafter@ 00000001800ae920     libucrtd:fpexcept.obj
 0002:0000f930       ??_C@_0CP@GDJHIDC@minkernel?2crts?2ucrt?2src?2appcrt?2@ 00000001800ae930     libucrtd:_file.obj
 0002:0000f960       ??_C@_0DA@OGKFKCBE@minkernel?2crts?2ucrt?2src?2appcrt?2@ 00000001800ae960     libucrtd:stream.obj
 0002:0000f990       ??_C@_1GE@HEEFEAFI@?$AAm?$AAi?$AAn?$AAk?$AAe?$AAr?$AAn?$AAe?$AAl?$AA?2?$AAc?$AAr?$AAt?$AAs?$AA?2@ 00000001800ae990     libucrtd:openfile.obj
 0002:0000f9f4       ?ccs@?1???$__acrt_stdio_parse_mode@D@@YA?AU__acrt_stdio_stream_mode@@QEBD@Z@4QBDB 00000001800ae9f4     libucrtd:openfile.obj
 0002:0000f9f8       ?utf8_encoding@?1???$__acrt_stdio_parse_mode@D@@YA?AU__acrt_stdio_stream_mode@@QEBD@Z@4QBDB 00000001800ae9f8     libucrtd:openfile.obj
 0002:0000fa00       ?utf16_encoding@?1???$__acrt_stdio_parse_mode@D@@YA?AU__acrt_stdio_stream_mode@@QEBD@Z@4QBDB 00000001800aea00     libucrtd:openfile.obj
 0002:0000fa08       ?unicode_encoding@?1???$__acrt_stdio_parse_mode@D@@YA?AU__acrt_stdio_stream_mode@@QEBD@Z@4QBDB 00000001800aea08     libucrtd:openfile.obj
 0002:0000fa10       ??_C@_1DM@FOFGGBBM@?$AA?$CI?$AA?$CC?$AAI?$AAn?$AAv?$AAa?$AAl?$AAi?$AAd?$AA?5?$AAf?$AAi?$AAl?$AAe?$AA?5@ 00000001800aea10     libucrtd:openfile.obj
 0002:0000fa50       ??_C@_1DA@KPIHAHGC@?$AA_?$AA_?$AAa?$AAc?$AAr?$AAt?$AA_?$AAs?$AAt?$AAd?$AAi?$AAo?$AA_?$AAp?$AAa@ 00000001800aea50     libucrtd:openfile.obj
 0002:0000fa80       ??_C@_1BI@PDNFEGCG@?$AA?$CK?$AAi?$AAt?$AA?5?$AA?$DN?$AA?$DN?$AA?5?$AA?8?$AA?2?$AA0?$AA?8@ 00000001800aea80     libucrtd:openfile.obj
 0002:0000faa0       ??_C@_1GA@KCAHHNGP@?$AAm?$AAi?$AAn?$AAk?$AAe?$AAr?$AAn?$AAe?$AAl?$AA?2?$AAc?$AAr?$AAt?$AAs?$AA?2@ 00000001800aeaa0     libucrtd:fileno.obj
 0002:0000fb00       ??_C@_1BA@JGHIEKKM@?$AA_?$AAf?$AAi?$AAl?$AAe?$AAn?$AAo@ 00000001800aeb00     libucrtd:fileno.obj
 0002:0000fb40       ??_C@_1JE@ECKHFIFP@?$AA?$CI?$AA?$CC?$AAI?$AAn?$AAv?$AAa?$AAl?$AAi?$AAd?$AA?5?$AAf?$AAi?$AAl?$AAe?$AA?5@ 00000001800aeb40     libucrtd:close.obj
 0002:0000fbe0       ??_C@_1FO@IPDGALOE@?$AAm?$AAi?$AAn?$AAk?$AAe?$AAr?$AAn?$AAe?$AAl?$AA?2?$AAc?$AAr?$AAt?$AAs?$AA?2@ 00000001800aebe0     libucrtd:close.obj
 0002:0000fc40       ??_C@_1FO@LPCLHKGE@?$AA?$CI?$AAf?$AAh?$AA?5?$AA?$DO?$AA?$DN?$AA?5?$AA0?$AA?5?$AA?$CG?$AA?$CG?$AA?5?$AA?$CI?$AAu?$AAn@ 00000001800aec40     libucrtd:close.obj
 0002:0000fca0       ??_C@_1CA@GBJHJLEM@?$AA_?$AAc?$AAl?$AAo?$AAs?$AAe?$AA_?$AAi?$AAn?$AAt?$AAe?$AAr?$AAn?$AAa?$AAl@ 00000001800aeca0     libucrtd:close.obj
 0002:0000fcc0       ??_C@_1CM@OKGMMMDH@?$AA?$CI?$AA_?$AAo?$AAs?$AAf?$AAi?$AAl?$AAe?$AA?$CI?$AAf?$AAh?$AA?$CJ?$AA?5?$AA?$CG?$AA?5@ 00000001800aecc0     libucrtd:close.obj
 0002:0000fcf0       ??_C@_1GE@GPOPIOIG@?$AAm?$AAi?$AAn?$AAk?$AAe?$AAr?$AAn?$AAe?$AAl?$AA?2?$AAc?$AAr?$AAt?$AAs?$AA?2@ 00000001800aecf0     libucrtd:_freebuf.obj
 0002:0000fe00       ??_C@_1GC@MGNADOPH@?$AAm?$AAi?$AAn?$AAk?$AAe?$AAr?$AAn?$AAe?$AAl?$AA?2?$AAc?$AAr?$AAt?$AAs?$AA?2@ 00000001800aee00     libucrtd:_filbuf.obj
 0002:0000fe68       ??_C@_1DM@MPDNIFLF@?$AAc?$AAo?$AAm?$AAm?$AAo?$AAn?$AA_?$AAr?$AAe?$AAf?$AAi?$AAl?$AAl?$AA_?$AAa@ 00000001800aee68     libucrtd:_filbuf.obj
 0002:0000feb0       ??_C@_1FK@MGHFJLAL@?$AAf?$AAh?$AA?5?$AA?$DO?$AA?$DN?$AA?5?$AA0?$AA?5?$AA?$CG?$AA?$CG?$AA?5?$AA?$CI?$AAu?$AAn?$AAs@ 00000001800aeeb0     libucrtd:read.obj
 0002:0000ff10       ??_C@_1FM@PHKGHLIO@?$AAm?$AAi?$AAn?$AAk?$AAe?$AAr?$AAn?$AAe?$AAl?$AA?2?$AAc?$AAr?$AAt?$AAs?$AA?2@ 00000001800aef10     libucrtd:read.obj
 0002:0000ff70       ??_C@_1M@NHJOLLDM@?$AA_?$AAr?$AAe?$AAa?$AAd@ 00000001800aef70     libucrtd:read.obj
 0002:0000ff80       ??_C@_1CI@ILOIOBLM@?$AA_?$AAo?$AAs?$AAf?$AAi?$AAl?$AAe?$AA?$CI?$AAf?$AAh?$AA?$CJ?$AA?5?$AA?$CG?$AA?5?$AAF@ 00000001800aef80     libucrtd:read.obj
 0002:0000ffa8       ??_C@_1CO@OPEPDLLF@?$AAb?$AAu?$AAf?$AAf?$AAe?$AAr?$AA_?$AAs?$AAi?$AAz?$AAe?$AA?5?$AA?$DM?$AA?$DN?$AA?5@ 00000001800aefa8     libucrtd:read.obj
 0002:0000ffd8       ??_C@_1BK@JJBHNDKJ@?$AA_?$AAr?$AAe?$AAa?$AAd?$AA_?$AAn?$AAo?$AAl?$AAo?$AAc?$AAk@ 00000001800aefd8     libucrtd:read.obj
 0002:0000fff8       ??_C@_1DM@JEAHBMKI@?$AAr?$AAe?$AAs?$AAu?$AAl?$AAt?$AA_?$AAb?$AAu?$AAf?$AAf?$AAe?$AAr?$AA_?$AAs@ 00000001800aeff8     libucrtd:read.obj
 0002:00010038       ??_C@_1DC@MGKAFPFD@?$AAr?$AAe?$AAs?$AAu?$AAl?$AAt?$AA_?$AAb?$AAu?$AAf?$AAf?$AAe?$AAr?$AA?5?$AA?$CB@ 00000001800af038     libucrtd:read.obj
 0002:00010070       ??_C@_1DI@CDGOMPDO@?$AAr?$AAe?$AAs?$AAu?$AAl?$AAt?$AA_?$AAb?$AAu?$AAf?$AAf?$AAe?$AAr?$AA_?$AAs@ 00000001800af070     libucrtd:read.obj
 0002:000100a8       ??_C@_0CO@JFNFJHLC@minkernel?2crts?2ucrt?2src?2appcrt?2@ 00000001800af0a8     libucrtd:read.obj
 0002:000100d8       ??_C@_1DM@HGBOAKPP@?$AA?$CI?$AAr?$AAe?$AAs?$AAu?$AAl?$AAt?$AA_?$AAb?$AAu?$AAf?$AAf?$AAe?$AAr?$AA_@ 00000001800af0d8     libucrtd:read.obj
 0002:00010120       ??_C@_1FO@KIIHJNFN@?$AAm?$AAi?$AAn?$AAk?$AAe?$AAr?$AAn?$AAe?$AAl?$AA?2?$AAc?$AAr?$AAt?$AAs?$AA?2@ 00000001800af120     libucrtd:lseek.obj
 0002:00010180       ??_C@_1BK@JOMBNFIM@?$AAc?$AAo?$AAm?$AAm?$AAo?$AAn?$AA_?$AAl?$AAs?$AAe?$AAe?$AAk@ 00000001800af180     libucrtd:lseek.obj
 0002:000101a0       ??_C@_1DM@LMLOLGJ@?$AA?$CI?$AA?$CC?$AAI?$AAn?$AAv?$AAa?$AAl?$AAi?$AAd?$AA?5?$AAf?$AAi?$AAl?$AAe?$AA?5@ 00000001800af1a0     libucrtd:lseek.obj
 0002:000101e0       ??_C@_1GC@DLDMJFMI@?$AAm?$AAi?$AAn?$AAk?$AAe?$AAr?$AAn?$AAe?$AAl?$AA?2?$AAc?$AAr?$AAt?$AAs?$AA?2@ 00000001800af1e0     libucrtd:_getbuf.obj
 0002:00010248       ??_C@_0DB@LKJPMJPL@minkernel?2crts?2ucrt?2src?2appcrt?2@ 00000001800af248     libucrtd:_getbuf.obj
 0002:00010280       ??_C@_1IC@DCNEKBE@?$AAm?$AAi?$AAn?$AAk?$AAe?$AAr?$AAn?$AAe?$AAl?$AA?2?$AAc?$AAr?$AAt?$AAs?$AA?2@ 00000001800af280     libucrtd:report_runtime_error.obj
 0002:00010308       ??_C@_1DI@BLFJHKKP@?$AA_?$AA_?$AAa?$AAc?$AAr?$AAt?$AA_?$AAr?$AAe?$AAp?$AAo?$AAr?$AAt?$AA_?$AAr@ 00000001800af308     libucrtd:report_runtime_error.obj
 0002:00010340       ??_C@_1LE@MHPGJGKE@?$AAw?$AAc?$AAs?$AAc?$AAp?$AAy?$AA_?$AAs?$AA?$CI?$AAo?$AAu?$AAt?$AAm?$AAs?$AAg@ 00000001800af340     libucrtd:report_runtime_error.obj
 0002:000103f8       ??_C@_1DE@JNGNBFGO@?$AAR?$AAu?$AAn?$AAt?$AAi?$AAm?$AAe?$AA?5?$AAE?$AAr?$AAr?$AAo?$AAr?$AA?$CB?$AA?6@ 00000001800af3f8     libucrtd:report_runtime_error.obj
 0002:00010430       ??_C@_1HK@FJJNAABO@?$AAw?$AAc?$AAs?$AAc?$AAp?$AAy?$AA_?$AAs?$AA?$CI?$AAp?$AAr?$AAo?$AAg?$AAn?$AAa@ 00000001800af430     libucrtd:report_runtime_error.obj
 0002:000104b0       ??_C@_1HI@FLHKGEBE@?$AAw?$AAc?$AAs?$AAn?$AAc?$AAp?$AAy?$AA_?$AAs?$AA?$CI?$AAp?$AAc?$AAh?$AA?0?$AA?5@ 00000001800af4b0     libucrtd:report_runtime_error.obj
 0002:00010530       ??_C@_1IG@MNNKBLBI@?$AAw?$AAc?$AAs?$AAc?$AAa?$AAt?$AA_?$AAs?$AA?$CI?$AAo?$AAu?$AAt?$AAm?$AAs?$AAg@ 00000001800af530     libucrtd:report_runtime_error.obj
 0002:000105c0       ??_C@_1IG@DFBBBDAN@?$AAw?$AAc?$AAs?$AAc?$AAa?$AAt?$AA_?$AAs?$AA?$CI?$AAo?$AAu?$AAt?$AAm?$AAs?$AAg@ 00000001800af5c0     libucrtd:report_runtime_error.obj
 0002:00010650       ??_C@_1GA@HBEFGMHK@?$AAm?$AAi?$AAn?$AAk?$AAe?$AAr?$AAn?$AAe?$AAl?$AA?2?$AAc?$AAr?$AAt?$AAs?$AA?2@ 00000001800af650     libucrtd:xtoa.obj
 0002:000106b0       ??_C@_1BM@HMPEMLNP@?$AAc?$AAo?$AAm?$AAm?$AAo?$AAn?$AA_?$AAx?$AAt?$AAo?$AAx?$AA_?$AAs@ 00000001800af6b0     libucrtd:xtoa.obj
 0002:000106d0       ??_C@_1CC@ONIJBMJF@?$AAb?$AAu?$AAf?$AAf?$AAe?$AAr?$AA_?$AAc?$AAo?$AAu?$AAn?$AAt?$AA?5?$AA?$DO?$AA?5@ 00000001800af6d0     libucrtd:xtoa.obj
 0002:00010700       ??_C@_1HA@JFIOFNKD@?$AAb?$AAu?$AAf?$AAf?$AAe?$AAr?$AA_?$AAc?$AAo?$AAu?$AAn?$AAt?$AA?5?$AA?$DO?$AA?5@ 00000001800af700     libucrtd:xtoa.obj
 0002:00010770       ??_C@_1DE@PCJGDBBD@?$AA2?$AA?5?$AA?$DM?$AA?$DN?$AA?5?$AAr?$AAa?$AAd?$AAi?$AAx?$AA?5?$AA?$CG?$AA?$CG?$AA?5?$AAr@ 00000001800af770     libucrtd:xtoa.obj
 0002:000107a8       ??_C@_1CM@LONILNIJ@?$AAl?$AAe?$AAn?$AAg?$AAt?$AAh?$AA?5?$AA?$DM?$AA?5?$AAb?$AAu?$AAf?$AAf?$AAe?$AAr@ 00000001800af7a8     libucrtd:xtoa.obj
 0002:000107d8       ??_C@_1BI@OLPLFKOE@?$AAc?$AAo?$AAm?$AAm?$AAo?$AAn?$AA_?$AAx?$AAt?$AAo?$AAx@ 00000001800af7d8     libucrtd:xtoa.obj
 0002:000107f0       ??_C@_1DE@BCNCAIK@?$AA?$CI?$AA?$CC?$AAI?$AAn?$AAv?$AAa?$AAl?$AAi?$AAd?$AA?5?$AAe?$AAr?$AAr?$AAo?$AAr@ 00000001800af7f0     libucrtd:set_error_mode.obj
 0002:00010830       ??_C@_1GO@EBFPMMIJ@?$AAm?$AAi?$AAn?$AAk?$AAe?$AAr?$AAn?$AAe?$AAl?$AA?2?$AAc?$AAr?$AAt?$AAs?$AA?2@ 00000001800af830     libucrtd:set_error_mode.obj
 0002:000108a0       ??_C@_1CA@LFDHAMEM@?$AA_?$AAs?$AAe?$AAt?$AA_?$AAe?$AAr?$AAr?$AAo?$AAr?$AA_?$AAm?$AAo?$AAd?$AAe@ 00000001800af8a0     libucrtd:set_error_mode.obj
 0002:000108c0       ??_C@_1CA@EOJJMFA@?$AAc?$AAo?$AAm?$AAm?$AAo?$AAn?$AA_?$AAt?$AAc?$AAs?$AAc?$AAa?$AAt?$AA_?$AAs@ 00000001800af8c0     libucrtd:wcscat_s.obj
 0002:000108e0       ??_C@_1DM@FHLMIEG@?$AAS?$AAt?$AAr?$AAi?$AAn?$AAg?$AA?5?$AAi?$AAs?$AA?5?$AAn?$AAo?$AAt?$AA?5?$AAn@ 00000001800af8e0     libucrtd:wcscat_s.obj
 0002:00010920       ??_C@_1FA@MJKDNFFB@?$AA?$CI?$AAL?$AA?$CC?$AAS?$AAt?$AAr?$AAi?$AAn?$AAg?$AA?5?$AAi?$AAs?$AA?5?$AAn?$AAo@ 00000001800af920     libucrtd:wcscat_s.obj
 0002:00010970       ??_C@_1CC@HELMJGIF@?$AAc?$AAo?$AAm?$AAm?$AAo?$AAn?$AA_?$AAt?$AAc?$AAs?$AAn?$AAc?$AAa?$AAt?$AA_@ 00000001800af970     libucrtd:wcsncat_s.obj
 0002:000109e8       ??_C@_0DB@BJFCCEBD@minkernel?2crts?2ucrt?2src?2appcrt?2@ 00000001800af9e8     libucrtd:setvbuf.obj
 0002:00010a20       ??_C@_1GC@NAMEPLDD@?$AAm?$AAi?$AAn?$AAk?$AAe?$AAr?$AAn?$AAe?$AAl?$AA?2?$AAc?$AAr?$AAt?$AAs?$AA?2@ 00000001800afa20     libucrtd:setvbuf.obj
 0002:00010a88       ??_C@_1CE@EEJDIIEJ@?$AA_?$AAs?$AAe?$AAt?$AAv?$AAb?$AAu?$AAf?$AA_?$AAi?$AAn?$AAt?$AAe?$AAr?$AAn@ 00000001800afa88     libucrtd:setvbuf.obj
 0002:00010ab0       ??_C@_1GG@CBGCKJPC@?$AAt?$AAy?$AAp?$AAe?$AA?5?$AA?$DN?$AA?$DN?$AA?5?$AA_?$AAI?$AAO?$AAN?$AAB?$AAF?$AA?5@ 00000001800afab0     libucrtd:setvbuf.obj
 0002:00010b20       ??_C@_1HK@PBPJKDDM@?$AA2?$AA?5?$AA?$DM?$AA?$DN?$AA?5?$AAb?$AAu?$AAf?$AAf?$AAe?$AAr?$AA_?$AAs?$AAi?$AAz@ 00000001800afb20     libucrtd:setvbuf.obj
 0002:00010bc8       ??_C@_1DA@NBILLKNO@?$AAl?$AAo?$AAc?$AAa?$AAl?$AA_?$AAa?$AAc?$AAt?$AAi?$AAo?$AAn?$AA?5?$AA?$CB?$AA?$DN@ 00000001800afbc8     libucrtd:signal.obj
 0002:00010c00       ??_C@_1FO@CCGDPEKE@?$AAm?$AAi?$AAn?$AAk?$AAe?$AAr?$AAn?$AAe?$AAl?$AA?2?$AAc?$AAr?$AAt?$AAs?$AA?2@ 00000001800afc00     libucrtd:signal.obj
 0002:00010c60       ??_C@_1M@DMJEIKHL@?$AAr?$AAa?$AAi?$AAs?$AAe@ 00000001800afc60     libucrtd:signal.obj
 0002:00010c70       ??_C@_1DO@MLNEDKGB@?$AA?$CI?$AA?$CC?$AAI?$AAn?$AAv?$AAa?$AAl?$AAi?$AAd?$AA?5?$AAs?$AAi?$AAg?$AAn?$AAa@ 00000001800afc70     libucrtd:signal.obj
 0002:00010cb0       __Lcosarray                00000001800afcb0     libucrtd:lsincos_array.obj
 0002:00010d10       __Lsinarray                00000001800afd10     libucrtd:lsincos_array.obj
 0002:00011090       ??_C@_04OBBKPIAC@cosf@     00000001800b0090     libucrtd:sincos_special.obj
 0002:00011098       ??_C@_04MHPLPEIA@tanf@     00000001800b0098     libucrtd:sincos_special.obj
 0002:000110b0       __Lcosfarray               00000001800b00b0     libucrtd:lsincosf_array.obj
 0002:000110e0       __Lsinfarray               00000001800b00e0     libucrtd:lsincosf_array.obj
 0002:00011100       __log_256_lead             00000001800b0100     libucrtd:log_256_lead_tail_table.obj
 0002:00011910       __log_256_tail             00000001800b0910     libucrtd:log_256_lead_tail_table.obj
 0002:00012120       __two_to_jby64_head_table  00000001800b1120     libucrtd:two_to_jby64_head_tail_table.obj
 0002:00012320       __two_to_jby64_tail_table  00000001800b1320     libucrtd:two_to_jby64_head_tail_table.obj
 0002:00012520       ??_C@_04MBFDLNIM@powf@     00000001800b1520     libucrtd:pow_special.obj
 0002:00012530       __two_to_jby64_table       00000001800b1530     libucrtd:two_to_jby64_table.obj
 0002:00012730       __log_F_inv_qword          00000001800b1730     libucrtd:log_f_inv_qword_table.obj
 0002:00012f40       __L_2_by_pi_bits           00000001800b1f40     libucrtd:l2_by_pi_bits.obj
 0002:00012fe0       ??_C@_1FO@NMANMHOD@?$AAc?$AAa?$AAc?$AAh?$AAe?$AAd?$AA_?$AAs?$AAt?$AAa?$AAt?$AAe?$AA?5?$AA?$DN?$AA?$DN@ 00000001800b1fe0     libucrtd:win_policies.obj
 0002:00013040       ??_C@_1HC@GHLNKBJK@?$AAm?$AAi?$AAn?$AAk?$AAe?$AAr?$AAn?$AAe?$AAl?$AA?2?$AAc?$AAr?$AAt?$AAs?$AA?2@ 00000001800b2040     libucrtd:win_policies.obj
 0002:00013158       ??_C@_0DI@DNFGFCIK@minkernel?2crts?2ucrt?2inc?2corecrt@ 00000001800b2158     libucrtd:argv_wildcards.obj
 0002:00013190       ??_C@_1HE@CEMHPOHH@?$AAm?$AAi?$AAn?$AAk?$AAe?$AAr?$AAn?$AAe?$AAl?$AA?2?$AAc?$AAr?$AAt?$AAs?$AA?2@ 00000001800b2190     libucrtd:argv_wildcards.obj
 0002:00013208       ??_C@_1DK@IBFFOJGB@?$AAc?$AAo?$AAm?$AAm?$AAo?$AAn?$AA_?$AAe?$AAx?$AAp?$AAa?$AAn?$AAd?$AA_?$AAa@ 00000001800b2208     libucrtd:argv_wildcards.obj
 0002:00013250       ??_C@_1MC@FLPKOFON@?$AAt?$AAr?$AAa?$AAi?$AAt?$AAs?$AA?3?$AA?3?$AAt?$AAc?$AAs?$AAn?$AAc?$AAp?$AAy@ 00000001800b2250     libucrtd:argv_wildcards.obj
 0002:00013318       ??_C@_0DK@FPFMIIJB@minkernel?2crts?2ucrt?2src?2appcrt?2@ 00000001800b2318     libucrtd:argv_wildcards.obj
 0002:00013360       ??_C@_1EA@KOCCBLAD@?$AAc?$AAo?$AAp?$AAy?$AA_?$AAa?$AAn?$AAd?$AA_?$AAa?$AAd?$AAd?$AA_?$AAa?$AAr@ 00000001800b2360     libucrtd:argv_wildcards.obj
 0002:000133a0       ??_C@_1KM@GDJIGAGL@?$AAt?$AAr?$AAa?$AAi?$AAt?$AAs?$AA?3?$AA?3?$AAt?$AAc?$AAs?$AAn?$AAc?$AAp?$AAy@ 00000001800b23a0     libucrtd:argv_wildcards.obj
 0002:00013450       ??_C@_1PI@FGFLAGCC@?$AAt?$AAr?$AAa?$AAi?$AAt?$AAs?$AA?3?$AA?3?$AAt?$AAc?$AAs?$AAn?$AAc?$AAp?$AAy@ 00000001800b2450     libucrtd:argv_wildcards.obj
 0002:00013568       ??_C@_1M@HPNHIDJI@?$AAj?$AAa?$AA?9?$AAJ?$AAP@ 00000001800b2568     libucrtd:mbctype.obj
 0002:00013578       ??_C@_1M@BIBDDEMK@?$AAz?$AAh?$AA?9?$AAC?$AAN@ 00000001800b2578     libucrtd:mbctype.obj
 0002:00013588       ??_C@_1M@JLOOOEGK@?$AAk?$AAo?$AA?9?$AAK?$AAR@ 00000001800b2588     libucrtd:mbctype.obj
 0002:00013598       ??_C@_1M@CLNBBOPM@?$AAz?$AAh?$AA?9?$AAT?$AAW@ 00000001800b2598     libucrtd:mbctype.obj
 0002:000135f8       ??_C@_0DE@HGDKNBFD@minkernel?2crts?2ucrt?2src?2appcrt?2@ 00000001800b25f8     libucrtd:mbctype.obj
 0002:00013630       ??_C@_0ED@BLPEHJAI@minkernel?2crts?2ucrt?2src?2desktop@ 00000001800b2630     libucrtd:get_environment_from_os.obj
 0002:00013720       ??_C@_1EA@JGEFHKEI@?$AAa?$AAp?$AAi?$AA?9?$AAm?$AAs?$AA?9?$AAw?$AAi?$AAn?$AA?9?$AAc?$AAo?$AAr?$AAe@ 00000001800b2720     libucrtd:winapi_thunks.obj
 0002:00013760       ??_C@_1DI@IJCEHOCB@?$AAa?$AAp?$AAi?$AA?9?$AAm?$AAs?$AA?9?$AAw?$AAi?$AAn?$AA?9?$AAc?$AAo?$AAr?$AAe@ 00000001800b2760     libucrtd:winapi_thunks.obj
 0002:000137a0       ??_C@_1EI@MPIAOHOC@?$AAa?$AAp?$AAi?$AA?9?$AAm?$AAs?$AA?9?$AAw?$AAi?$AAn?$AA?9?$AAc?$AAo?$AAr?$AAe@ 00000001800b27a0     libucrtd:winapi_thunks.obj
 0002:000137f0       ??_C@_1FK@FPHCKFIE@?$AAa?$AAp?$AAi?$AA?9?$AAm?$AAs?$AA?9?$AAw?$AAi?$AAn?$AA?9?$AAc?$AAo?$AAr?$AAe@ 00000001800b27f0     libucrtd:winapi_thunks.obj
 0002:00013850       ??_C@_1EM@DILCGIIO@?$AAa?$AAp?$AAi?$AA?9?$AAm?$AAs?$AA?9?$AAw?$AAi?$AAn?$AA?9?$AAc?$AAo?$AAr?$AAe@ 00000001800b2850     libucrtd:winapi_thunks.obj
 0002:000138a0       ??_C@_1DM@LNCGDDPN@?$AAa?$AAp?$AAi?$AA?9?$AAm?$AAs?$AA?9?$AAw?$AAi?$AAn?$AA?9?$AAc?$AAo?$AAr?$AAe@ 00000001800b28a0     libucrtd:winapi_thunks.obj
 0002:000138e0       ??_C@_1DO@FPAPJEMD@?$AAa?$AAp?$AAi?$AA?9?$AAm?$AAs?$AA?9?$AAw?$AAi?$AAn?$AA?9?$AAc?$AAo?$AAr?$AAe@ 00000001800b28e0     libucrtd:winapi_thunks.obj
 0002:00013920       ??_C@_1DK@NDHNAHIO@?$AAa?$AAp?$AAi?$AA?9?$AAm?$AAs?$AA?9?$AAw?$AAi?$AAn?$AA?9?$AAc?$AAo?$AAr?$AAe@ 00000001800b2920     libucrtd:winapi_thunks.obj
 0002:00013960       ??_C@_1DM@KGHDGBCM@?$AAa?$AAp?$AAi?$AA?9?$AAm?$AAs?$AA?9?$AAw?$AAi?$AAn?$AA?9?$AAc?$AAo?$AAr?$AAe@ 00000001800b2960     libucrtd:winapi_thunks.obj
 0002:000139a0       ??_C@_1EO@IJIOEFOH@?$AAa?$AAp?$AAi?$AA?9?$AAm?$AAs?$AA?9?$AAw?$AAi?$AAn?$AA?9?$AAr?$AAt?$AAc?$AAo@ 00000001800b29a0     libucrtd:winapi_thunks.obj
 0002:000139f0       ??_C@_1FG@HHGEKANL@?$AAa?$AAp?$AAi?$AA?9?$AAm?$AAs?$AA?9?$AAw?$AAi?$AAn?$AA?9?$AAs?$AAe?$AAc?$AAu@ 00000001800b29f0     libucrtd:winapi_thunks.obj
 0002:00013a50       ??_C@_1EG@DBIOJECG@?$AAe?$AAx?$AAt?$AA?9?$AAm?$AAs?$AA?9?$AAw?$AAi?$AAn?$AA?9?$AAn?$AAt?$AAu?$AAs@ 00000001800b2a50     libucrtd:winapi_thunks.obj
 0002:00013aa0       ??_C@_1EO@FIHMJCLF@?$AAe?$AAx?$AAt?$AA?9?$AAm?$AAs?$AA?9?$AAw?$AAi?$AAn?$AA?9?$AAn?$AAt?$AAu?$AAs@ 00000001800b2aa0     libucrtd:winapi_thunks.obj
 0002:00013af0       ??_C@_1BC@DNHGCMLG@?$AAa?$AAd?$AAv?$AAa?$AAp?$AAi?$AA3?$AA2@ 00000001800b2af0     libucrtd:winapi_thunks.obj
 0002:00013b08       ??_C@_1M@OAIMIKLP@?$AAn?$AAt?$AAd?$AAl?$AAl@ 00000001800b2b08     libucrtd:winapi_thunks.obj
 0002:00013b20       ??_C@_1EG@DPGNFKGC@?$AAa?$AAp?$AAi?$AA?9?$AAm?$AAs?$AA?9?$AAw?$AAi?$AAn?$AA?9?$AAa?$AAp?$AAp?$AAm@ 00000001800b2b20     libucrtd:winapi_thunks.obj
 0002:00013b68       ??_C@_1O@BCCLBEOE@?$AAu?$AAs?$AAe?$AAr?$AA3?$AA2@ 00000001800b2b68     libucrtd:winapi_thunks.obj
 0002:00013b80       ??_C@_1HE@OILMBOBA@?$AAm?$AAi?$AAn?$AAk?$AAe?$AAr?$AAn?$AAe?$AAl?$AA?2?$AAc?$AAr?$AAt?$AAs?$AA?2@ 00000001800b2b80     libucrtd:winapi_thunks.obj
 0002:00013bf8       ??_C@_0BA@FHFNEAED@AreFileApisANSI@ 00000001800b2bf8     libucrtd:winapi_thunks.obj
 0002:00013c10       ??_C@_0BA@HNOPNCHB@GetActiveWindow@ 00000001800b2c10     libucrtd:winapi_thunks.obj
 0002:00013c28       ??_C@_0BD@HHGDFDBJ@GetLastActivePopup@ 00000001800b2c28     libucrtd:winapi_thunks.obj
 0002:00013c48       ??_C@_0BI@DFKBFLJE@GetProcessWindowStation@ 00000001800b2c48     libucrtd:winapi_thunks.obj
 0002:00013c68       ??_C@_0BK@DEKFELLI@GetUserObjectInformationW@ 00000001800b2c68     libucrtd:winapi_thunks.obj
 0002:00013c98       ??_C@_0O@KKBNKAPF@LCMapStringEx@ 00000001800b2c98     libucrtd:winapi_thunks.obj
 0002:00013cb0       ??_C@_0BB@HBDEELFH@LocaleNameToLCID@ 00000001800b2cb0     libucrtd:winapi_thunks.obj
 0002:00013cd0       ??_C@_0M@CHKKJDAI@MessageBoxA@ 00000001800b2cd0     libucrtd:winapi_thunks.obj
 0002:00013ce8       ??_C@_0M@DLDCCGNP@MessageBoxW@ 00000001800b2ce8     libucrtd:winapi_thunks.obj
 0002:00013cf8       ??_C@_0CF@OJOFEIGO@AppPolicyGetProcessTerminationM@ 00000001800b2cf8     libucrtd:winapi_thunks.obj
 0002:00013d28       ??_C@_0CE@OICFMIKE@AppPolicyGetShowDeveloperDiagno@ 00000001800b2d28     libucrtd:winapi_thunks.obj
 0002:00013d50       ??_C@_0BL@ODDJNEDA@AppPolicyGetWindowingModel@ 00000001800b2d50     libucrtd:winapi_thunks.obj
 0002:00013d70       ??_C@_1GC@GBMDABED@?$AAm?$AAi?$AAn?$AAk?$AAe?$AAr?$AAn?$AAe?$AAl?$AA?2?$AAc?$AAr?$AAt?$AAs?$AA?2@ 00000001800b2d70     libucrtd:_sftbuf.obj
 0002:00013dd8       ??_C@_0DB@EPIHMFLB@minkernel?2crts?2ucrt?2src?2appcrt?2@ 00000001800b2dd8     libucrtd:_sftbuf.obj
 0002:00013e10       ??_C@_1FO@GEKPJHID@?$AAm?$AAi?$AAn?$AAk?$AAe?$AAr?$AAn?$AAe?$AAl?$AA?2?$AAc?$AAr?$AAt?$AAs?$AA?2@ 00000001800b2e10     libucrtd:expand.obj
 0002:00013e70       ??_C@_1BK@JMCGJOCC@?$AA_?$AAe?$AAx?$AAp?$AAa?$AAn?$AAd?$AA_?$AAb?$AAa?$AAs?$AAe@ 00000001800b2e70     libucrtd:expand.obj
 0002:00013f10       ??_C@_03OEIAHPBN@INF@      00000001800b2f10     libucrtd:cvt.obj
 0002:00013f14       ??_C@_03OJHLLCGB@inf@      00000001800b2f14     libucrtd:cvt.obj
 0002:00013f18       ??_C@_03LKNCIKJB@NAN@      00000001800b2f18     libucrtd:cvt.obj
 0002:00013f1c       ??_C@_03LHCJEHON@nan@      00000001800b2f1c     libucrtd:cvt.obj
 0002:00013f20       ??_C@_09OFJJIMPC@NAN?$CISNAN?$CJ@ 00000001800b2f20     libucrtd:cvt.obj
 0002:00013f30       ??_C@_09IPFBKMDL@nan?$CIsnan?$CJ@ 00000001800b2f30     libucrtd:cvt.obj
 0002:00013f40       ??_C@_08IKHNHAJ@NAN?$CIIND?$CJ@ 00000001800b2f40     libucrtd:cvt.obj
 0002:00013f50       ??_C@_08OFCDMILK@nan?$CIind?$CJ@ 00000001800b2f50     libucrtd:cvt.obj
 0002:00013f60       ??_C@_1FO@GKAKAPLI@?$AAm?$AAi?$AAn?$AAk?$AAe?$AAr?$AAn?$AAe?$AAl?$AA?2?$AAc?$AAr?$AAt?$AAs?$AA?2@ 00000001800b2f60     libucrtd:cvt.obj
 0002:00013fc0       ??_C@_1DE@EHGIGIDK@?$AAf?$AAp?$AA_?$AAf?$AAo?$AAr?$AAm?$AAa?$AAt?$AA_?$AAn?$AAa?$AAn?$AA_?$AAo@ 00000001800b2fc0     libucrtd:cvt.obj
 0002:00014000       ??_C@_1LI@PCMLJPCO@?$AAs?$AAt?$AAr?$AAc?$AAp?$AAy?$AA_?$AAs?$AA?$CI?$AA?5?$AAr?$AAe?$AAs?$AAu?$AAl@ 00000001800b3000     libucrtd:cvt.obj
 0002:000140c0       ??_C@_1KO@LJHOFBCD@?$AAr?$AAe?$AAs?$AAu?$AAl?$AAt?$AA_?$AAb?$AAu?$AAf?$AAf?$AAe?$AAr?$AA_?$AAc@ 00000001800b30c0     libucrtd:cvt.obj
 0002:00014170       ??_C@_1CK@BOLHOMFO@?$AAf?$AAp?$AA_?$AAf?$AAo?$AAr?$AAm?$AAa?$AAt?$AA_?$AAe?$AA_?$AAi?$AAn?$AAt@ 00000001800b3170     libucrtd:cvt.obj
 0002:000141a0       ??_C@_1BBE@LHDOMEDC@?$AAs?$AAt?$AAr?$AAc?$AAp?$AAy?$AA_?$AAs?$AA?$CI?$AA?5?$AAp?$AA?0?$AA?5?$AAr?$AAe@ 00000001800b31a0     libucrtd:cvt.obj
 0002:000142b4       ??_C@_05KLBDPFGC@e?$CL000@ 00000001800b32b4     libucrtd:cvt.obj
 0002:000142c0       ??_C@_1IC@FILKPBAB@?$AAr?$AAe?$AAs?$AAu?$AAl?$AAt?$AA_?$AAb?$AAu?$AAf?$AAf?$AAe?$AAr?$AA_?$AAc@ 00000001800b32c0     libucrtd:cvt.obj
 0002:00014348       ??_C@_1BI@PNBDLNBB@?$AAf?$AAp?$AA_?$AAf?$AAo?$AAr?$AAm?$AAa?$AAt?$AA_?$AAa@ 00000001800b3348     libucrtd:cvt.obj
 0002:00014360       ??_C@_1CC@LDAHJAKK@?$AA_?$AA_?$AAa?$AAc?$AAr?$AAt?$AA_?$AAf?$AAp?$AA_?$AAf?$AAo?$AAr?$AAm?$AAa@ 00000001800b3360     libucrtd:cvt.obj
 0002:00014388       ??_C@_1DA@NMLJJOCO@?$AAr?$AAe?$AAs?$AAu?$AAl?$AAt?$AA_?$AAb?$AAu?$AAf?$AAf?$AAe?$AAr?$AA_?$AAc@ 00000001800b3388     libucrtd:cvt.obj
 0002:000143b8       ??_C@_1DE@MNOPBCOK@?$AAs?$AAc?$AAr?$AAa?$AAt?$AAc?$AAh?$AA_?$AAb?$AAu?$AAf?$AAf?$AAe?$AAr?$AA?5@ 00000001800b33b8     libucrtd:cvt.obj
 0002:000143f0       ??_C@_1DC@CKBKNFKH@?$AAs?$AAc?$AAr?$AAa?$AAt?$AAc?$AAh?$AA_?$AAb?$AAu?$AAf?$AAf?$AAe?$AAr?$AA_@ 00000001800b33f0     libucrtd:cvt.obj
 0002:00014430       ??_C@_1EI@JAHBOGIM@?$AA?$CI?$AA?$CC?$AAU?$AAn?$AAs?$AAu?$AAp?$AAp?$AAo?$AAr?$AAt?$AAe?$AAd?$AA?5?$AAf@ 00000001800b3430     libucrtd:cvt.obj
 0002:00014478       ??_C@_1DK@NBNOAGKB@?$AAd?$AAe?$AAs?$AAt?$AAi?$AAn?$AAa?$AAt?$AAi?$AAo?$AAn?$AA_?$AAc?$AAo?$AAu@ 00000001800b3478     libucrtd:wctomb.obj
 0002:000144c0       ??_C@_1GE@FCCEPHFG@?$AAm?$AAi?$AAn?$AAk?$AAe?$AAr?$AAn?$AAe?$AAl?$AA?2?$AAc?$AAr?$AAt?$AAs?$AA?2@ 00000001800b34c0     libucrtd:wctomb.obj
 0002:00014528       ??_C@_1CC@DNLKBKLK@?$AA_?$AAw?$AAc?$AAt?$AAo?$AAm?$AAb?$AA_?$AAi?$AAn?$AAt?$AAe?$AAr?$AAn?$AAa@ 00000001800b3528     libucrtd:wctomb.obj
 0002:00014550       ??_C@_1CM@ENFEGCNE@?$AAd?$AAe?$AAs?$AAt?$AAi?$AAn?$AAa?$AAt?$AAi?$AAo?$AAn?$AA_?$AAc?$AAo?$AAu@ 00000001800b3550     libucrtd:wctomb.obj
 0002:00014580       ??_C@_1MK@HFAFPEDL@?$AAl?$AAo?$AAc?$AAa?$AAl?$AAe?$AA?9?$AA?$DO?$AAl?$AAo?$AAc?$AAi?$AAn?$AAf?$AAo@ 00000001800b3580     libucrtd:mbtowc.obj
 0002:00014650       ??_C@_1GE@CGIHMDEJ@?$AAm?$AAi?$AAn?$AAk?$AAe?$AAr?$AAn?$AAe?$AAl?$AA?2?$AAc?$AAr?$AAt?$AAs?$AA?2@ 00000001800b3650     libucrtd:mbtowc.obj
 0002:000146c0       ??_C@_1HA@KNBGJAIN@?$AAU?$AAT?$AAF?$AA?9?$AA8?$AA?5?$AAi?$AAs?$AAn?$AA?8?$AAt?$AA?5?$AAs?$AAu?$AAp@ 00000001800b36c0     libucrtd:mbtowc.obj
 0002:00014730       ??_C@_1OM@FCINAOPP@?$AAl?$AAo?$AAc?$AAa?$AAl?$AAe?$AA?9?$AA?$DO?$AAl?$AAo?$AAc?$AAi?$AAn?$AAf?$AAo@ 00000001800b3730     libucrtd:mbtowc.obj
 0002:00014820       ??_C@_1GA@CPNOFAH@?$AAl?$AAo?$AAc?$AAa?$AAl?$AAe?$AA?9?$AA?$DO?$AAl?$AAo?$AAc?$AAi?$AAn?$AAf?$AAo@ 00000001800b3820     libucrtd:mbtowc.obj
 0002:00014880       ??_C@_1GA@LFAOKOOP@?$AAm?$AAi?$AAn?$AAk?$AAe?$AAr?$AAn?$AAe?$AAl?$AA?2?$AAc?$AAr?$AAt?$AAs?$AA?2@ 00000001800b3880     libucrtd:dbgrptt.obj
 0002:000148e0       ??_C@_1CA@KHJHLKA@?$AA_?$AAV?$AAC?$AAr?$AAt?$AAD?$AAb?$AAg?$AAR?$AAe?$AAp?$AAo?$AAr?$AAt?$AAA@ 00000001800b38e0     libucrtd:dbgrptt.obj
 0002:00014900       ??_C@_1FA@JPHJBHEM@?$AA_?$AAi?$AAt?$AAo?$AAa?$AA_?$AAs?$AA?$CI?$AAn?$AAL?$AAi?$AAn?$AAe?$AA?0?$AA?5@ 00000001800b3900     libucrtd:dbgrptt.obj
 0002:00014950       ??_C@_0CG@BNGLOCEO@Second?5Chance?5Assertion?5Failed?3@ 00000001800b3950     libucrtd:dbgrptt.obj
 0002:00014978       ??_C@_0P@DFJNDPOP@?$DMfile?5unknown?$DO@ 00000001800b3978     libucrtd:dbgrptt.obj
 0002:00014988       ??_C@_07BHGABMGB@?0?5Line?5@ 00000001800b3988     libucrtd:dbgrptt.obj
 0002:00014990       ??_C@_1JI@GAALPGBM@?$AAs?$AAt?$AAr?$AAc?$AAp?$AAy?$AA_?$AAs?$AA?$CI?$AAs?$AAz?$AAU?$AAs?$AAe?$AAr@ 00000001800b3990     libucrtd:dbgrptt.obj
 0002:00014a28       ??_C@_0CL@EACFGMNB@_CrtDbgReport?3?5String?5too?5long?5@ 00000001800b3a28     libucrtd:dbgrptt.obj
 0002:00014a60       ??_C@_1KK@GIGAEDMO@?$AAs?$AAt?$AAr?$AAc?$AAp?$AAy?$AA_?$AAs?$AA?$CI?$AAs?$AAz?$AAL?$AAi?$AAn?$AAe@ 00000001800b3a60     libucrtd:dbgrptt.obj
 0002:00014b10       ??_C@_0BD@CAENFOHP@Assertion?5failed?3?5@ 00000001800b3b10     libucrtd:dbgrptt.obj
 0002:00014b30       ??_C@_1FK@NPGBPOFO@?$AAs?$AAt?$AAr?$AAc?$AAa?$AAt?$AA_?$AAs?$AA?$CI?$AAs?$AAz?$AAL?$AAi?$AAn?$AAe@ 00000001800b3b30     libucrtd:dbgrptt.obj
 0002:00014b90       ??_C@_1EI@CACDLAFK@?$AAs?$AAt?$AAr?$AAc?$AAa?$AAt?$AA_?$AAs?$AA?$CI?$AAs?$AAz?$AAL?$AAi?$AAn?$AAe@ 00000001800b3b90     libucrtd:dbgrptt.obj
 0002:00014bd8       ??_C@_01LIIJDEN@?$AN@      00000001800b3bd8     libucrtd:dbgrptt.obj
 0002:00014be0       ??_C@_1EI@LDHJEDO@?$AAs?$AAt?$AAr?$AAc?$AAa?$AAt?$AA_?$AAs?$AA?$CI?$AAs?$AAz?$AAL?$AAi?$AAn?$AAe@ 00000001800b3be0     libucrtd:dbgrptt.obj
 0002:00014c28       ??_C@_0M@IPILFDFN@?$CFs?$CI?$CFd?$CJ?5?3?5?$CFs@ 00000001800b3c28     libucrtd:dbgrptt.obj
 0002:00014c40       ??_C@_1JG@CPKCIOEE@?$AAs?$AAt?$AAr?$AAc?$AAp?$AAy?$AA_?$AAs?$AA?$CI?$AAs?$AAz?$AAO?$AAu?$AAt?$AAM@ 00000001800b3c40     libucrtd:dbgrptt.obj
 0002:00014ce0       ??_C@_1FI@IBIOIHEG@?$AAs?$AAt?$AAr?$AAc?$AAp?$AAy?$AA_?$AAs?$AA?$CI?$AAs?$AAz?$AAO?$AAu?$AAt?$AAM@ 00000001800b3ce0     libucrtd:dbgrptt.obj
 0002:00014d40       ??_C@_1IM@OOKIFKOH@?$AAe?$AA?5?$AA?$DN?$AA?5?$AAm?$AAb?$AAs?$AAt?$AAo?$AAw?$AAc?$AAs?$AA_?$AAs?$AA?$CI@ 00000001800b3d40     libucrtd:dbgrptt.obj
 0002:00014dd0       ??_C@_1MC@IGEECMDB@?$AAw?$AAc?$AAs?$AAc?$AAp?$AAy?$AA_?$AAs?$AA?$CI?$AAs?$AAz?$AAO?$AAu?$AAt?$AAM@ 00000001800b3dd0     libucrtd:dbgrptt.obj
 0002:00014ea0       ??_C@_1HO@PJOFIKFE@?$AA_?$AAC?$AAr?$AAt?$AAD?$AAb?$AAg?$AAR?$AAe?$AAp?$AAo?$AAr?$AAt?$AA?3?$AA?5@ 00000001800b3ea0     libucrtd:dbgrptt.obj
 0002:00014f20       ??_C@_1CA@HPALHDOD@?$AA_?$AAV?$AAC?$AAr?$AAt?$AAD?$AAb?$AAg?$AAR?$AAe?$AAp?$AAo?$AAr?$AAt?$AAW@ 00000001800b3f20     libucrtd:dbgrptt.obj
 0002:00014f40       ??_C@_1FA@CNLLOMHI@?$AA_?$AAi?$AAt?$AAo?$AAw?$AA_?$AAs?$AA?$CI?$AAn?$AAL?$AAi?$AAn?$AAe?$AA?0?$AA?5@ 00000001800b3f40     libucrtd:dbgrptt.obj
 0002:00014f90       ??_C@_1EM@MJFLEDMB@?$AAS?$AAe?$AAc?$AAo?$AAn?$AAd?$AA?5?$AAC?$AAh?$AAa?$AAn?$AAc?$AAe?$AA?5?$AAA@ 00000001800b3f90     libucrtd:dbgrptt.obj
 0002:00014fe0       ??_C@_1BO@OCHMLCAG@?$AA?$DM?$AAf?$AAi?$AAl?$AAe?$AA?5?$AAu?$AAn?$AAk?$AAn?$AAo?$AAw?$AAn?$AA?$DO@ 00000001800b3fe0     libucrtd:dbgrptt.obj
 0002:00015000       ??_C@_1BA@ELMMDCFC@?$AA?0?$AA?5?$AAL?$AAi?$AAn?$AAe?$AA?5@ 00000001800b4000     libucrtd:dbgrptt.obj
 0002:00015010       ??_C@_1JK@KHFABAEO@?$AAw?$AAc?$AAs?$AAc?$AAp?$AAy?$AA_?$AAs?$AA?$CI?$AAs?$AAz?$AAU?$AAs?$AAe?$AAr@ 00000001800b4010     libucrtd:dbgrptt.obj
 0002:000150b0       ??_C@_1KO@DGAHENCH@?$AAw?$AAc?$AAs?$AAc?$AAp?$AAy?$AA_?$AAs?$AA?$CI?$AAs?$AAz?$AAL?$AAi?$AAn?$AAe@ 00000001800b40b0     libucrtd:dbgrptt.obj
 0002:00015160       ??_C@_1CG@FFFGGODN@?$AAA?$AAs?$AAs?$AAe?$AAr?$AAt?$AAi?$AAo?$AAn?$AA?5?$AAf?$AAa?$AAi?$AAl?$AAe@ 00000001800b4160     libucrtd:dbgrptt.obj
 0002:00015190       ??_C@_1FK@HPADHBBD@?$AAw?$AAc?$AAs?$AAc?$AAa?$AAt?$AA_?$AAs?$AA?$CI?$AAs?$AAz?$AAL?$AAi?$AAn?$AAe@ 00000001800b4190     libucrtd:dbgrptt.obj
 0002:000151f0       ??_C@_1EK@NMDFGHMF@?$AAw?$AAc?$AAs?$AAc?$AAa?$AAt?$AA_?$AAs?$AA?$CI?$AAs?$AAz?$AAL?$AAi?$AAn?$AAe@ 00000001800b41f0     libucrtd:dbgrptt.obj
 0002:0001523c       ??_C@_13CMNBPIDO@?$AA?$AN@ 00000001800b423c     libucrtd:dbgrptt.obj
 0002:00015240       ??_C@_1EK@PHCBEDKB@?$AAw?$AAc?$AAs?$AAc?$AAa?$AAt?$AA_?$AAs?$AA?$CI?$AAs?$AAz?$AAL?$AAi?$AAn?$AAe@ 00000001800b4240     libucrtd:dbgrptt.obj
 0002:00015290       ??_C@_1BM@GIBPMLNL@?$AA?$CF?$AAl?$AAs?$AA?$CI?$AA?$CF?$AAd?$AA?$CJ?$AA?5?$AA?3?$AA?5?$AA?$CF?$AAl?$AAs@ 00000001800b4290     libucrtd:dbgrptt.obj
 0002:000152b0       ??_C@_1JI@EACPGHID@?$AAw?$AAc?$AAs?$AAc?$AAp?$AAy?$AA_?$AAs?$AA?$CI?$AAs?$AAz?$AAO?$AAu?$AAt?$AAM@ 00000001800b42b0     libucrtd:dbgrptt.obj
 0002:00015350       ??_C@_1FI@DBAIJPJE@?$AAw?$AAc?$AAs?$AAc?$AAp?$AAy?$AA_?$AAs?$AA?$CI?$AAs?$AAz?$AAO?$AAu?$AAt?$AAM@ 00000001800b4350     libucrtd:dbgrptt.obj
 0002:000153b0       ??_C@_1IK@LEBMBAP@?$AAw?$AAc?$AAs?$AAt?$AAo?$AAm?$AAb?$AAs?$AA_?$AAs?$AA?$CI?$AAn?$AAu?$AAl?$AAl@ 00000001800b43b0     libucrtd:dbgrptt.obj
 0002:00015440       ??_C@_1MA@LBAMNNOB@?$AAs?$AAt?$AAr?$AAc?$AAp?$AAy?$AA_?$AAs?$AA?$CI?$AAs?$AAz?$AAO?$AAu?$AAt?$AAM@ 00000001800b4440     libucrtd:dbgrptt.obj
 0002:00015500       ??_C@_0DP@GNPEPHJD@_CrtDbgReport?3?5String?5too?5long?5@ 00000001800b4500     libucrtd:dbgrptt.obj
 0002:00015540       ??_C@_1IE@CPGKIAGP@?$AAw?$AAc?$AAs?$AAt?$AAo?$AAm?$AAb?$AAs?$AA_?$AAs?$AA?$CI?$AA?$CG?$AAr?$AAe?$AAt@ 00000001800b4540     libucrtd:dbgrptt.obj
 0002:000155d0       __newctype                 00000001800b45d0     libucrtd:ctype.obj
 0002:000158d0       __newclmap                 00000001800b48d0     libucrtd:ctype.obj
 0002:00015a50       __newcumap                 00000001800b4a50     libucrtd:ctype.obj
 0002:00015bd0       ??_C@_1FE@KNPCCODH@?$AA?$CI?$AA?$CC?$AAC?$AAo?$AAr?$AAr?$AAu?$AAp?$AAt?$AAe?$AAd?$AA?5?$AAp?$AAo?$AAi@ 00000001800b4bd0     libucrtd:getstringtypea.obj
 0002:00015c30       ??_C@_1EM@GPJLADAA@?$AAV?$AAC?$AAC?$AAR?$AAT?$AA?2?$AAv?$AAc?$AAr?$AAu?$AAn?$AAt?$AAi?$AAm?$AAe@ 00000001800b4c30     libucrtd:getstringtypea.obj
 0002:00015c80       ??_C@_0DJ@HCPJODDK@minkernel?2crts?2ucrt?2src?2appcrt?2@ 00000001800b4c80     libucrtd:getstringtypea.obj
 0002:00015cc0       ??_C@_1BKC@NBNHJIDM@?$AA?$CI?$AAp?$AAt?$AAl?$AAo?$AAc?$AAi?$AA?9?$AA?$DO?$AAl?$AAc?$AA_?$AAc?$AAa?$AAt@ 00000001800b4cc0     libucrtd:locale_refcounting.obj
 0002:00015e70       ??_C@_1HK@HCNMEOLA@?$AAm?$AAi?$AAn?$AAk?$AAe?$AAr?$AAn?$AAe?$AAl?$AA?2?$AAc?$AAr?$AAt?$AAs?$AA?2@ 00000001800b4e70     libucrtd:locale_refcounting.obj
 0002:00015ef0       ??_C@_1CC@CHNFGJIC@?$AAc?$AAo?$AAm?$AAm?$AAo?$AAn?$AA_?$AAt?$AAc?$AAs?$AAn?$AAc?$AAp?$AAy?$AA_@ 00000001800b4ef0     libucrtd:wcsncpy_s.obj
 0002:00015f14       ??_C@_15PJPFLCCM@?$AAu?$AAk@ 00000001800b4f14     libucrtd:get_qualified_locale.obj
 0002:00015f30       ??_C@_1BO@JGGHCINF@?$AAl?$AAh?$AAs?$AA?5?$AA?$CB?$AA?$DN?$AA?5?$AAn?$AAu?$AAl?$AAl?$AAp?$AAt?$AAr@ 00000001800b4f30     libucrtd:wcsnicmp.obj
 0002:00015f50       ??_C@_1BO@FHLPEAOG@?$AAr?$AAh?$AAs?$AA?5?$AA?$CB?$AA?$DN?$AA?5?$AAn?$AAu?$AAl?$AAl?$AAp?$AAt?$AAr@ 00000001800b4f50     libucrtd:wcsnicmp.obj
 0002:00015f70       ??_C@_1GG@FIFJEMIA@?$AAm?$AAi?$AAn?$AAk?$AAe?$AAr?$AAn?$AAe?$AAl?$AA?2?$AAc?$AAr?$AAt?$AAs?$AA?2@ 00000001800b4f70     libucrtd:strnicmp.obj
 0002:00015fd8       ??_C@_1BI@BJLEPLEF@?$AA_?$AAs?$AAt?$AAr?$AAn?$AAi?$AAc?$AAm?$AAp?$AA_?$AAl@ 00000001800b4fd8     libucrtd:strnicmp.obj
 0002:00015ff0       ??_C@_1CC@JLPHKJPH@?$AAc?$AAo?$AAu?$AAn?$AAt?$AA?5?$AA?$DM?$AA?$DN?$AA?5?$AAI?$AAN?$AAT?$AA_?$AAM?$AAA@ 00000001800b4ff0     libucrtd:strnicmp.obj
 0002:00016018       ??_C@_1BE@BHJDFFNA@?$AA_?$AAs?$AAt?$AAr?$AAn?$AAi?$AAc?$AAm?$AAp@ 00000001800b5018     libucrtd:strnicmp.obj
 0002:00016030       ??_C@_1DC@MDAAFACM@?$AA?$CI?$AA?$CC?$AAI?$AAn?$AAv?$AAa?$AAl?$AAi?$AAd?$AA?5?$AAo?$AAp?$AAe?$AAn?$AA?5@ 00000001800b5030     libucrtd:open.obj
 0002:00016070       ??_C@_1FM@EFELGMIP@?$AAm?$AAi?$AAn?$AAk?$AAe?$AAr?$AAn?$AAe?$AAl?$AA?2?$AAc?$AAr?$AAt?$AAs?$AA?2@ 00000001800b5070     libucrtd:open.obj
 0002:000160d0       ??_C@_1CI@CBNKIJOA@?$AAd?$AAe?$AAc?$AAo?$AAd?$AAe?$AA_?$AAa?$AAc?$AAc?$AAe?$AAs?$AAs?$AA_?$AAf@ 00000001800b50d0     libucrtd:open.obj
 0002:000160f8       ??_C@_1DC@MNGJFJEL@?$AAd?$AAe?$AAc?$AAo?$AAd?$AAe?$AA_?$AAo?$AAp?$AAe?$AAn?$AA_?$AAc?$AAr?$AAe@ 00000001800b50f8     libucrtd:open.obj
 0002:00016130       ??_C@_1DI@OAOBKLOM@?$AA?$CI?$AA?$CC?$AAI?$AAn?$AAv?$AAa?$AAl?$AAi?$AAd?$AA?5?$AAs?$AAh?$AAa?$AAr?$AAi@ 00000001800b5130     libucrtd:open.obj
 0002:00016168       ??_C@_1CK@LFHOGGAL@?$AAd?$AAe?$AAc?$AAo?$AAd?$AAe?$AA_?$AAs?$AAh?$AAa?$AAr?$AAi?$AAn?$AAg?$AA_@ 00000001800b5168     libucrtd:open.obj
 0002:00016198       ??_C@_1BK@MIHMAFGB@?$AAi?$AAs?$AA_?$AAt?$AAe?$AAx?$AAt?$AA_?$AAm?$AAo?$AAd?$AAe@ 00000001800b5198     libucrtd:open.obj
 0002:000161b8       ??_C@_1CG@ICBEBDJJ@?$AA_?$AAg?$AAe?$AAt?$AA_?$AAf?$AAm?$AAo?$AAd?$AAe?$AA?$CI?$AA?$CG?$AAf?$AAm?$AAo@ 00000001800b51b8     libucrtd:open.obj
 0002:000161e0       ??_C@_1CI@FIBMFMKJ@?$AAc?$AAo?$AAn?$AAf?$AAi?$AAg?$AAu?$AAr?$AAe?$AA_?$AAt?$AAe?$AAx?$AAt?$AA_@ 00000001800b51e0     libucrtd:open.obj
 0002:00016208       ??_C@_1DM@GAGCJPHI@?$AA?$CI?$AAo?$AAf?$AAl?$AAa?$AAg?$AA?5?$AA?$CG?$AA?5?$AAt?$AAe?$AAx?$AAt?$AA_?$AAm@ 00000001800b5208     libucrtd:open.obj
 0002:00016248       ??_C@_1CM@IDLMKMPG@?$AA0?$AA?5?$AA?$CG?$AA?$CG?$AA?5?$AA?$CC?$AAI?$AAn?$AAt?$AAe?$AAr?$AAn?$AAa?$AAl?$AA?5@ 00000001800b5248     libucrtd:open.obj
 0002:00016280       ??_C@_1IA@IENOJNJF@?$AA0?$AA?5?$AA?$CG?$AA?$CG?$AA?5?$AA?$CC?$AAO?$AAn?$AAl?$AAy?$AA?5?$AAU?$AAT?$AAF?$AA?9@ 00000001800b5280     libucrtd:open.obj
 0002:00016300       ??_C@_1CA@DFHJGMAL@?$AAp?$AAa?$AAt?$AAh?$AA?5?$AA?$CB?$AA?$DN?$AA?5?$AAn?$AAu?$AAl?$AAl?$AAp?$AAt?$AAr@ 00000001800b5300     libucrtd:open.obj
 0002:00016320       ??_C@_1BO@CKEBPLGM@?$AAp?$AAf?$AAh?$AA?5?$AA?$CB?$AA?$DN?$AA?5?$AAn?$AAu?$AAl?$AAl?$AAp?$AAt?$AAr@ 00000001800b5320     libucrtd:open.obj
 0002:00016340       ??_C@_1CM@DJGGMBLF@?$AAc?$AAo?$AAm?$AAm?$AAo?$AAn?$AA_?$AAs?$AAo?$AAp?$AAe?$AAn?$AA_?$AAd?$AAi@ 00000001800b5340     libucrtd:open.obj
 0002:00016370       ??_C@_1FC@KMHFBDGJ@?$AA?$CI?$AAp?$AAm?$AAo?$AAd?$AAe?$AA?5?$AA?$CG?$AA?5?$AA?$CI?$AA?$HO?$AA?$CI?$AA_?$AAS?$AA_@ 00000001800b5370     libucrtd:open.obj
 0002:000163c8       ??_C@_0DB@JFFPGLDM@minkernel?2crts?2ucrt?2src?2appcrt?2@ 00000001800b53c8     libucrtd:osfinfo.obj
 0002:00016400       ??_C@_1EM@BPODPNEJ@?$AAs?$AAt?$AAa?$AAt?$AAi?$AAc?$AA_?$AAc?$AAa?$AAs?$AAt?$AA?$DM?$AAu?$AAn?$AAs@ 00000001800b5400     libucrtd:osfinfo.obj
 0002:00016450       ??_C@_1GC@LDGKBAFM@?$AAm?$AAi?$AAn?$AAk?$AAe?$AAr?$AAn?$AAe?$AAl?$AA?2?$AAc?$AAr?$AAt?$AAs?$AA?2@ 00000001800b5450     libucrtd:osfinfo.obj
 0002:000164b8       ??_C@_1DM@JELNOMLN@?$AA_?$AA_?$AAa?$AAc?$AAr?$AAt?$AA_?$AAl?$AAo?$AAw?$AAi?$AAo?$AA_?$AAe?$AAn@ 00000001800b54b8     libucrtd:osfinfo.obj
 0002:000164f8       ??_C@_1BO@EMBOBGKE@?$AA_?$AAg?$AAe?$AAt?$AA_?$AAo?$AAs?$AAf?$AAh?$AAa?$AAn?$AAd?$AAl?$AAe@ 00000001800b54f8     libucrtd:osfinfo.obj
 0002:00016540       ??_C@_1GA@MPOOLHCO@?$AAm?$AAi?$AAn?$AAk?$AAe?$AAr?$AAn?$AAe?$AAl?$AA?2?$AAc?$AAr?$AAt?$AAs?$AA?2@ 00000001800b5540     libucrtd:commit.obj
 0002:000165a0       ??_C@_1BA@FLNMBBIM@?$AA_?$AAc?$AAo?$AAm?$AAm?$AAi?$AAt@ 00000001800b55a0     libucrtd:commit.obj
 0002:000165e0       ??_C@_1FO@CAMPMGCN@?$AAm?$AAi?$AAn?$AAk?$AAe?$AAr?$AAn?$AAe?$AAl?$AA?2?$AAc?$AAr?$AAt?$AAs?$AA?2@ 00000001800b55e0     libucrtd:write.obj
 0002:00016640       ??_C@_1CA@PNHCPGNO@?$AA_?$AAw?$AAr?$AAi?$AAt?$AAe?$AA_?$AAi?$AAn?$AAt?$AAe?$AAr?$AAn?$AAa?$AAl@ 00000001800b5640     libucrtd:write.obj
 0002:00016660       ??_C@_1CK@MMEFCHHN@?$AA?$CB?$AA_?$AAd?$AAb?$AAc?$AAs?$AAB?$AAu?$AAf?$AAf?$AAe?$AAr?$AAU?$AAs?$AAe@ 00000001800b5660     libucrtd:write.obj
 0002:00016690       ??_C@_1EG@LICJGLJJ@?$AA1?$AA?5?$AA?$DM?$AA?5?$AAm?$AAb?$AA_?$AAl?$AAe?$AAn?$AA?5?$AA?$CG?$AA?$CG?$AA?5?$AAm@ 00000001800b5690     libucrtd:write.obj
 0002:000166e0       ??_C@_1FC@NFILPJB@?$AAm?$AAb?$AA_?$AAb?$AAu?$AAf?$AA_?$AAu?$AAs?$AAe?$AAd?$AA?5?$AA?$CL?$AA?5?$AAb@ 00000001800b56e0     libucrtd:write.obj
 0002:00016740       ??_C@_1FC@HEJOPHLA@?$AAa?$AAv?$AAa?$AAi?$AAl?$AAa?$AAb?$AAl?$AAe?$AA_?$AAb?$AAy?$AAt?$AAe?$AAs@ 00000001800b5740     libucrtd:write.obj
 0002:000167a0       ??_C@_1GG@JOGHJGBM@?$AA_?$AAi?$AAs?$AAl?$AAe?$AAa?$AAd?$AAb?$AAy?$AAt?$AAe?$AA_?$AAf?$AAa?$AAs@ 00000001800b57a0     libucrtd:write.obj
 0002:00016808       ??_C@_1BM@NCANHCIP@?$AA_?$AAw?$AAr?$AAi?$AAt?$AAe?$AA_?$AAn?$AAo?$AAl?$AAo?$AAc?$AAk@ 00000001800b5808     libucrtd:write.obj
 0002:00016828       ??_C@_1CK@CPEAGIIP@?$AAb?$AAu?$AAf?$AAf?$AAe?$AAr?$AA_?$AAs?$AAi?$AAz?$AAe?$AA?5?$AA?$CF?$AA?5?$AA2@ 00000001800b5828     libucrtd:write.obj
 0002:00016860       ??_C@_1GA@DEPMKPD@?$AAm?$AAi?$AAn?$AAk?$AAe?$AAr?$AAn?$AAe?$AAl?$AA?2?$AAc?$AAr?$AAt?$AAs?$AA?2@ 00000001800b5860     libucrtd:isatty.obj
 0002:000168c0       ??_C@_1BA@LEBDGIHM@?$AA_?$AAi?$AAs?$AAa?$AAt?$AAt?$AAy@ 00000001800b58c0     libucrtd:isatty.obj
 0002:000168f8       ??_C@_1DI@OOEEHOBJ@?$AAb?$AAa?$AAs?$AAe?$AA?5?$AA?$CB?$AA?$DN?$AA?5?$AAn?$AAu?$AAl?$AAl?$AAp?$AAt?$AAr@ 00000001800b58f8     libucrtd:qsort.obj
 0002:00016930       ??_C@_1GA@KPPCKKGE@?$AAm?$AAi?$AAn?$AAk?$AAe?$AAr?$AAn?$AAe?$AAl?$AA?2?$AAc?$AAr?$AAt?$AAs?$AA?2@ 00000001800b5930     libucrtd:qsort.obj
 0002:00016990       ??_C@_1M@INMHODIG@?$AAq?$AAs?$AAo?$AAr?$AAt@ 00000001800b5990     libucrtd:qsort.obj
 0002:000169a0       ??_C@_1BE@NJBEBBME@?$AAw?$AAi?$AAd?$AAt?$AAh?$AA?5?$AA?$DO?$AA?5?$AA0@ 00000001800b59a0     libucrtd:qsort.obj
 0002:000169b8       ??_C@_1CA@LIDFOMIN@?$AAc?$AAo?$AAm?$AAp?$AA?5?$AA?$CB?$AA?$DN?$AA?5?$AAn?$AAu?$AAl?$AAl?$AAp?$AAt?$AAr@ 00000001800b59b8     libucrtd:qsort.obj
 0002:000169d8       ??_C@_1CE@BLLJFLOH@?$AAs?$AAt?$AAr?$AAi?$AAn?$AAg?$AA?5?$AA?$CB?$AA?$DN?$AA?5?$AAn?$AAu?$AAl?$AAl?$AAp@ 00000001800b59d8     libucrtd:mbsdec.obj
 0002:00016a00       ??_C@_1GO@DDOMFNGF@?$AAm?$AAi?$AAn?$AAk?$AAe?$AAr?$AAn?$AAe?$AAl?$AA?2?$AAc?$AAr?$AAt?$AAs?$AA?2@ 00000001800b5a00     libucrtd:mbsdec.obj
 0002:00016a70       ??_C@_1BE@KLNCOLCD@?$AA_?$AAm?$AAb?$AAs?$AAd?$AAe?$AAc?$AA_?$AAl@ 00000001800b5a70     libucrtd:mbsdec.obj
 0002:00016a88       ??_C@_1CG@CMGPGAOD@?$AAc?$AAu?$AAr?$AAr?$AAe?$AAn?$AAt?$AA?5?$AA?$CB?$AA?$DN?$AA?5?$AAn?$AAu?$AAl?$AAl@ 00000001800b5a88     libucrtd:mbsdec.obj
 0002:00016ab0       ??_C@_0DH@IKPCBLP@minkernel?2crts?2ucrt?2src?2appcrt?2@ 00000001800b5ab0     libucrtd:lcmapstringa.obj
 0002:00017930       ??_C@_15EMKDOKLE@?$AAa?$AAr@ 00000001800b6930     libucrtd:lcidtoname_downlevel.obj
 0002:00017938       ??_C@_15KNPADPLH@?$AAb?$AAg@ 00000001800b6938     libucrtd:lcidtoname_downlevel.obj
 0002:00017940       ??_C@_15EDMHLDMO@?$AAc?$AAa@ 00000001800b6940     libucrtd:lcidtoname_downlevel.obj
 0002:00017948       ??_C@_1O@BPEAJADD@?$AAz?$AAh?$AA?9?$AAC?$AAH?$AAS@ 00000001800b6948     libucrtd:lcidtoname_downlevel.obj
 0002:00017958       ??_C@_15LJNHCMNK@?$AAc?$AAs@ 00000001800b6958     libucrtd:lcidtoname_downlevel.obj
 0002:00017960       ??_C@_15FOMCIDHG@?$AAd?$AAa@ 00000001800b6960     libucrtd:lcidtoname_downlevel.obj
 0002:00017968       ??_C@_15NBKABECB@?$AAd?$AAe@ 00000001800b6968     libucrtd:lcidtoname_downlevel.obj
 0002:00017970       ??_C@_15GHPEIIAO@?$AAe?$AAl@ 00000001800b6970     libucrtd:lcidtoname_downlevel.obj
 0002:00017978       ??_C@_15MNPNEAIF@?$AAe?$AAn@ 00000001800b6978     libucrtd:lcidtoname_downlevel.obj
 0002:00017980       ??_C@_15GPIOMPMH@?$AAe?$AAs@ 00000001800b6980     libucrtd:lcidtoname_downlevel.obj
 0002:00017988       ??_C@_15NGLOAKJC@?$AAf?$AAi@ 00000001800b6988     libucrtd:lcidtoname_downlevel.obj
 0002:00017990       ??_C@_15FBKGNKAM@?$AAf?$AAr@ 00000001800b6990     libucrtd:lcidtoname_downlevel.obj
 0002:00017998       ??_C@_15KGGCNEFK@?$AAh?$AAe@ 00000001800b6998     libucrtd:lcidtoname_downlevel.obj
 0002:000179a0       ??_C@_15PGHLIDMF@?$AAh?$AAu@ 00000001800b69a0     libucrtd:lcidtoname_downlevel.obj
 0002:000179a8       ??_C@_15BIEMAPLM@?$AAi?$AAs@ 00000001800b69a8     libucrtd:lcidtoname_downlevel.obj
 0002:000179b0       ??_C@_15IFJLDHAF@?$AAi?$AAt@ 00000001800b69b0     libucrtd:lcidtoname_downlevel.obj
 0002:000179b8       ??_C@_15GEMIOCAG@?$AAj?$AAa@ 00000001800b69b8     libucrtd:lcidtoname_downlevel.obj
 0002:000179c0       ??_C@_15EPELEGJA@?$AAk?$AAo@ 00000001800b69c0     libucrtd:lcidtoname_downlevel.obj
 0002:000179c8       ??_C@_15NDDHIMN@?$AAn?$AAl@ 00000001800b69c8     libucrtd:lcidtoname_downlevel.obj
 0002:000179d0       ??_C@_15BPIGNHCD@?$AAn?$AAo@ 00000001800b69d0     libucrtd:lcidtoname_downlevel.obj
 0002:000179d8       ??_C@_15DEOPBLCG@?$AAp?$AAl@ 00000001800b69d8     libucrtd:lcidtoname_downlevel.obj
 0002:000179e0       ??_C@_15KBECGEFG@?$AAp?$AAt@ 00000001800b69e0     libucrtd:lcidtoname_downlevel.obj
 0002:000179e8       ??_C@_15GLJCBFMD@?$AAr?$AAo@ 00000001800b69e8     libucrtd:lcidtoname_downlevel.obj
 0002:000179f0       ??_C@_15FEDGKCDI@?$AAr?$AAu@ 00000001800b69f0     libucrtd:lcidtoname_downlevel.obj
 0002:000179f8       ??_C@_15GLKMLLHM@?$AAh?$AAr@ 00000001800b69f8     libucrtd:lcidtoname_downlevel.obj
 0002:00017a00       ??_C@_15CPKMFBDB@?$AAs?$AAk@ 00000001800b6a00     libucrtd:lcidtoname_downlevel.obj
 0002:00017a08       ??_C@_15BAAIOGMK@?$AAs?$AAq@ 00000001800b6a08     libucrtd:lcidtoname_downlevel.obj
 0002:00017a10       ??_C@_15INNPNOHD@?$AAs?$AAv@ 00000001800b6a10     libucrtd:lcidtoname_downlevel.obj
 0002:00017a18       ??_C@_15CABMMOGH@?$AAt?$AAh@ 00000001800b6a18     libucrtd:lcidtoname_downlevel.obj
 0002:00017a20       ??_C@_15BPLIHJJM@?$AAt?$AAr@ 00000001800b6a20     libucrtd:lcidtoname_downlevel.obj
 0002:00017a28       ??_C@_15NEOEKKDJ@?$AAu?$AAr@ 00000001800b6a28     libucrtd:lcidtoname_downlevel.obj
 0002:00017a30       ??_C@_15NFICGAJK@?$AAi?$AAd@ 00000001800b6a30     libucrtd:lcidtoname_downlevel.obj
 0002:00017a38       ??_C@_15HPJPHDM@?$AAb?$AAe@ 00000001800b6a38     libucrtd:lcidtoname_downlevel.obj
 0002:00017a40       ??_C@_15LCHLGJII@?$AAs?$AAl@ 00000001800b6a40     libucrtd:lcidtoname_downlevel.obj
 0002:00017a48       ??_C@_15PCFJPHHO@?$AAe?$AAt@ 00000001800b6a48     libucrtd:lcidtoname_downlevel.obj
 0002:00017a50       ??_C@_15HPFPGODN@?$AAl?$AAv@ 00000001800b6a50     libucrtd:lcidtoname_downlevel.obj
 0002:00017a58       ??_C@_15NFFGKGLG@?$AAl?$AAt@ 00000001800b6a58     libucrtd:lcidtoname_downlevel.obj
 0002:00017a60       ??_C@_15BDAKCCHN@?$AAf?$AAa@ 00000001800b6a60     libucrtd:lcidtoname_downlevel.obj
 0002:00017a68       ??_C@_15NFGIAIAJ@?$AAv?$AAi@ 00000001800b6a68     libucrtd:lcidtoname_downlevel.obj
 0002:00017a70       ??_C@_15LMKNDMHN@?$AAh?$AAy@ 00000001800b6a70     libucrtd:lcidtoname_downlevel.obj
 0002:00017a78       ??_C@_15IJBHMCFL@?$AAa?$AAz@ 00000001800b6a78     libucrtd:lcidtoname_downlevel.obj
 0002:00017a80       ??_C@_15EKOFJABL@?$AAe?$AAu@ 00000001800b6a80     libucrtd:lcidtoname_downlevel.obj
 0002:00017a88       ??_C@_15BGHADCNK@?$AAm?$AAk@ 00000001800b6a88     libucrtd:lcidtoname_downlevel.obj
 0002:00017a90       ??_C@_15JDNICKHM@?$AAa?$AAf@ 00000001800b6a90     libucrtd:lcidtoname_downlevel.obj
 0002:00017a98       ??_C@_15KPJEDBKD@?$AAk?$AAa@ 00000001800b6a98     libucrtd:lcidtoname_downlevel.obj
 0002:00017aa0       ??_C@_15PDNFFFEO@?$AAf?$AAo@ 00000001800b6aa0     libucrtd:lcidtoname_downlevel.obj
 0002:00017aa8       ??_C@_15OMLEGLOC@?$AAh?$AAi@ 00000001800b6aa8     libucrtd:lcidtoname_downlevel.obj
 0002:00017ab0       ??_C@_15IDNNENKK@?$AAm?$AAs@ 00000001800b6ab0     libucrtd:lcidtoname_downlevel.obj
 0002:00017ab8       ??_C@_15MACJNBMH@?$AAk?$AAk@ 00000001800b6ab8     libucrtd:lcidtoname_downlevel.obj
 0002:00017ac0       ??_C@_15DKDJEOND@?$AAk?$AAy@ 00000001800b6ac0     libucrtd:lcidtoname_downlevel.obj
 0002:00017ac8       ??_C@_15DFGDLJBG@?$AAs?$AAw@ 00000001800b6ac8     libucrtd:lcidtoname_downlevel.obj
 0002:00017ad0       ??_C@_15BBFAICNG@?$AAu?$AAz@ 00000001800b6ad0     libucrtd:lcidtoname_downlevel.obj
 0002:00017ad8       ??_C@_15DKNDCGEA@?$AAt?$AAt@ 00000001800b6ad8     libucrtd:lcidtoname_downlevel.obj
 0002:00017ae0       ??_C@_15MGIFMDPL@?$AAp?$AAa@ 00000001800b6ae0     libucrtd:lcidtoname_downlevel.obj
 0002:00017ae8       ??_C@_15HCNDBBA@?$AAg?$AAu@ 00000001800b6ae8     libucrtd:lcidtoname_downlevel.obj
 0002:00017af0       ??_C@_15FNBEIBON@?$AAt?$AAa@ 00000001800b6af0     libucrtd:lcidtoname_downlevel.obj
 0002:00017af8       ??_C@_15NCHGBGLK@?$AAt?$AAe@ 00000001800b6af8     libucrtd:lcidtoname_downlevel.obj
 0002:00017b00       ??_C@_15PHPHCBPF@?$AAk?$AAn@ 00000001800b6b00     libucrtd:lcidtoname_downlevel.obj
 0002:00017b08       ??_C@_15DLGBCKMP@?$AAm?$AAr@ 00000001800b6b08     libucrtd:lcidtoname_downlevel.obj
 0002:00017b10       ??_C@_15EABBLBFF@?$AAs?$AAa@ 00000001800b6b10     libucrtd:lcidtoname_downlevel.obj
 0002:00017b18       ??_C@_15CBKOMCOI@?$AAm?$AAn@ 00000001800b6b18     libucrtd:lcidtoname_downlevel.obj
 0002:00017b20       ??_C@_15CKDMCJAF@?$AAg?$AAl@ 00000001800b6b20     libucrtd:lcidtoname_downlevel.obj
 0002:00017b28       ??_C@_17CNJFBPG@?$AAk?$AAo?$AAk@ 00000001800b6b28     libucrtd:lcidtoname_downlevel.obj
 0002:00017b30       ??_C@_17FFBJICPL@?$AAs?$AAy?$AAr@ 00000001800b6b30     libucrtd:lcidtoname_downlevel.obj
 0002:00017b38       ??_C@_17KPNDCPAF@?$AAd?$AAi?$AAv@ 00000001800b6b38     libucrtd:lcidtoname_downlevel.obj
 0002:00017b40       ??_C@_1M@OKAHONE@?$AAa?$AAr?$AA?9?$AAS?$AAA@ 00000001800b6b40     libucrtd:lcidtoname_downlevel.obj
 0002:00017b50       ??_C@_1M@FFFIGIGK@?$AAb?$AAg?$AA?9?$AAB?$AAG@ 00000001800b6b50     libucrtd:lcidtoname_downlevel.obj
 0002:00017b60       ??_C@_1M@BJNKEDC@?$AAc?$AAa?$AA?9?$AAE?$AAS@ 00000001800b6b60     libucrtd:lcidtoname_downlevel.obj
 0002:00017b70       ??_C@_1M@IJJHFJHA@?$AAc?$AAs?$AA?9?$AAC?$AAZ@ 00000001800b6b70     libucrtd:lcidtoname_downlevel.obj
 0002:00017b80       ??_C@_1M@CLPEOBGI@?$AAd?$AAa?$AA?9?$AAD?$AAK@ 00000001800b6b80     libucrtd:lcidtoname_downlevel.obj
 0002:00017b90       ??_C@_1M@MCMADGCB@?$AAd?$AAe?$AA?9?$AAD?$AAE@ 00000001800b6b90     libucrtd:lcidtoname_downlevel.obj
 0002:00017ba0       ??_C@_1M@OOCKEMAM@?$AAe?$AAl?$AA?9?$AAG?$AAR@ 00000001800b6ba0     libucrtd:lcidtoname_downlevel.obj
 0002:00017bb0       ??_C@_1M@DDNJFGID@?$AAf?$AAi?$AA?9?$AAF?$AAI@ 00000001800b6bb0     libucrtd:lcidtoname_downlevel.obj
 0002:00017bc0       ??_C@_1M@GLIPPMAC@?$AAf?$AAr?$AA?9?$AAF?$AAR@ 00000001800b6bc0     libucrtd:lcidtoname_downlevel.obj
 0002:00017bd0       ??_C@_1M@GFMCHPE@?$AAh?$AAe?$AA?9?$AAI?$AAL@ 00000001800b6bd0     libucrtd:lcidtoname_downlevel.obj
 0002:00017be0       ??_C@_1M@MHLPGNKM@?$AAh?$AAu?$AA?9?$AAH?$AAU@ 00000001800b6be0     libucrtd:lcidtoname_downlevel.obj
 0002:00017bf0       ??_C@_1M@LPDDNNPN@?$AAi?$AAs?$AA?9?$AAI?$AAS@ 00000001800b6bf0     libucrtd:lcidtoname_downlevel.obj
 0002:00017c00       ??_C@_1M@MADIPODN@?$AAi?$AAt?$AA?9?$AAI?$AAT@ 00000001800b6c00     libucrtd:lcidtoname_downlevel.obj
 0002:00017c10       ??_C@_1M@IHBJJGG@?$AAn?$AAl?$AA?9?$AAN?$AAL@ 00000001800b6c10     libucrtd:lcidtoname_downlevel.obj
 0002:00017c20       ??_C@_1M@EANAGDL@?$AAn?$AAb?$AA?9?$AAN?$AAO@ 00000001800b6c20     libucrtd:lcidtoname_downlevel.obj
 0002:00017c30       ??_C@_1M@NEIEMEGP@?$AAp?$AAl?$AA?9?$AAP?$AAL@ 00000001800b6c30     libucrtd:lcidtoname_downlevel.obj
 0002:00017c40       ??_C@_1M@BOCFIGEP@?$AAp?$AAt?$AA?9?$AAB?$AAR@ 00000001800b6c40     libucrtd:lcidtoname_downlevel.obj
 0002:00017c50       ??_C@_1M@IMPFOPBG@?$AAr?$AAo?$AA?9?$AAR?$AAO@ 00000001800b6c50     libucrtd:lcidtoname_downlevel.obj
 0002:00017c60       ??_C@_1M@IDNNEJMM@?$AAr?$AAu?$AA?9?$AAR?$AAU@ 00000001800b6c60     libucrtd:lcidtoname_downlevel.obj
 0002:00017c70       ??_C@_1M@LILEEOGM@?$AAh?$AAr?$AA?9?$AAH?$AAR@ 00000001800b6c70     libucrtd:lcidtoname_downlevel.obj
 0002:00017c80       ??_C@_1M@FKIFEHPB@?$AAs?$AAk?$AA?9?$AAS?$AAK@ 00000001800b6c80     libucrtd:lcidtoname_downlevel.obj
 0002:00017c90       ??_C@_1M@LJMAMNPJ@?$AAs?$AAq?$AA?9?$AAA?$AAL@ 00000001800b6c90     libucrtd:lcidtoname_downlevel.obj
 0002:00017ca0       ??_C@_1M@GIAKDKJK@?$AAs?$AAv?$AA?9?$AAS?$AAE@ 00000001800b6ca0     libucrtd:lcidtoname_downlevel.obj
 0002:00017cb0       ??_C@_1M@MKJKIKCL@?$AAt?$AAh?$AA?9?$AAT?$AAH@ 00000001800b6cb0     libucrtd:lcidtoname_downlevel.obj
 0002:00017cc0       ??_C@_1M@MFLCCMPB@?$AAt?$AAr?$AA?9?$AAT?$AAR@ 00000001800b6cc0     libucrtd:lcidtoname_downlevel.obj
 0002:00017cd0       ??_C@_1M@OIJHDKJN@?$AAu?$AAr?$AA?9?$AAP?$AAK@ 00000001800b6cd0     libucrtd:lcidtoname_downlevel.obj
 0002:00017ce0       ??_C@_1M@LHIPCIEK@?$AAi?$AAd?$AA?9?$AAI?$AAD@ 00000001800b6ce0     libucrtd:lcidtoname_downlevel.obj
 0002:00017cf0       ??_C@_1M@MFMOBGI@?$AAu?$AAk?$AA?9?$AAU?$AAA@ 00000001800b6cf0     libucrtd:lcidtoname_downlevel.obj
 0002:00017d00       ??_C@_1M@OBGLJIPL@?$AAb?$AAe?$AA?9?$AAB?$AAY@ 00000001800b6d00     libucrtd:lcidtoname_downlevel.obj
 0002:00017d10       ??_C@_1M@BCFAJEAD@?$AAs?$AAl?$AA?9?$AAS?$AAI@ 00000001800b6d10     libucrtd:lcidtoname_downlevel.obj
 0002:00017d20       ??_C@_1M@FKFFEDDN@?$AAe?$AAt?$AA?9?$AAE?$AAE@ 00000001800b6d20     libucrtd:lcidtoname_downlevel.obj
 0002:00017d30       ??_C@_1M@KGKKAACI@?$AAl?$AAv?$AA?9?$AAL?$AAV@ 00000001800b6d30     libucrtd:lcidtoname_downlevel.obj
 0002:00017d40       ??_C@_1M@IFGBIJO@?$AAl?$AAt?$AA?9?$AAL?$AAT@ 00000001800b6d40     libucrtd:lcidtoname_downlevel.obj
 0002:00017d50       ??_C@_1M@FGEAHEDM@?$AAf?$AAa?$AA?9?$AAI?$AAR@ 00000001800b6d50     libucrtd:lcidtoname_downlevel.obj
 0002:00017d60       ??_C@_1M@KBMAIBFN@?$AAv?$AAi?$AA?9?$AAV?$AAN@ 00000001800b6d60     libucrtd:lcidtoname_downlevel.obj
 0002:00017d70       ??_C@_1M@GPCBKDJK@?$AAh?$AAy?$AA?9?$AAA?$AAM@ 00000001800b6d70     libucrtd:lcidtoname_downlevel.obj
 0002:00017d80       ??_C@_1BG@BECMDDJB@?$AAa?$AAz?$AA?9?$AAA?$AAZ?$AA?9?$AAL?$AAa?$AAt?$AAn@ 00000001800b6d80     libucrtd:lcidtoname_downlevel.obj
 0002:00017d98       ??_C@_1M@MAOFCAEA@?$AAe?$AAu?$AA?9?$AAE?$AAS@ 00000001800b6d98     libucrtd:lcidtoname_downlevel.obj
 0002:00017da8       ??_C@_1M@IGHABKPI@?$AAm?$AAk?$AA?9?$AAM?$AAK@ 00000001800b6da8     libucrtd:lcidtoname_downlevel.obj
 0002:00017db8       ??_C@_1M@IAIGNEJG@?$AAt?$AAn?$AA?9?$AAZ?$AAA@ 00000001800b6db8     libucrtd:lcidtoname_downlevel.obj
 0002:00017dc8       ??_C@_1M@IIJCOJFA@?$AAx?$AAh?$AA?9?$AAZ?$AAA@ 00000001800b6dc8     libucrtd:lcidtoname_downlevel.obj
 0002:00017dd8       ??_C@_1M@LGPJHNJH@?$AAz?$AAu?$AA?9?$AAZ?$AAA@ 00000001800b6dd8     libucrtd:lcidtoname_downlevel.obj
 0002:00017de8       ??_C@_1M@HOKAOIO@?$AAa?$AAf?$AA?9?$AAZ?$AAA@ 00000001800b6de8     libucrtd:lcidtoname_downlevel.obj
 0002:00017df8       ??_C@_1M@DPCLHLIE@?$AAk?$AAa?$AA?9?$AAG?$AAE@ 00000001800b6df8     libucrtd:lcidtoname_downlevel.obj
 0002:00017e08       ??_C@_1M@BLKMHJBI@?$AAf?$AAo?$AA?9?$AAF?$AAO@ 00000001800b6e08     libucrtd:lcidtoname_downlevel.obj
 0002:00017e18       ??_C@_1M@LGGJAPPB@?$AAh?$AAi?$AA?9?$AAI?$AAN@ 00000001800b6e18     libucrtd:lcidtoname_downlevel.obj
 0002:00017e28       ??_C@_1M@FIKPIHFE@?$AAm?$AAt?$AA?9?$AAM?$AAT@ 00000001800b6e28     libucrtd:lcidtoname_downlevel.obj
 0002:00017e38       ??_C@_1M@HEGGPBFA@?$AAs?$AAe?$AA?9?$AAN?$AAO@ 00000001800b6e38     libucrtd:lcidtoname_downlevel.obj
 0002:00017e48       ??_C@_1M@EIBJEEPA@?$AAm?$AAs?$AA?9?$AAM?$AAY@ 00000001800b6e48     libucrtd:lcidtoname_downlevel.obj
 0002:00017e58       ??_C@_1M@FHLBGMPP@?$AAk?$AAk?$AA?9?$AAK?$AAZ@ 00000001800b6e58     libucrtd:lcidtoname_downlevel.obj
 0002:00017e68       ??_C@_1M@NGJJLCGI@?$AAk?$AAy?$AA?9?$AAK?$AAG@ 00000001800b6e68     libucrtd:lcidtoname_downlevel.obj
 0002:00017e78       ??_C@_1M@GIENNBFC@?$AAs?$AAw?$AA?9?$AAK?$AAE@ 00000001800b6e78     libucrtd:lcidtoname_downlevel.obj
 0002:00017e88       ??_C@_1BG@NDGMJIMJ@?$AAu?$AAz?$AA?9?$AAU?$AAZ?$AA?9?$AAL?$AAa?$AAt?$AAn@ 00000001800b6e88     libucrtd:lcidtoname_downlevel.obj
 0002:00017ea0       ??_C@_1M@IDCCIHBC@?$AAt?$AAt?$AA?9?$AAR?$AAU@ 00000001800b6ea0     libucrtd:lcidtoname_downlevel.obj
 0002:00017eb0       ??_C@_1M@LOICPMOJ@?$AAb?$AAn?$AA?9?$AAI?$AAN@ 00000001800b6eb0     libucrtd:lcidtoname_downlevel.obj
 0002:00017ec0       ??_C@_1M@KPKKNEAH@?$AAp?$AAa?$AA?9?$AAI?$AAN@ 00000001800b6ec0     libucrtd:lcidtoname_downlevel.obj
 0002:00017ed0       ??_C@_1M@PJGPPBOG@?$AAg?$AAu?$AA?9?$AAI?$AAN@ 00000001800b6ed0     libucrtd:lcidtoname_downlevel.obj
 0002:00017ee0       ??_C@_1M@KMKMOPHI@?$AAt?$AAa?$AA?9?$AAI?$AAN@ 00000001800b6ee0     libucrtd:lcidtoname_downlevel.obj
 0002:00017ef0       ??_C@_1M@KFEHEPAC@?$AAt?$AAe?$AA?9?$AAI?$AAN@ 00000001800b6ef0     libucrtd:lcidtoname_downlevel.obj
 0002:00017f00       ??_C@_1M@CDCLMGHI@?$AAk?$AAn?$AA?9?$AAI?$AAN@ 00000001800b6f00     libucrtd:lcidtoname_downlevel.obj
 0002:00017f10       ??_C@_1M@MIODLDKF@?$AAm?$AAl?$AA?9?$AAI?$AAN@ 00000001800b6f10     libucrtd:lcidtoname_downlevel.obj
 0002:00017f20       ??_C@_1M@PBIEACPO@?$AAm?$AAr?$AA?9?$AAI?$AAN@ 00000001800b6f20     libucrtd:lcidtoname_downlevel.obj
 0002:00017f30       ??_C@_1M@NIDEAGPH@?$AAs?$AAa?$AA?9?$AAI?$AAN@ 00000001800b6f30     libucrtd:lcidtoname_downlevel.obj
 0002:00017f40       ??_C@_1M@FHIHCBIO@?$AAm?$AAn?$AA?9?$AAM?$AAN@ 00000001800b6f40     libucrtd:lcidtoname_downlevel.obj
 0002:00017f50       ??_C@_1M@JAIJPENP@?$AAc?$AAy?$AA?9?$AAG?$AAB@ 00000001800b6f50     libucrtd:lcidtoname_downlevel.obj
 0002:00017f60       ??_C@_1M@PHGFBEPN@?$AAg?$AAl?$AA?9?$AAE?$AAS@ 00000001800b6f60     libucrtd:lcidtoname_downlevel.obj
 0002:00017f70       ??_C@_1O@KPIPDNCP@?$AAk?$AAo?$AAk?$AA?9?$AAI?$AAN@ 00000001800b6f70     libucrtd:lcidtoname_downlevel.obj
 0002:00017f80       ??_C@_1O@KNHJLDJA@?$AAs?$AAy?$AAr?$AA?9?$AAS?$AAY@ 00000001800b6f80     libucrtd:lcidtoname_downlevel.obj
 0002:00017f90       ??_C@_1O@MKEKBLAH@?$AAd?$AAi?$AAv?$AA?9?$AAM?$AAV@ 00000001800b6f90     libucrtd:lcidtoname_downlevel.obj
 0002:00017fa0       ??_C@_1O@OHDCKDDF@?$AAq?$AAu?$AAz?$AA?9?$AAB?$AAO@ 00000001800b6fa0     libucrtd:lcidtoname_downlevel.obj
 0002:00017fb0       ??_C@_1M@LEPJNLFD@?$AAn?$AAs?$AA?9?$AAZ?$AAA@ 00000001800b6fb0     libucrtd:lcidtoname_downlevel.obj
 0002:00017fc0       ??_C@_1M@OMLEIIJB@?$AAm?$AAi?$AA?9?$AAN?$AAZ@ 00000001800b6fc0     libucrtd:lcidtoname_downlevel.obj
 0002:00017fd0       ??_C@_1M@PMPEAILG@?$AAa?$AAr?$AA?9?$AAI?$AAQ@ 00000001800b6fd0     libucrtd:lcidtoname_downlevel.obj
 0002:00017fe0       ??_C@_1M@CNKPNOEE@?$AAd?$AAe?$AA?9?$AAC?$AAH@ 00000001800b6fe0     libucrtd:lcidtoname_downlevel.obj
 0002:00017ff0       ??_C@_1M@LKMGMLKO@?$AAe?$AAn?$AA?9?$AAG?$AAB@ 00000001800b6ff0     libucrtd:lcidtoname_downlevel.obj
 0002:00018000       ??_C@_1M@PGKJFFGL@?$AAe?$AAs?$AA?9?$AAM?$AAX@ 00000001800b7000     libucrtd:lcidtoname_downlevel.obj
 0002:00018010       ??_C@_1M@DNNANBDC@?$AAf?$AAr?$AA?9?$AAB?$AAE@ 00000001800b7010     libucrtd:lcidtoname_downlevel.obj
 0002:00018020       ??_C@_1M@HLGMDFHM@?$AAi?$AAt?$AA?9?$AAC?$AAH@ 00000001800b7020     libucrtd:lcidtoname_downlevel.obj
 0002:00018030       ??_C@_1M@CLLBGJH@?$AAn?$AAl?$AA?9?$AAB?$AAE@ 00000001800b7030     libucrtd:lcidtoname_downlevel.obj
 0002:00018040       ??_C@_1M@BODBOGLF@?$AAn?$AAn?$AA?9?$AAN?$AAO@ 00000001800b7040     libucrtd:lcidtoname_downlevel.obj
 0002:00018050       ??_C@_1M@HFFAHKAD@?$AAp?$AAt?$AA?9?$AAP?$AAT@ 00000001800b7050     libucrtd:lcidtoname_downlevel.obj
 0002:00018060       ??_C@_1BG@LNOAKHIE@?$AAs?$AAr?$AA?9?$AAS?$AAP?$AA?9?$AAL?$AAa?$AAt?$AAn@ 00000001800b7060     libucrtd:lcidtoname_downlevel.obj
 0002:00018078       ??_C@_1M@HBMHBGAK@?$AAs?$AAv?$AA?9?$AAF?$AAI@ 00000001800b7078     libucrtd:lcidtoname_downlevel.obj
 0002:00018088       ??_C@_1BG@DGCJGJBE@?$AAa?$AAz?$AA?9?$AAA?$AAZ?$AA?9?$AAC?$AAy?$AAr?$AAl@ 00000001800b7088     libucrtd:lcidtoname_downlevel.obj
 0002:000180a0       ??_C@_1M@KEJDAAHB@?$AAs?$AAe?$AA?9?$AAS?$AAE@ 00000001800b70a0     libucrtd:lcidtoname_downlevel.obj
 0002:000180b0       ??_C@_1M@HEIBJJAD@?$AAm?$AAs?$AA?9?$AAB?$AAN@ 00000001800b70b0     libucrtd:lcidtoname_downlevel.obj
 0002:000180c0       ??_C@_1BG@PBGJMCEM@?$AAu?$AAz?$AA?9?$AAU?$AAZ?$AA?9?$AAC?$AAy?$AAr?$AAl@ 00000001800b70c0     libucrtd:lcidtoname_downlevel.obj
 0002:000180d8       ??_C@_1O@LAOBCMDF@?$AAq?$AAu?$AAz?$AA?9?$AAE?$AAC@ 00000001800b70d8     libucrtd:lcidtoname_downlevel.obj
 0002:000180e8       ??_C@_1M@POEEMAIO@?$AAa?$AAr?$AA?9?$AAE?$AAG@ 00000001800b70e8     libucrtd:lcidtoname_downlevel.obj
 0002:000180f8       ??_C@_1M@EFAKDEDL@?$AAz?$AAh?$AA?9?$AAH?$AAK@ 00000001800b70f8     libucrtd:lcidtoname_downlevel.obj
 0002:00018108       ??_C@_1M@HKKIJHGI@?$AAd?$AAe?$AA?9?$AAA?$AAT@ 00000001800b7108     libucrtd:lcidtoname_downlevel.obj
 0002:00018118       ??_C@_1M@KBFBEHJF@?$AAe?$AAn?$AA?9?$AAA?$AAU@ 00000001800b7118     libucrtd:lcidtoname_downlevel.obj
 0002:00018128       ??_C@_1M@MNPLFAAH@?$AAe?$AAs?$AA?9?$AAE?$AAS@ 00000001800b7128     libucrtd:lcidtoname_downlevel.obj
 0002:00018138       ??_C@_1M@HJOOJFMA@?$AAf?$AAr?$AA?9?$AAC?$AAA@ 00000001800b7138     libucrtd:lcidtoname_downlevel.obj
 0002:00018148       ??_C@_1BG@JPOFPNAB@?$AAs?$AAr?$AA?9?$AAS?$AAP?$AA?9?$AAC?$AAy?$AAr?$AAl@ 00000001800b7148     libucrtd:lcidtoname_downlevel.obj
 0002:00018160       ??_C@_1M@LNFOCMOB@?$AAs?$AAe?$AA?9?$AAF?$AAI@ 00000001800b7160     libucrtd:lcidtoname_downlevel.obj
 0002:00018170       ??_C@_1O@MGJBOAMB@?$AAq?$AAu?$AAz?$AA?9?$AAP?$AAE@ 00000001800b7170     libucrtd:lcidtoname_downlevel.obj
 0002:00018180       ??_C@_1M@GJINLBOK@?$AAa?$AAr?$AA?9?$AAL?$AAY@ 00000001800b7180     libucrtd:lcidtoname_downlevel.obj
 0002:00018190       ??_C@_1M@GGMNHJNL@?$AAz?$AAh?$AA?9?$AAS?$AAG@ 00000001800b7190     libucrtd:lcidtoname_downlevel.obj
 0002:000181a0       ??_C@_1M@HOIKODND@?$AAd?$AAe?$AA?9?$AAL?$AAU@ 00000001800b71a0     libucrtd:lcidtoname_downlevel.obj
 0002:000181b0       ??_C@_1M@DDOCCGFG@?$AAe?$AAn?$AA?9?$AAC?$AAA@ 00000001800b71b0     libucrtd:lcidtoname_downlevel.obj
 0002:000181c0       ??_C@_1M@BNOEMJLF@?$AAe?$AAs?$AA?9?$AAG?$AAT@ 00000001800b71c0     libucrtd:lcidtoname_downlevel.obj
 0002:000181d0       ??_C@_1M@EOGNKEK@?$AAf?$AAr?$AA?9?$AAC?$AAH@ 00000001800b71d0     libucrtd:lcidtoname_downlevel.obj
 0002:000181e0       ??_C@_1M@FLIDJFHL@?$AAh?$AAr?$AA?9?$AAB?$AAA@ 00000001800b71e0     libucrtd:lcidtoname_downlevel.obj
 0002:000181f0       ??_C@_1O@FMCELNAJ@?$AAs?$AAm?$AAj?$AA?9?$AAN?$AAO@ 00000001800b71f0     libucrtd:lcidtoname_downlevel.obj
 0002:00018200       ??_C@_1M@JHGLJMGJ@?$AAa?$AAr?$AA?9?$AAD?$AAZ@ 00000001800b7200     libucrtd:lcidtoname_downlevel.obj
 0002:00018210       ??_C@_1M@JKKFDCNP@?$AAz?$AAh?$AA?9?$AAM?$AAO@ 00000001800b7210     libucrtd:lcidtoname_downlevel.obj
 0002:00018220       ??_C@_1M@GEEFALPE@?$AAd?$AAe?$AA?9?$AAL?$AAI@ 00000001800b7220     libucrtd:lcidtoname_downlevel.obj
 0002:00018230       ??_C@_1M@IGEOFBG@?$AAe?$AAn?$AA?9?$AAN?$AAZ@ 00000001800b7230     libucrtd:lcidtoname_downlevel.obj
 0002:00018240       ??_C@_1M@KDBONEHP@?$AAe?$AAs?$AA?9?$AAC?$AAR@ 00000001800b7240     libucrtd:lcidtoname_downlevel.obj
 0002:00018250       ??_C@_1M@FHMDOHNN@?$AAf?$AAr?$AA?9?$AAL?$AAU@ 00000001800b7250     libucrtd:lcidtoname_downlevel.obj
 0002:00018260       ??_C@_1BG@NFKKMAFG@?$AAb?$AAs?$AA?9?$AAB?$AAA?$AA?9?$AAL?$AAa?$AAt?$AAn@ 00000001800b7260     libucrtd:lcidtoname_downlevel.obj
 0002:00018278       ??_C@_1O@IMNBEMCI@?$AAs?$AAm?$AAj?$AA?9?$AAS?$AAE@ 00000001800b7278     libucrtd:lcidtoname_downlevel.obj
 0002:00018288       ??_C@_1M@DHHMBNDP@?$AAa?$AAr?$AA?9?$AAM?$AAA@ 00000001800b7288     libucrtd:lcidtoname_downlevel.obj
 0002:00018298       ??_C@_1M@BNBLJCGH@?$AAe?$AAn?$AA?9?$AAI?$AAE@ 00000001800b7298     libucrtd:lcidtoname_downlevel.obj
 0002:000182a8       ??_C@_1M@GEPAFMDL@?$AAe?$AAs?$AA?9?$AAP?$AAA@ 00000001800b72a8     libucrtd:lcidtoname_downlevel.obj
 0002:000182b8       ??_C@_1M@OJONDMDL@?$AAf?$AAr?$AA?9?$AAM?$AAC@ 00000001800b72b8     libucrtd:lcidtoname_downlevel.obj
 0002:000182c8       ??_C@_1BG@OBCNFJB@?$AAs?$AAr?$AA?9?$AAB?$AAA?$AA?9?$AAL?$AAa?$AAt?$AAn@ 00000001800b72c8     libucrtd:lcidtoname_downlevel.obj
 0002:000182e0       ??_C@_1O@KEMEEGPO@?$AAs?$AAm?$AAa?$AA?9?$AAN?$AAO@ 00000001800b72e0     libucrtd:lcidtoname_downlevel.obj
 0002:000182f0       ??_C@_1M@ELMGFODK@?$AAa?$AAr?$AA?9?$AAT?$AAN@ 00000001800b72f0     libucrtd:lcidtoname_downlevel.obj
 0002:00018300       ??_C@_1M@BHDLHFAF@?$AAe?$AAn?$AA?9?$AAZ?$AAA@ 00000001800b7300     libucrtd:lcidtoname_downlevel.obj
 0002:00018310       ??_C@_1M@BMGIGLIF@?$AAe?$AAs?$AA?9?$AAD?$AAO@ 00000001800b7310     libucrtd:lcidtoname_downlevel.obj
 0002:00018320       ??_C@_1BG@CMBHIPBE@?$AAs?$AAr?$AA?9?$AAB?$AAA?$AA?9?$AAC?$AAy?$AAr?$AAl@ 00000001800b7320     libucrtd:lcidtoname_downlevel.obj
 0002:00018338       ??_C@_1O@HEDBLHNP@?$AAs?$AAm?$AAa?$AA?9?$AAS?$AAE@ 00000001800b7338     libucrtd:lcidtoname_downlevel.obj
 0002:00018348       ??_C@_1M@DAGCADIM@?$AAa?$AAr?$AA?9?$AAO?$AAM@ 00000001800b7348     libucrtd:lcidtoname_downlevel.obj
 0002:00018358       ??_C@_1M@FODLMICG@?$AAe?$AAn?$AA?9?$AAJ?$AAM@ 00000001800b7358     libucrtd:lcidtoname_downlevel.obj
 0002:00018368       ??_C@_1M@DNMLCIHB@?$AAe?$AAs?$AA?9?$AAV?$AAE@ 00000001800b7368     libucrtd:lcidtoname_downlevel.obj
 0002:00018378       ??_C@_1O@EOKHMKJK@?$AAs?$AAm?$AAs?$AA?9?$AAF?$AAI@ 00000001800b7378     libucrtd:lcidtoname_downlevel.obj
 0002:00018388       ??_C@_1M@CAFJMKOF@?$AAa?$AAr?$AA?9?$AAY?$AAE@ 00000001800b7388     libucrtd:lcidtoname_downlevel.obj
 0002:00018398       ??_C@_1M@CBFHIJLI@?$AAe?$AAn?$AA?9?$AAC?$AAB@ 00000001800b7398     libucrtd:lcidtoname_downlevel.obj
 0002:000183a8       ??_C@_1M@BGNFLDN@?$AAe?$AAs?$AA?9?$AAC?$AAO@ 00000001800b73a8     libucrtd:lcidtoname_downlevel.obj
 0002:000183b8       ??_C@_1O@JMPHMAMC@?$AAs?$AAm?$AAn?$AA?9?$AAF?$AAI@ 00000001800b73b8     libucrtd:lcidtoname_downlevel.obj
 0002:000183c8       ??_C@_1M@JLANABKE@?$AAa?$AAr?$AA?9?$AAS?$AAY@ 00000001800b73c8     libucrtd:lcidtoname_downlevel.obj
 0002:000183d8       ??_C@_1M@HPKGCFGN@?$AAe?$AAn?$AA?9?$AAB?$AAZ@ 00000001800b73d8     libucrtd:lcidtoname_downlevel.obj
 0002:000183e8       ??_C@_1M@OLJCMLGM@?$AAe?$AAs?$AA?9?$AAP?$AAE@ 00000001800b73e8     libucrtd:lcidtoname_downlevel.obj
 0002:000183f8       ??_C@_1M@MKKGFKLE@?$AAa?$AAr?$AA?9?$AAJ?$AAO@ 00000001800b73f8     libucrtd:lcidtoname_downlevel.obj
 0002:00018408       ??_C@_1M@EKPGLDNI@?$AAe?$AAn?$AA?9?$AAT?$AAT@ 00000001800b7408     libucrtd:lcidtoname_downlevel.obj
 0002:00018418       ??_C@_1M@OONGHFHE@?$AAe?$AAs?$AA?9?$AAA?$AAR@ 00000001800b7418     libucrtd:lcidtoname_downlevel.obj
 0002:00018428       ??_C@_1M@OOJFGBHE@?$AAa?$AAr?$AA?9?$AAL?$AAB@ 00000001800b7428     libucrtd:lcidtoname_downlevel.obj
 0002:00018438       ??_C@_1M@GCEJHNEG@?$AAe?$AAn?$AA?9?$AAZ?$AAW@ 00000001800b7438     libucrtd:lcidtoname_downlevel.obj
 0002:00018448       ??_C@_1M@JNOCAHJI@?$AAe?$AAs?$AA?9?$AAE?$AAC@ 00000001800b7448     libucrtd:lcidtoname_downlevel.obj
 0002:00018458       ??_C@_1M@JEFHPGGB@?$AAa?$AAr?$AA?9?$AAK?$AAW@ 00000001800b7458     libucrtd:lcidtoname_downlevel.obj
 0002:00018468       ??_C@_1M@MLKIBJOJ@?$AAe?$AAn?$AA?9?$AAP?$AAH@ 00000001800b7468     libucrtd:lcidtoname_downlevel.obj
 0002:00018478       ??_C@_1M@BDNIPEND@?$AAe?$AAs?$AA?9?$AAC?$AAL@ 00000001800b7478     libucrtd:lcidtoname_downlevel.obj
 0002:00018488       ??_C@_1M@MPNMEKBD@?$AAa?$AAr?$AA?9?$AAA?$AAE@ 00000001800b7488     libucrtd:lcidtoname_downlevel.obj
 0002:00018498       ??_C@_1M@KBJALCPI@?$AAe?$AAs?$AA?9?$AAU?$AAY@ 00000001800b7498     libucrtd:lcidtoname_downlevel.obj
 0002:000184a8       ??_C@_1M@LLCCOAGA@?$AAa?$AAr?$AA?9?$AAB?$AAH@ 00000001800b74a8     libucrtd:lcidtoname_downlevel.obj
 0002:000184b8       ??_C@_1M@PBFNCDEL@?$AAe?$AAs?$AA?9?$AAP?$AAY@ 00000001800b74b8     libucrtd:lcidtoname_downlevel.obj
 0002:000184c8       ??_C@_1M@EDGINPNP@?$AAa?$AAr?$AA?9?$AAQ?$AAA@ 00000001800b74c8     libucrtd:lcidtoname_downlevel.obj
 0002:000184d8       ??_C@_1M@MKDBIIJI@?$AAe?$AAs?$AA?9?$AAB?$AAO@ 00000001800b74d8     libucrtd:lcidtoname_downlevel.obj
 0002:000184e8       ??_C@_1M@CPKKEBLD@?$AAe?$AAs?$AA?9?$AAS?$AAV@ 00000001800b74e8     libucrtd:lcidtoname_downlevel.obj
 0002:000184f8       ??_C@_1M@NDBGMMJL@?$AAe?$AAs?$AA?9?$AAH?$AAN@ 00000001800b74f8     libucrtd:lcidtoname_downlevel.obj
 0002:00018508       ??_C@_1M@JIJIBHDP@?$AAe?$AAs?$AA?9?$AAN?$AAI@ 00000001800b7508     libucrtd:lcidtoname_downlevel.obj
 0002:00018518       ??_C@_1M@CGFMKEEK@?$AAe?$AAs?$AA?9?$AAP?$AAR@ 00000001800b7518     libucrtd:lcidtoname_downlevel.obj
 0002:00018528       ??_C@_1O@ICJHKIIK@?$AAz?$AAh?$AA?9?$AAC?$AAH?$AAT@ 00000001800b7528     libucrtd:lcidtoname_downlevel.obj
 0002:00018538       ??_C@_15CLNEJCE@?$AAs?$AAr@ 00000001800b7538     libucrtd:lcidtoname_downlevel.obj
 0002:00019380       ??_C@_1M@KAHEKEIG@?$AAa?$AAf?$AA?9?$AAz?$AAa@ 00000001800b8380     libucrtd:lcidtoname_downlevel.obj
 0002:00019390       ??_C@_1M@GIECOABL@?$AAa?$AAr?$AA?9?$AAa?$AAe@ 00000001800b8390     libucrtd:lcidtoname_downlevel.obj
 0002:000193a0       ??_C@_1M@BMLMEKGI@?$AAa?$AAr?$AA?9?$AAb?$AAh@ 00000001800b83a0     libucrtd:lcidtoname_downlevel.obj
 0002:000193b0       ??_C@_1M@DAPFDGGB@?$AAa?$AAr?$AA?9?$AAd?$AAz@ 00000001800b83b0     libucrtd:lcidtoname_downlevel.obj
 0002:000193c0       ??_C@_1M@FJNKGKIG@?$AAa?$AAr?$AA?9?$AAe?$AAg@ 00000001800b83c0     libucrtd:lcidtoname_downlevel.obj
 0002:000193d0       ??_C@_1M@FLGKKCLO@?$AAa?$AAr?$AA?9?$AAi?$AAq@ 00000001800b83d0     libucrtd:lcidtoname_downlevel.obj
 0002:000193e0       ??_C@_1M@GNDIPALM@?$AAa?$AAr?$AA?9?$AAj?$AAo@ 00000001800b83e0     libucrtd:lcidtoname_downlevel.obj
 0002:000193f0       ??_C@_1M@DDMJFMGJ@?$AAa?$AAr?$AA?9?$AAk?$AAw@ 00000001800b83f0     libucrtd:lcidtoname_downlevel.obj
 0002:00019400       ??_C@_1M@EJALMLHM@?$AAa?$AAr?$AA?9?$AAl?$AAb@ 00000001800b8400     libucrtd:lcidtoname_downlevel.obj
 0002:00019410       ??_C@_1M@MOBDBLOC@?$AAa?$AAr?$AA?9?$AAl?$AAy@ 00000001800b8410     libucrtd:lcidtoname_downlevel.obj
 0002:00019420       ??_C@_1M@JAOCLHDH@?$AAa?$AAr?$AA?9?$AAm?$AAa@ 00000001800b8420     libucrtd:lcidtoname_downlevel.obj
 0002:00019430       ??_C@_1M@JHPMKJIE@?$AAa?$AAr?$AA?9?$AAo?$AAm@ 00000001800b8430     libucrtd:lcidtoname_downlevel.obj
 0002:00019440       ??_C@_1M@OEPGHFNH@?$AAa?$AAr?$AA?9?$AAq?$AAa@ 00000001800b8440     libucrtd:lcidtoname_downlevel.obj
 0002:00019450       ??_C@_1M@KJDONENM@?$AAa?$AAr?$AA?9?$AAs?$AAa@ 00000001800b8450     libucrtd:lcidtoname_downlevel.obj
 0002:00019460       ??_C@_1M@DMJDKLKM@?$AAa?$AAr?$AA?9?$AAs?$AAy@ 00000001800b8460     libucrtd:lcidtoname_downlevel.obj
 0002:00019470       ??_C@_1M@OMFIPEDC@?$AAa?$AAr?$AA?9?$AAt?$AAn@ 00000001800b8470     libucrtd:lcidtoname_downlevel.obj
 0002:00019480       ??_C@_1M@IHMHGAON@?$AAa?$AAr?$AA?9?$AAy?$AAe@ 00000001800b8480     libucrtd:lcidtoname_downlevel.obj
 0002:00019490       ??_C@_1BG@KDCPGJGB@?$AAa?$AAz?$AA?9?$AAa?$AAz?$AA?9?$AAc?$AAy?$AAr?$AAl@ 00000001800b8490     libucrtd:lcidtoname_downlevel.obj
 0002:000194a8       ??_C@_1BG@IBCKDDOE@?$AAa?$AAz?$AA?9?$AAa?$AAz?$AA?9?$AAl?$AAa?$AAt?$AAn@ 00000001800b84a8     libucrtd:lcidtoname_downlevel.obj
 0002:000194c0       ??_C@_1M@EGPFDCPD@?$AAb?$AAe?$AA?9?$AAb?$AAy@ 00000001800b84c0     libucrtd:lcidtoname_downlevel.obj
 0002:000194d0       ??_C@_1M@PCMGMCGC@?$AAb?$AAg?$AA?9?$AAb?$AAg@ 00000001800b84d0     libucrtd:lcidtoname_downlevel.obj
 0002:000194e0       ??_C@_1M@BJBMFGOB@?$AAb?$AAn?$AA?9?$AAi?$AAn@ 00000001800b84e0     libucrtd:lcidtoname_downlevel.obj
 0002:000194f0       ??_C@_1BG@EAKMMACD@?$AAb?$AAs?$AA?9?$AAb?$AAa?$AA?9?$AAl?$AAa?$AAt?$AAn@ 00000001800b84f0     libucrtd:lcidtoname_downlevel.obj
 0002:00019508       ??_C@_1M@KGADAODK@?$AAc?$AAa?$AA?9?$AAe?$AAs@ 00000001800b8508     libucrtd:lcidtoname_downlevel.obj
 0002:00019518       ??_C@_1M@COAJPDHI@?$AAc?$AAs?$AA?9?$AAc?$AAz@ 00000001800b8518     libucrtd:lcidtoname_downlevel.obj
 0002:00019528       ??_C@_1M@DHBHFONH@?$AAc?$AAy?$AA?9?$AAg?$AAb@ 00000001800b8528     libucrtd:lcidtoname_downlevel.obj
 0002:00019538       ??_C@_1M@IMGKELGA@?$AAd?$AAa?$AA?9?$AAd?$AAk@ 00000001800b8538     libucrtd:lcidtoname_downlevel.obj
 0002:00019548       ??_C@_1M@NNDGDNGA@?$AAd?$AAe?$AA?9?$AAa?$AAt@ 00000001800b8548     libucrtd:lcidtoname_downlevel.obj
 0002:00019558       ??_C@_1M@IKDBHEEM@?$AAd?$AAe?$AA?9?$AAc?$AAh@ 00000001800b8558     libucrtd:lcidtoname_downlevel.obj
 0002:00019568       ??_C@_1M@GFFOJMCJ@?$AAd?$AAe?$AA?9?$AAd?$AAe@ 00000001800b8568     libucrtd:lcidtoname_downlevel.obj
 0002:00019578       ??_C@_1M@MDNLKBPM@?$AAd?$AAe?$AA?9?$AAl?$AAi@ 00000001800b8578     libucrtd:lcidtoname_downlevel.obj
 0002:00019588       ??_C@_1M@NJBEEJNL@?$AAd?$AAe?$AA?9?$AAl?$AAu@ 00000001800b8588     libucrtd:lcidtoname_downlevel.obj
 0002:00019598       ??_C@_1O@GNNELBAP@?$AAd?$AAi?$AAv?$AA?9?$AAm?$AAv@ 00000001800b8598     libucrtd:lcidtoname_downlevel.obj
 0002:000195a8       ??_C@_1M@EJLEOGAE@?$AAe?$AAl?$AA?9?$AAg?$AAr@ 00000001800b85a8     libucrtd:lcidtoname_downlevel.obj
 0002:000195b8       ??_C@_1M@GMPONJN@?$AAe?$AAn?$AA?9?$AAa?$AAu@ 00000001800b85b8     libucrtd:lcidtoname_downlevel.obj
 0002:000195c8       ??_C@_1M@NIDIIPGF@?$AAe?$AAn?$AA?9?$AAb?$AAz@ 00000001800b85c8     libucrtd:lcidtoname_downlevel.obj
 0002:000195d8       ??_C@_1M@JEHMIMFO@?$AAe?$AAn?$AA?9?$AAc?$AAa@ 00000001800b85d8     libucrtd:lcidtoname_downlevel.obj
 0002:000195e8       ??_C@_1M@IGMJCDLA@?$AAe?$AAn?$AA?9?$AAc?$AAb@ 00000001800b85e8     libucrtd:lcidtoname_downlevel.obj
 0002:000195f8       ??_C@_1M@BNFIGBKG@?$AAe?$AAn?$AA?9?$AAg?$AAb@ 00000001800b85f8     libucrtd:lcidtoname_downlevel.obj
 0002:00019608       ??_C@_1M@LKIFDIGP@?$AAe?$AAn?$AA?9?$AAi?$AAe@ 00000001800b8608     libucrtd:lcidtoname_downlevel.obj
 0002:00019618       ??_C@_1M@PJKFGCCO@?$AAe?$AAn?$AA?9?$AAj?$AAm@ 00000001800b8618     libucrtd:lcidtoname_downlevel.obj
 0002:00019628       ??_C@_1M@KPPKEPBO@?$AAe?$AAn?$AA?9?$AAn?$AAz@ 00000001800b8628     libucrtd:lcidtoname_downlevel.obj
 0002:00019638       ??_C@_1M@GMDGLDOB@?$AAe?$AAn?$AA?9?$AAp?$AAh@ 00000001800b8638     libucrtd:lcidtoname_downlevel.obj
 0002:00019648       ??_C@_1M@ONGIBJNA@?$AAe?$AAn?$AA?9?$AAt?$AAt@ 00000001800b8648     libucrtd:lcidtoname_downlevel.obj
 0002:00019658       ??_C@_1M@LLODPCMM@?$AAe?$AAn?$AA?9?$AAu?$AAs@ 00000001800b8658     libucrtd:lcidtoname_downlevel.obj
 0002:00019668       ??_C@_1M@LAKFNPAN@?$AAe?$AAn?$AA?9?$AAz?$AAa@ 00000001800b8668     libucrtd:lcidtoname_downlevel.obj
 0002:00019678       ??_C@_1M@MFNHNHEO@?$AAe?$AAn?$AA?9?$AAz?$AAw@ 00000001800b8678     libucrtd:lcidtoname_downlevel.obj
 0002:00019688       ??_C@_1M@EJEINPHM@?$AAe?$AAs?$AA?9?$AAa?$AAr@ 00000001800b8688     libucrtd:lcidtoname_downlevel.obj
 0002:00019698       ??_C@_1M@GNKPCCJA@?$AAe?$AAs?$AA?9?$AAb?$AAo@ 00000001800b8698     libucrtd:lcidtoname_downlevel.obj
 0002:000196a8       ??_C@_1M@LEEGFONL@?$AAe?$AAs?$AA?9?$AAc?$AAl@ 00000001800b86a8     libucrtd:lcidtoname_downlevel.obj
 0002:000196b8       ??_C@_1M@KGPDPBDF@?$AAe?$AAs?$AA?9?$AAc?$AAo@ 00000001800b86b8     libucrtd:lcidtoname_downlevel.obj
 0002:000196c8       ??_C@_1M@EIAHOHH@?$AAe?$AAs?$AA?9?$AAc?$AAr@ 00000001800b86c8     libucrtd:lcidtoname_downlevel.obj
 0002:000196d8       ??_C@_1M@LLPGMBIN@?$AAe?$AAs?$AA?9?$AAd?$AAo@ 00000001800b86d8     libucrtd:lcidtoname_downlevel.obj
 0002:000196e8       ??_C@_1M@DKHMKNJA@?$AAe?$AAs?$AA?9?$AAe?$AAc@ 00000001800b86e8     libucrtd:lcidtoname_downlevel.obj
 0002:000196f8       ??_C@_1M@GKGFPKAP@?$AAe?$AAs?$AA?9?$AAe?$AAs@ 00000001800b86f8     libucrtd:lcidtoname_downlevel.obj
 0002:00019708       ??_C@_1M@LKHKGDLN@?$AAe?$AAs?$AA?9?$AAg?$AAt@ 00000001800b8708     libucrtd:lcidtoname_downlevel.obj
 0002:00019718       ??_C@_1M@HEIIGGJD@?$AAe?$AAs?$AA?9?$AAh?$AAn@ 00000001800b8718     libucrtd:lcidtoname_downlevel.obj
 0002:00019728       ??_C@_1M@FBDHPPGD@?$AAe?$AAs?$AA?9?$AAm?$AAx@ 00000001800b8728     libucrtd:lcidtoname_downlevel.obj
 0002:00019738       ??_C@_1M@DPAGLNDH@?$AAe?$AAs?$AA?9?$AAn?$AAi@ 00000001800b8738     libucrtd:lcidtoname_downlevel.obj
 0002:00019748       ??_C@_1M@MDGOPGDD@?$AAe?$AAs?$AA?9?$AAp?$AAa@ 00000001800b8748     libucrtd:lcidtoname_downlevel.obj
 0002:00019758       ??_C@_1M@EMAMGBGE@?$AAe?$AAs?$AA?9?$AAp?$AAe@ 00000001800b8758     libucrtd:lcidtoname_downlevel.obj
 0002:00019768       ??_C@_1M@IBMCAOEC@?$AAe?$AAs?$AA?9?$AAp?$AAr@ 00000001800b8768     libucrtd:lcidtoname_downlevel.obj
 0002:00019778       ??_C@_1M@FGMDIJED@?$AAe?$AAs?$AA?9?$AAp?$AAy@ 00000001800b8778     libucrtd:lcidtoname_downlevel.obj
 0002:00019788       ??_C@_1M@IIDEOLLL@?$AAe?$AAs?$AA?9?$AAs?$AAv@ 00000001800b8788     libucrtd:lcidtoname_downlevel.obj
 0002:00019798       ??_C@_1M@GAOBIPA@?$AAe?$AAs?$AA?9?$AAu?$AAy@ 00000001800b8798     libucrtd:lcidtoname_downlevel.obj
 0002:000197a8       ??_C@_1M@JKFFICHJ@?$AAe?$AAs?$AA?9?$AAv?$AAe@ 00000001800b87a8     libucrtd:lcidtoname_downlevel.obj
 0002:000197b8       ??_C@_1M@PNMLOJDF@?$AAe?$AAt?$AA?9?$AAe?$AAe@ 00000001800b87b8     libucrtd:lcidtoname_downlevel.obj
 0002:000197c8       ??_C@_1M@GHHLIKEI@?$AAe?$AAu?$AA?9?$AAe?$AAs@ 00000001800b87c8     libucrtd:lcidtoname_downlevel.obj
 0002:000197d8       ??_C@_1M@PBNONODE@?$AAf?$AAa?$AA?9?$AAi?$AAr@ 00000001800b87d8     libucrtd:lcidtoname_downlevel.obj
 0002:000197e8       ??_C@_1M@JEEHPMIL@?$AAf?$AAi?$AA?9?$AAf?$AAi@ 00000001800b87e8     libucrtd:lcidtoname_downlevel.obj
 0002:000197f8       ??_C@_1M@LMDCNDBA@?$AAf?$AAo?$AA?9?$AAf?$AAo@ 00000001800b87f8     libucrtd:lcidtoname_downlevel.obj
 0002:00019808       ??_C@_1M@JKEOHLDK@?$AAf?$AAr?$AA?9?$AAb?$AAe@ 00000001800b8808     libucrtd:lcidtoname_downlevel.obj
 0002:00019818       ??_C@_1M@NOHADPMI@?$AAf?$AAr?$AA?9?$AAc?$AAa@ 00000001800b8818     libucrtd:lcidtoname_downlevel.obj
 0002:00019828       ??_C@_1M@KDHIHAEC@?$AAf?$AAr?$AA?9?$AAc?$AAh@ 00000001800b8828     libucrtd:lcidtoname_downlevel.obj
 0002:00019838       ??_C@_1M@MMBBFGAK@?$AAf?$AAr?$AA?9?$AAf?$AAr@ 00000001800b8838     libucrtd:lcidtoname_downlevel.obj
 0002:00019848       ??_C@_1M@PAFNENNF@?$AAf?$AAr?$AA?9?$AAl?$AAu@ 00000001800b8848     libucrtd:lcidtoname_downlevel.obj
 0002:00019858       ??_C@_1M@EOHDJGDD@?$AAf?$AAr?$AA?9?$AAm?$AAc@ 00000001800b8858     libucrtd:lcidtoname_downlevel.obj
 0002:00019868       ??_C@_1M@FAPLLOPF@?$AAg?$AAl?$AA?9?$AAe?$AAs@ 00000001800b8868     libucrtd:lcidtoname_downlevel.obj
 0002:00019878       ??_C@_1M@FOPBFLOO@?$AAg?$AAu?$AA?9?$AAi?$AAn@ 00000001800b8878     libucrtd:lcidtoname_downlevel.obj
 0002:00019888       ??_C@_1M@KBMCINPM@?$AAh?$AAe?$AA?9?$AAi?$AAl@ 00000001800b8888     libucrtd:lcidtoname_downlevel.obj
 0002:00019898       ??_C@_1M@BBPHKFPJ@?$AAh?$AAi?$AA?9?$AAi?$AAn@ 00000001800b8898     libucrtd:lcidtoname_downlevel.obj
 0002:000198a8       ??_C@_1M@PMBNDPHD@?$AAh?$AAr?$AA?9?$AAb?$AAa@ 00000001800b88a8     libucrtd:lcidtoname_downlevel.obj
 0002:000198b8       ??_C@_1M@BPCKOEGE@?$AAh?$AAr?$AA?9?$AAh?$AAr@ 00000001800b88b8     libucrtd:lcidtoname_downlevel.obj
 0002:000198c8       ??_C@_1M@GACBMHKE@?$AAh?$AAu?$AA?9?$AAh?$AAu@ 00000001800b88c8     libucrtd:lcidtoname_downlevel.obj
 0002:000198d8       ??_C@_1M@MILPAJJC@?$AAh?$AAy?$AA?9?$AAa?$AAm@ 00000001800b88d8     libucrtd:lcidtoname_downlevel.obj
 0002:000198e8       ??_C@_1M@BABBICEC@?$AAi?$AAd?$AA?9?$AAi?$AAd@ 00000001800b88e8     libucrtd:lcidtoname_downlevel.obj
 0002:000198f8       ??_C@_1M@BIKNHHPF@?$AAi?$AAs?$AA?9?$AAi?$AAs@ 00000001800b88f8     libucrtd:lcidtoname_downlevel.obj
 0002:00019908       ??_C@_1M@NMPCJPHE@?$AAi?$AAt?$AA?9?$AAc?$AAh@ 00000001800b8908     libucrtd:lcidtoname_downlevel.obj
 0002:00019918       ??_C@_1M@GHKGFEDF@?$AAi?$AAt?$AA?9?$AAi?$AAt@ 00000001800b8918     libucrtd:lcidtoname_downlevel.obj
 0002:00019928       ??_C@_1M@NIEJCJJA@?$AAj?$AAa?$AA?9?$AAj?$AAp@ 00000001800b8928     libucrtd:lcidtoname_downlevel.obj
 0002:00019938       ??_C@_1M@JILFNBIM@?$AAk?$AAa?$AA?9?$AAg?$AAe@ 00000001800b8938     libucrtd:lcidtoname_downlevel.obj
 0002:00019948       ??_C@_1M@PACPMGPH@?$AAk?$AAk?$AA?9?$AAk?$AAz@ 00000001800b8948     libucrtd:lcidtoname_downlevel.obj
 0002:00019958       ??_C@_1M@IELFGMHA@?$AAk?$AAn?$AA?9?$AAi?$AAn@ 00000001800b8958     libucrtd:lcidtoname_downlevel.obj
 0002:00019968       ??_C@_1O@IBBJHCH@?$AAk?$AAo?$AAk?$AA?9?$AAi?$AAn@ 00000001800b8968     libucrtd:lcidtoname_downlevel.obj
 0002:00019978       ??_C@_1M@DMHAEOGC@?$AAk?$AAo?$AA?9?$AAk?$AAr@ 00000001800b8978     libucrtd:lcidtoname_downlevel.obj
 0002:00019988       ??_C@_1M@HBAHBIGA@?$AAk?$AAy?$AA?9?$AAk?$AAg@ 00000001800b8988     libucrtd:lcidtoname_downlevel.obj
 0002:00019998       ??_C@_1M@KPMILCJG@?$AAl?$AAt?$AA?9?$AAl?$AAt@ 00000001800b8998     libucrtd:lcidtoname_downlevel.obj
 0002:000199a8       ??_C@_1M@BDEKKCA@?$AAl?$AAv?$AA?9?$AAl?$AAv@ 00000001800b89a8     libucrtd:lcidtoname_downlevel.obj
 0002:000199b8       ??_C@_1M@ELCKCCJJ@?$AAm?$AAi?$AA?9?$AAn?$AAz@ 00000001800b89b8     libucrtd:lcidtoname_downlevel.obj
 0002:000199c8       ??_C@_1M@CBOOLAPA@?$AAm?$AAk?$AA?9?$AAm?$AAk@ 00000001800b89c8     libucrtd:lcidtoname_downlevel.obj
 0002:000199d8       ??_C@_1M@GPHNBJKN@?$AAm?$AAl?$AA?9?$AAi?$AAn@ 00000001800b89d8     libucrtd:lcidtoname_downlevel.obj
 0002:000199e8       ??_C@_1M@PABJILIG@?$AAm?$AAn?$AA?9?$AAm?$AAn@ 00000001800b89e8     libucrtd:lcidtoname_downlevel.obj
 0002:000199f8       ??_C@_1M@FGBKKIPG@?$AAm?$AAr?$AA?9?$AAi?$AAn@ 00000001800b89f8     libucrtd:lcidtoname_downlevel.obj
 0002:00019a08       ??_C@_1M@NDBPDDAL@?$AAm?$AAs?$AA?9?$AAb?$AAn@ 00000001800b8a08     libucrtd:lcidtoname_downlevel.obj
 0002:00019a18       ??_C@_1M@OPIHOOPI@?$AAm?$AAs?$AA?9?$AAm?$AAy@ 00000001800b8a18     libucrtd:lcidtoname_downlevel.obj
 0002:00019a28       ??_C@_1M@PPDBCNFM@?$AAm?$AAt?$AA?9?$AAm?$AAt@ 00000001800b8a28     libucrtd:lcidtoname_downlevel.obj
 0002:00019a38       ??_C@_1M@KDJDKMDD@?$AAn?$AAb?$AA?9?$AAn?$AAo@ 00000001800b8a38     libucrtd:lcidtoname_downlevel.obj
 0002:00019a48       ??_C@_1M@KFCFLMJP@?$AAn?$AAl?$AA?9?$AAb?$AAe@ 00000001800b8a48     libucrtd:lcidtoname_downlevel.obj
 0002:00019a58       ??_C@_1M@KPOPDDGO@?$AAn?$AAl?$AA?9?$AAn?$AAl@ 00000001800b8a58     libucrtd:lcidtoname_downlevel.obj
 0002:00019a68       ??_C@_1M@LJKPEMLN@?$AAn?$AAn?$AA?9?$AAn?$AAo@ 00000001800b8a68     libucrtd:lcidtoname_downlevel.obj
 0002:00019a78       ??_C@_1M@BDGHHBFL@?$AAn?$AAs?$AA?9?$AAz?$AAa@ 00000001800b8a78     libucrtd:lcidtoname_downlevel.obj
 0002:00019a88       ??_C@_1M@IDEHOAP@?$AAp?$AAa?$AA?9?$AAi?$AAn@ 00000001800b8a88     libucrtd:lcidtoname_downlevel.obj
 0002:00019a98       ??_C@_1M@HDBKGOGH@?$AAp?$AAl?$AA?9?$AAp?$AAl@ 00000001800b8a98     libucrtd:lcidtoname_downlevel.obj
 0002:00019aa8       ??_C@_1M@LJLLCMEH@?$AAp?$AAt?$AA?9?$AAb?$AAr@ 00000001800b8aa8     libucrtd:lcidtoname_downlevel.obj
 0002:00019ab8       ??_C@_1M@NCMONAAL@?$AAp?$AAt?$AA?9?$AAp?$AAt@ 00000001800b8ab8     libucrtd:lcidtoname_downlevel.obj
 0002:00019ac8       ??_C@_1O@EAKMAJDN@?$AAq?$AAu?$AAz?$AA?9?$AAb?$AAo@ 00000001800b8ac8     libucrtd:lcidtoname_downlevel.obj
 0002:00019ad8       ??_C@_1O@BHHPIGDN@?$AAq?$AAu?$AAz?$AA?9?$AAe?$AAc@ 00000001800b8ad8     libucrtd:lcidtoname_downlevel.obj
 0002:00019ae8       ??_C@_1O@GBAPEKMJ@?$AAq?$AAu?$AAz?$AA?9?$AAp?$AAe@ 00000001800b8ae8     libucrtd:lcidtoname_downlevel.obj
 0002:00019af8       ??_C@_1M@CLGLEFBO@?$AAr?$AAo?$AA?9?$AAr?$AAo@ 00000001800b8af8     libucrtd:lcidtoname_downlevel.obj
 0002:00019b08       ??_C@_1M@CEEDODME@?$AAr?$AAu?$AA?9?$AAr?$AAu@ 00000001800b8b08     libucrtd:lcidtoname_downlevel.obj
 0002:00019b18       ??_C@_1M@HPKKKMPP@?$AAs?$AAa?$AA?9?$AAi?$AAn@ 00000001800b8b18     libucrtd:lcidtoname_downlevel.obj
 0002:00019b28       ??_C@_1M@BKMAIGOJ@?$AAs?$AAe?$AA?9?$AAf?$AAi@ 00000001800b8b28     libucrtd:lcidtoname_downlevel.obj
 0002:00019b38       ??_C@_1M@NDPIFLFI@?$AAs?$AAe?$AA?9?$AAn?$AAo@ 00000001800b8b38     libucrtd:lcidtoname_downlevel.obj
 0002:00019b48       ??_C@_1M@DANKKHJ@?$AAs?$AAe?$AA?9?$AAs?$AAe@ 00000001800b8b48     libucrtd:lcidtoname_downlevel.obj
 0002:00019b58       ??_C@_1M@PNBLONPJ@?$AAs?$AAk?$AA?9?$AAs?$AAk@ 00000001800b8b58     libucrtd:lcidtoname_downlevel.obj
 0002:00019b68       ??_C@_1M@LFMODOAL@?$AAs?$AAl?$AA?9?$AAs?$AAi@ 00000001800b8b68     libucrtd:lcidtoname_downlevel.obj
 0002:00019b78       ??_C@_1O@DFKOMPG@?$AAs?$AAm?$AAa?$AA?9?$AAn?$AAo@ 00000001800b8b78     libucrtd:lcidtoname_downlevel.obj
 0002:00019b88       ??_C@_1O@NDKPBNNH@?$AAs?$AAm?$AAa?$AA?9?$AAs?$AAe@ 00000001800b8b88     libucrtd:lcidtoname_downlevel.obj
 0002:00019b98       ??_C@_1O@PLLKBHAB@?$AAs?$AAm?$AAj?$AA?9?$AAn?$AAo@ 00000001800b8b98     libucrtd:lcidtoname_downlevel.obj
 0002:00019ba8       ??_C@_1O@CLEPOGCA@?$AAs?$AAm?$AAj?$AA?9?$AAs?$AAe@ 00000001800b8ba8     libucrtd:lcidtoname_downlevel.obj
 0002:00019bb8       ??_C@_1O@DLGJGKMK@?$AAs?$AAm?$AAn?$AA?9?$AAf?$AAi@ 00000001800b8bb8     libucrtd:lcidtoname_downlevel.obj
 0002:00019bc8       ??_C@_1O@OJDJGAJC@?$AAs?$AAm?$AAs?$AA?9?$AAf?$AAi@ 00000001800b8bc8     libucrtd:lcidtoname_downlevel.obj
 0002:00019bd8       ??_C@_1M@BOFOGHPB@?$AAs?$AAq?$AA?9?$AAa?$AAl@ 00000001800b8bd8     libucrtd:lcidtoname_downlevel.obj
 0002:00019be8       ??_C@_1BG@LJBBIPGB@?$AAs?$AAr?$AA?9?$AAb?$AAa?$AA?9?$AAc?$AAy?$AAr?$AAl@ 00000001800b8be8     libucrtd:lcidtoname_downlevel.obj
 0002:00019c00       ??_C@_1BG@JLBENFOE@?$AAs?$AAr?$AA?9?$AAb?$AAa?$AA?9?$AAl?$AAa?$AAt?$AAn@ 00000001800b8c00     libucrtd:lcidtoname_downlevel.obj
 0002:00019c18       ??_C@_1BG@KODPNHE@?$AAs?$AAr?$AA?9?$AAs?$AAp?$AA?9?$AAc?$AAy?$AAr?$AAl@ 00000001800b8c18     libucrtd:lcidtoname_downlevel.obj
 0002:00019c30       ??_C@_1BG@CIOGKHPB@?$AAs?$AAr?$AA?9?$AAs?$AAp?$AA?9?$AAl?$AAa?$AAt?$AAn@ 00000001800b8c30     libucrtd:lcidtoname_downlevel.obj
 0002:00019c48       ??_C@_1M@NGFJLMAC@?$AAs?$AAv?$AA?9?$AAf?$AAi@ 00000001800b8c48     libucrtd:lcidtoname_downlevel.obj
 0002:00019c58       ??_C@_1M@MPJEJAJC@?$AAs?$AAv?$AA?9?$AAs?$AAe@ 00000001800b8c58     libucrtd:lcidtoname_downlevel.obj
 0002:00019c68       ??_C@_1M@MPNDHLFK@?$AAs?$AAw?$AA?9?$AAk?$AAe@ 00000001800b8c68     libucrtd:lcidtoname_downlevel.obj
 0002:00019c78       ??_C@_1O@KOHBJJI@?$AAs?$AAy?$AAr?$AA?9?$AAs?$AAy@ 00000001800b8c78     libucrtd:lcidtoname_downlevel.obj
 0002:00019c88       ??_C@_1M@LDCEFHA@?$AAt?$AAa?$AA?9?$AAi?$AAn@ 00000001800b8c88     libucrtd:lcidtoname_downlevel.obj
 0002:00019c98       ??_C@_1M@CNJOFAK@?$AAt?$AAe?$AA?9?$AAi?$AAn@ 00000001800b8c98     libucrtd:lcidtoname_downlevel.obj
 0002:00019ca8       ??_C@_1M@GNAECACD@?$AAt?$AAh?$AA?9?$AAt?$AAh@ 00000001800b8ca8     libucrtd:lcidtoname_downlevel.obj
 0002:00019cb8       ??_C@_1M@CHBIHOJO@?$AAt?$AAn?$AA?9?$AAz?$AAa@ 00000001800b8cb8     libucrtd:lcidtoname_downlevel.obj
 0002:00019cc8       ??_C@_1M@GCCMIGPJ@?$AAt?$AAr?$AA?9?$AAt?$AAr@ 00000001800b8cc8     libucrtd:lcidtoname_downlevel.obj
 0002:00019cd8       ??_C@_1M@CELMCNBK@?$AAt?$AAt?$AA?9?$AAr?$AAu@ 00000001800b8cd8     libucrtd:lcidtoname_downlevel.obj
 0002:00019ce8       ??_C@_1M@KLMCELGA@?$AAu?$AAk?$AA?9?$AAu?$AAa@ 00000001800b8ce8     libucrtd:lcidtoname_downlevel.obj
 0002:00019cf8       ??_C@_1M@EPAJJAJF@?$AAu?$AAr?$AA?9?$AAp?$AAk@ 00000001800b8cf8     libucrtd:lcidtoname_downlevel.obj
 0002:00019d08       ??_C@_1BG@GEGPMCDJ@?$AAu?$AAz?$AA?9?$AAu?$AAz?$AA?9?$AAc?$AAy?$AAr?$AAl@ 00000001800b8d08     libucrtd:lcidtoname_downlevel.obj
 0002:00019d20       ??_C@_1BG@EGGKJILM@?$AAu?$AAz?$AA?9?$AAu?$AAz?$AA?9?$AAl?$AAa?$AAt?$AAn@ 00000001800b8d20     libucrtd:lcidtoname_downlevel.obj
 0002:00019d38       ??_C@_1M@GFOCLFF@?$AAv?$AAi?$AA?9?$AAv?$AAn@ 00000001800b8d38     libucrtd:lcidtoname_downlevel.obj
 0002:00019d48       ??_C@_1M@CPAMEDFI@?$AAx?$AAh?$AA?9?$AAz?$AAa@ 00000001800b8d48     libucrtd:lcidtoname_downlevel.obj
 0002:00019d58       ??_C@_1O@EBKIFIGN@?$AAz?$AAh?$AA?9?$AAc?$AAh?$AAs@ 00000001800b8d58     libucrtd:lcidtoname_downlevel.obj
 0002:00019d68       ??_C@_1O@NMHPGANE@?$AAz?$AAh?$AA?9?$AAc?$AAh?$AAt@ 00000001800b8d68     libucrtd:lcidtoname_downlevel.obj
 0002:00019d78       ??_C@_1M@LPINJOMC@?$AAz?$AAh?$AA?9?$AAc?$AAn@ 00000001800b8d78     libucrtd:lcidtoname_downlevel.obj
 0002:00019d88       ??_C@_1M@OCJEJODD@?$AAz?$AAh?$AA?9?$AAh?$AAk@ 00000001800b8d88     libucrtd:lcidtoname_downlevel.obj
 0002:00019d98       ??_C@_1M@DNDLJINH@?$AAz?$AAh?$AA?9?$AAm?$AAo@ 00000001800b8d98     libucrtd:lcidtoname_downlevel.obj
 0002:00019da8       ??_C@_1M@MBFDNDND@?$AAz?$AAh?$AA?9?$AAs?$AAg@ 00000001800b8da8     libucrtd:lcidtoname_downlevel.obj
 0002:00019db8       ??_C@_1M@IMEPLEPE@?$AAz?$AAh?$AA?9?$AAt?$AAw@ 00000001800b8db8     libucrtd:lcidtoname_downlevel.obj
 0002:00019dc8       ??_C@_1M@BBGHNHJP@?$AAz?$AAu?$AA?9?$AAz?$AAa@ 00000001800b8dc8     libucrtd:lcidtoname_downlevel.obj
 0002:00019de0       ??_C@_1GI@IMEEHIAK@?$AAm?$AAi?$AAn?$AAk?$AAe?$AAr?$AAn?$AAe?$AAl?$AA?2?$AAc?$AAr?$AAt?$AAs?$AA?2@ 00000001800b8de0     libucrtd:_fptostr.obj
 0002:00019e48       ??_C@_1DG@NMGBKPMI@?$AA_?$AA_?$AAa?$AAc?$AAr?$AAt?$AA_?$AAf?$AAp?$AA_?$AAs?$AAt?$AAr?$AAf?$AAl@ 00000001800b8e48     libucrtd:_fptostr.obj
 0002:00019e80       ??_C@_1IE@EAOKIIFP@?$AAb?$AAu?$AAf?$AAf?$AAe?$AAr?$AA_?$AAc?$AAo?$AAu?$AAn?$AAt?$AA?5?$AA?$DO?$AA?5@ 00000001800b8e80     libucrtd:_fptostr.obj
 0002:00019f08       ??_C@_1CA@EDEEBMBB@?$AAp?$AAf?$AAl?$AAt?$AA?5?$AA?$CB?$AA?$DN?$AA?5?$AAn?$AAu?$AAl?$AAl?$AAp?$AAt?$AAr@ 00000001800b8f08     libucrtd:_fptostr.obj
 0002:00019f30       ?large_power_data@?1??multiply_by_power_of_ten@__crt_strtox@@YA_NAEAUbig_integer@2@I@Z@4QBIB 00000001800b8f30     libucrtd:cfout.obj
 0002:0001a840       ?large_power_indices@?1??multiply_by_power_of_ten@__crt_strtox@@YA_NAEAUbig_integer@2@I@Z@4QBUunpack_index@?1??12@YA_N0I@Z@B 00000001800b9840     libucrtd:cfout.obj
 0002:0001a8d8       ?small_powers_of_ten@?1??multiply_by_power_of_ten@__crt_strtox@@YA_NAEAUbig_integer@2@I@Z@4QBIB 00000001800b98d8     libucrtd:cfout.obj
 0002:0001a900       ??_C@_1DI@GICAMMFM@?$AA?$CI?$AA?$CC?$AAD?$AAi?$AAv?$AAi?$AAs?$AAi?$AAo?$AAn?$AA?5?$AAb?$AAy?$AA?5?$AAz@ 00000001800b9900     libucrtd:cfout.obj
 0002:0001a940       ??_C@_1GO@BFGDDONN@?$AAm?$AAi?$AAn?$AAk?$AAe?$AAr?$AAn?$AAe?$AAl?$AA?2?$AAc?$AAr?$AAt?$AAs?$AA?2@ 00000001800b9940     libucrtd:cfout.obj
 0002:0001a9b0       ??_C@_1GC@DDAKNBNC@?$AAm?$AAi?$AAn?$AAk?$AAe?$AAr?$AAn?$AAe?$AAl?$AA?2?$AAc?$AAr?$AAt?$AAs?$AA?2@ 00000001800b99b0     libucrtd:cfout.obj
 0002:0001aa18       ??_C@_1BM@FAAOAKKO@?$AA_?$AA_?$AAa?$AAc?$AAr?$AAt?$AA_?$AAf?$AAl?$AAt?$AAo?$AAu?$AAt@ 00000001800b9a18     libucrtd:cfout.obj
 0002:0001aa40       ??_C@_1EI@OACEJKEP@?$AAs?$AAt?$AAr?$AAc?$AAp?$AAy?$AA_?$AAs?$AA?$CI?$AAr?$AAe?$AAs?$AAu?$AAl?$AAt@ 00000001800b9a40     libucrtd:cfout.obj
 0002:0001aa88       ??_C@_01GBGANLPD@0@        00000001800b9a88     libucrtd:cfout.obj
 0002:0001aa90       ??_C@_1FC@KIECGFMP@?$AAs?$AAt?$AAr?$AAc?$AAp?$AAy?$AA_?$AAs?$AA?$CI?$AAr?$AAe?$AAs?$AAu?$AAl?$AAt@ 00000001800b9a90     libucrtd:cfout.obj
 0002:0001aae4       ??_C@_05DNEBIAHO@1?$CDINF@ 00000001800b9ae4     libucrtd:cfout.obj
 0002:0001aaf0       ??_C@_1FC@NFPJEIBD@?$AAs?$AAt?$AAr?$AAc?$AAp?$AAy?$AA_?$AAs?$AA?$CI?$AAr?$AAe?$AAs?$AAu?$AAl?$AAt@ 00000001800b9af0     libucrtd:cfout.obj
 0002:0001ab44       ??_C@_06IMKFLFPG@1?$CDQNAN@ 00000001800b9b44     libucrtd:cfout.obj
 0002:0001ab50       ??_C@_1FC@DEJHIMLO@?$AAs?$AAt?$AAr?$AAc?$AAp?$AAy?$AA_?$AAs?$AA?$CI?$AAr?$AAe?$AAs?$AAu?$AAl?$AAt@ 00000001800b9b50     libucrtd:cfout.obj
 0002:0001aba4       ??_C@_06PGGFOGJG@1?$CDSNAN@ 00000001800b9ba4     libucrtd:cfout.obj
 0002:0001abb0       ??_C@_1FC@KMLHLFPC@?$AAs?$AAt?$AAr?$AAc?$AAp?$AAy?$AA_?$AAs?$AA?$CI?$AAr?$AAe?$AAs?$AAu?$AAl?$AAt@ 00000001800b9bb0     libucrtd:cfout.obj
 0002:0001ac04       ??_C@_05PHHOCPM@1?$CDIND@  00000001800b9c04     libucrtd:cfout.obj
 0002:0001ac10       ??_C@_1DE@KHKADFOO@?$AAm?$AAa?$AAn?$AAt?$AAi?$AAs?$AAs?$AAa?$AA_?$AAb?$AAu?$AAf?$AAf?$AAe?$AAr@ 00000001800b9c10     libucrtd:cfout.obj
 0002:0001ac50       ??_C@_1FI@LFKLOPAC@?$AA?$CI?$AA?$CC?$AAu?$AAn?$AAe?$AAx?$AAp?$AAe?$AAc?$AAt?$AAe?$AAd?$AA?5?$AAi?$AAn@ 00000001800b9c50     libucrtd:cfout.obj
 0002:0001acb0       ??_C@_1FG@MLHBDPBG@?$AAq?$AAu?$AAo?$AAt?$AAi?$AAe?$AAn?$AAt?$AA?5?$AA?$DM?$AA?5?$AAd?$AAi?$AAg?$AAi@ 00000001800b9cb0     libucrtd:cfout.obj
 0002:0001ad10       ??_C@_1EK@OANGPA@?$AA1?$AA?5?$AA?$DM?$AA?$DN?$AA?5?$AAt?$AAr?$AAa?$AAi?$AAl?$AA_?$AAb?$AAy?$AAt?$AAe@ 00000001800b9d10     libucrtd:c32rtomb.obj
 0002:0001ad60       ??_C@_1GI@FBFKMNDD@?$AAm?$AAi?$AAn?$AAk?$AAe?$AAr?$AAn?$AAe?$AAl?$AA?2?$AAc?$AAr?$AAt?$AAs?$AA?2@ 00000001800b9d60     libucrtd:c32rtomb.obj
 0002:0001add0       ??_C@_1EA@DDDCIHI@?$AAc?$AA3?$AA2?$AA?5?$AA?$DM?$AA?5?$AA?$CI?$AA1?$AAu?$AA?5?$AA?$DM?$AA?$DM?$AA?5?$AA?$CI?$AA7@ 00000001800b9dd0     libucrtd:c32rtomb.obj
 0002:0001ae10       ??_C@_1GG@MCCIENJO@?$AAm?$AAi?$AAn?$AAk?$AAe?$AAr?$AAn?$AAe?$AAl?$AA?2?$AAc?$AAr?$AAt?$AAs?$AA?2@ 00000001800b9e10     libucrtd:mbrtowc.obj
 0002:0001ae80       ??_C@_1EK@MCEFBPIK@?$AAr?$AAe?$AAt?$AAv?$AAa?$AAl?$AA?5?$AA?$CB?$AA?$DN?$AA?5?$AA_?$AA_?$AAc?$AAr?$AAt@ 00000001800b9e80     libucrtd:mbrtowc.obj
 0002:0001aed0       ??_C@_1GC@DFIGBGJI@?$AAm?$AAi?$AAn?$AAk?$AAe?$AAr?$AAn?$AAe?$AAl?$AA?2?$AAc?$AAr?$AAt?$AAs?$AA?2@ 00000001800b9ed0     libucrtd:_flsbuf.obj
 0002:0001af40       ??_C@_1HO@MLMGPAFH@?$AA?$CI?$AA?$CC?$AAi?$AAn?$AAc?$AAo?$AAn?$AAs?$AAi?$AAs?$AAt?$AAe?$AAn?$AAt?$AA?5@ 00000001800b9f40     libucrtd:_flsbuf.obj
 0002:0001afe8       ??_C@_1BK@FPAMLIDG@?$AAs?$AA?5?$AA?$CB?$AA?$DN?$AA?5?$AAn?$AAu?$AAl?$AAl?$AAp?$AAt?$AAr@ 00000001800b9fe8     libucrtd:mbstowcs.obj
 0002:0001b010       ??_C@_1GI@KABMHNPH@?$AAm?$AAi?$AAn?$AAk?$AAe?$AAr?$AAn?$AAe?$AAl?$AA?2?$AAc?$AAr?$AAt?$AAs?$AA?2@ 00000001800ba010     libucrtd:mbstowcs.obj
 0002:0001b078       ??_C@_1CG@JEHFHLNG@?$AA_?$AAm?$AAb?$AAs?$AAt?$AAo?$AAw?$AAc?$AAs?$AA_?$AAl?$AA_?$AAh?$AAe?$AAl@ 00000001800ba078     libucrtd:mbstowcs.obj
 0002:0001b0a0       ??_C@_1JM@MEKBACIG@?$AA?$CI?$AAp?$AAw?$AAc?$AAs?$AA?5?$AA?$DN?$AA?$DN?$AA?5?$AAn?$AAu?$AAl?$AAl?$AAp?$AAt@ 00000001800ba0a0     libucrtd:mbstowcs.obj
 0002:0001b140       ??_C@_1CG@BILJJDPK@?$AA_?$AAm?$AAb?$AAs?$AAt?$AAo?$AAw?$AAc?$AAs?$AA_?$AAi?$AAn?$AAt?$AAe?$AAr@ 00000001800ba140     libucrtd:mbstowcs.obj
 0002:0001b168       ??_C@_1CM@LLECFMFH@?$AAb?$AAu?$AAf?$AAf?$AAe?$AAr?$AAS?$AAi?$AAz?$AAe?$AA?5?$AA?$DM?$AA?$DN?$AA?5?$AAI@ 00000001800ba168     libucrtd:mbstowcs.obj
 0002:0001b198       ??_C@_1CO@JNPEPJAL@?$AAr?$AAe?$AAt?$AAs?$AAi?$AAz?$AAe?$AA?5?$AA?$DM?$AA?$DN?$AA?5?$AAs?$AAi?$AAz?$AAe@ 00000001800ba198     libucrtd:mbstowcs.obj
 0002:0001b1c8       ??_C@_1CA@NOKNKDIG@?$AAp?$AAw?$AAc?$AAs?$AA?5?$AA?$CB?$AA?$DN?$AA?5?$AAn?$AAu?$AAl?$AAl?$AAp?$AAt?$AAr@ 00000001800ba1c8     libucrtd:wcstombs.obj
 0002:0001b1f0       ??_C@_1GI@EEJDEALP@?$AAm?$AAi?$AAn?$AAk?$AAe?$AAr?$AAn?$AAe?$AAl?$AA?2?$AAc?$AAr?$AAt?$AAs?$AA?2@ 00000001800ba1f0     libucrtd:wcstombs.obj
 0002:0001b258       ??_C@_1CG@LLJCAOHF@?$AA_?$AAw?$AAc?$AAs?$AAt?$AAo?$AAm?$AAb?$AAs?$AA_?$AAl?$AA_?$AAh?$AAe?$AAl@ 00000001800ba258     libucrtd:wcstombs.obj
 0002:0001b280       ??_C@_1JI@DFNKFCLG@?$AA?$CI?$AAd?$AAs?$AAt?$AA?5?$AA?$CB?$AA?$DN?$AA?5?$AAn?$AAu?$AAl?$AAl?$AAp?$AAt?$AAr@ 00000001800ba280     libucrtd:wcstombs.obj
 0002:0001b318       ??_C@_1CG@DHFOOGFJ@?$AA_?$AAw?$AAc?$AAs?$AAt?$AAo?$AAm?$AAb?$AAs?$AA_?$AAi?$AAn?$AAt?$AAe?$AAr@ 00000001800ba318     libucrtd:wcstombs.obj
 0002:0001b340       ??_C@_1CM@KEOGBFLI@?$AAs?$AAi?$AAz?$AAe?$AAI?$AAn?$AAB?$AAy?$AAt?$AAe?$AAs?$AA?5?$AA?$DO?$AA?5?$AAr@ 00000001800ba340     libucrtd:wcstombs.obj
 0002:0001b370       ??_C@_1GC@CIJNGKLD@?$AAm?$AAi?$AAn?$AAk?$AAe?$AAr?$AAn?$AAe?$AAl?$AA?2?$AAc?$AAr?$AAt?$AAs?$AA?2@ 00000001800ba370     libucrtd:setmode.obj
 0002:0001b3d8       ??_C@_1CC@ODGEBJBO@?$AAp?$AAM?$AAo?$AAd?$AAe?$AA?5?$AA?$CB?$AA?$DN?$AA?5?$AAn?$AAu?$AAl?$AAl?$AAp?$AAt@ 00000001800ba3d8     libucrtd:setmode.obj
 0002:0001b400       ??_C@_1BG@CKGMPOFH@?$AA_?$AAg?$AAe?$AAt?$AA_?$AAf?$AAm?$AAo?$AAd?$AAe@ 00000001800ba400     libucrtd:setmode.obj
 0002:0001b418       ??_C@_0DA@IEKPAGFB@minkernel?2crts?2ucrt?2src?2appcrt?2@ 00000001800ba418     libucrtd:chsize.obj
 0002:0001b6a0       ??_C@_1DG@JNDMIEJL@?$AA?$CI?$AA?$CC?$AAI?$AAn?$AAv?$AAa?$AAl?$AAi?$AAd?$AA?5?$AAi?$AAn?$AAp?$AAu?$AAt@ 00000001800ba6a0     libucrtd:contrlfp.obj
 0002:0001b6e0       ??_C@_1FO@HHLKCIKB@?$AAm?$AAi?$AAn?$AAk?$AAe?$AAr?$AAn?$AAe?$AAl?$AA?2?$AAc?$AAr?$AAt?$AAs?$AA?2@ 00000001800ba6e0     libucrtd:contrlfp.obj
 0002:0001b740       ??_C@_1BK@CDOALEA@?$AA_?$AAc?$AAo?$AAn?$AAt?$AAr?$AAo?$AAl?$AAf?$AAp?$AA_?$AAs@ 00000001800ba740     libucrtd:contrlfp.obj
 0002:0001b788       ??_C@_1BA@BALFACEM@?$AAC?$AAO?$AAN?$AAO?$AAU?$AAT?$AA$@ 00000001800ba788     libucrtd:initcon.obj
 0002:0001b7a0       __log10_256_lead           00000001800ba7a0     libucrtd:log10_256_lead_tail_table.obj
 0002:0001bfb0       __log10_256_tail           00000001800bafb0     libucrtd:log10_256_lead_tail_table.obj
 0002:0001c7c0       ??_C@_1EK@PDBKILLM@?$AA?$CI?$AAm?$AAa?$AAs?$AAk?$AA?$CG?$AA?$HO?$AA?$CI?$AA_?$AAM?$AAC?$AAW?$AA_?$AAD?$AAN@ 00000001800bb7c0     libucrtd:ieee.obj
 0002:0001c810       ??_C@_1GC@IEFABLII@?$AAm?$AAi?$AAn?$AAk?$AAe?$AAr?$AAn?$AAe?$AAl?$AA?2?$AAc?$AAr?$AAt?$AAs?$AA?2@ 00000001800bb810     libucrtd:ieee.obj
 0002:0001c880       ??_7type_info@@6B@         00000001800bb880     LIBCMTD:std_type_info_static.obj
 0002:0001c8f0       _load_config_used          00000001800bb8f0     LIBCMTD:loadcfg.obj
 0002:0001c9f0       _tls_used                  00000001800bb9f0     LIBCMTD:tlssup.obj
 0002:0001ca18       ??_R4exception@std@@6B@    00000001800bba18     libvcruntimed:frame.obj
 0002:0001ca40       ??_R3exception@std@@8      00000001800bba40     libvcruntimed:frame.obj
 0002:0001ca58       ??_R2exception@std@@8      00000001800bba58     libvcruntimed:frame.obj
 0002:0001ca68       ??_R1A@?0A@EA@exception@std@@8 00000001800bba68     libvcruntimed:frame.obj
 0002:0001ca90       ??_R4bad_exception@std@@6B@ 00000001800bba90     libvcruntimed:frame.obj
 0002:0001cab8       ??_R3bad_exception@std@@8  00000001800bbab8     libvcruntimed:frame.obj
 0002:0001cad0       ??_R2bad_exception@std@@8  00000001800bbad0     libvcruntimed:frame.obj
 0002:0001cae8       ??_R1A@?0A@EA@bad_exception@std@@8 00000001800bbae8     libvcruntimed:frame.obj
 0002:0001cb10       ??_R4type_info@@6B@        00000001800bbb10     LIBCMTD:std_type_info_static.obj
 0002:0001cb38       ??_R3type_info@@8          00000001800bbb38     LIBCMTD:std_type_info_static.obj
 0002:0001cb50       ??_R2type_info@@8          00000001800bbb50     LIBCMTD:std_type_info_static.obj
 0002:0001cb60       ??_R1A@?0A@EA@type_info@@8 00000001800bbb60     LIBCMTD:std_type_info_static.obj
 0002:0001cf18       __rtc_iaa                  00000001800bbf18     LIBCMTD:initsect.obj
 0002:0001cf20       __rtc_izz                  00000001800bbf20     LIBCMTD:initsect.obj
 0002:0001cf28       __rtc_taa                  00000001800bbf28     LIBCMTD:initsect.obj
 0002:0001cf30       __rtc_tzz                  00000001800bbf30     LIBCMTD:initsect.obj
 0002:0001cf38       _tls_start                 00000001800bbf38     LIBCMTD:tlssup.obj
 0002:0001cf50       _tls_end                   00000001800bbf50     LIBCMTD:tlssup.obj
 0002:0001f750       _TI2?AVbad_exception@std@@ 00000001800be750     libvcruntimed:frame.obj
 0002:0001f770       _CTA2?AVbad_exception@std@@ 00000001800be770     libvcruntimed:frame.obj
 0002:0001f788       _CT??_R0?AVbad_exception@std@@@8??0bad_exception@std@@QEAA@AEBV01@@Z24 00000001800be788     libvcruntimed:frame.obj
 0002:0001f7b0       _CT??_R0?AVexception@std@@@8??0exception@std@@QEAA@AEBV01@@Z24 00000001800be7b0     libvcruntimed:frame.obj
 0002:0001f884       __IMPORT_DESCRIPTOR_KERNEL32 00000001800be884     kernel32:KERNEL32.dll
 0002:0001f898       __NULL_IMPORT_DESCRIPTOR   00000001800be898     kernel32:KERNEL32.dll
 0003:000000a0       __security_cookie_complement 00000001800c00a0     LIBCMTD:gs_cookie.obj
 0003:000000a8       __security_cookie          00000001800c00a8     LIBCMTD:gs_cookie.obj
 0003:000000b0       _fltused                   00000001800c00b0     LIBCMTD:fltused.obj
 0003:000000b4       __scrt_native_dllmain_reason 00000001800c00b4     LIBCMTD:utility.obj
 0003:000000b8       __isa_available            00000001800c00b8     LIBCMTD:cpu_disp.obj
 0003:000000bc       __isa_enabled              00000001800c00bc     LIBCMTD:cpu_disp.obj
 0003:000000c0       __memcpy_nt_iters          00000001800c00c0     LIBCMTD:cpu_disp.obj
 0003:000000e4       _crtDbgFlag                00000001800c00e4     libucrtd:debug_heap.obj
 0003:000000e8       _crtBreakAlloc             00000001800c00e8     libucrtd:debug_heap.obj
 0003:000000f0       __abort_behavior           00000001800c00f0     libucrtd:abort.obj
 0003:00000100       __acrt_initial_locale_data 00000001800c0100     libucrtd:nlsdata.obj
 0003:00000258       __acrt_initial_locale_pointers 00000001800c0258     libucrtd:nlsdata.obj
 0003:00000268       __acrt_wide_c_locale_string 00000001800c0268     libucrtd:nlsdata.obj
 0003:00000270       _iob                       00000001800c0270     libucrtd:_file.obj
 0003:00000380       __badioinfo                00000001800c0380     libucrtd:ioinit.obj
 0003:000003d0       _lookuptrailbytes          00000001800c03d0     libucrtd:read.obj
 0003:000004d0       __acrt_initial_multibyte_data 00000001800c04d0     libucrtd:mbctype.obj
 0003:00000a10       _pfnAllocHook              00000001800c0a10     libucrtd:debug_heap_hook.obj
 0003:00000a20       _crtAssertBusy             00000001800c0a20     libucrtd:dbgrptt.obj
 0003:00000a28       _CrtDbgMode                00000001800c0a28     libucrtd:dbgrptt.obj
 0003:00000a38       _CrtDbgFile                00000001800c0a38     libucrtd:dbgrptt.obj
 0003:00000a50       __globallocalestatus       00000001800c0a50     libucrtd:glstatus.obj
 0003:00000a60       __acrt_lconv_c             00000001800c0a60     libucrtd:localeconv.obj
 0003:00000af8       __acrt_lconv_static_decimal 00000001800c0af8     libucrtd:localeconv.obj
 0003:00000afc       __acrt_lconv_static_W_decimal 00000001800c0afc     libucrtd:localeconv.obj
 0003:00000b20       ??_R0?AVbad_exception@std@@@8 00000001800c0b20     libvcruntimed:frame.obj
 0003:00000b48       ??_R0?AVexception@std@@@8  00000001800c0b48     libvcruntimed:frame.obj
 0003:00000b70       ??_R0?AVtype_info@@@8      00000001800c0b70     LIBCMTD:std_type_info_static.obj
 0003:00000b90       ?vkGetInstanceProcAddr@@3P6AP6AXXZPEAUVkInstance_T@@PEBD@ZEA 00000001800c0b90     raymarch_art_demo.obj
 0003:00000b98       ?vkCreateInstance@@3P6A?AW4VkResult@@PEBUVkInstanceCreateInfo@@PEBUVkAllocationCallbacks@@PEAPEAUVkInstance_T@@@ZEA 00000001800c0b98     raymarch_art_demo.obj
 0003:00000ba0       ?vkEnumerateInstanceExtensionProperties@@3P6A?AW4VkResult@@PEBDPEAIPEAUVkExtensionProperties@@@ZEA 00000001800c0ba0     raymarch_art_demo.obj
 0003:00000ba8       ?vkEnumerateInstanceLayerProperties@@3P6A?AW4VkResult@@PEAIPEAUVkLayerProperties@@@ZEA 00000001800c0ba8     raymarch_art_demo.obj
 0003:00000bb0       ?vkDestroyInstance@@3P6AXPEAUVkInstance_T@@PEBUVkAllocationCallbacks@@@ZEA 00000001800c0bb0     raymarch_art_demo.obj
 0003:00000bb8       ?vkEnumeratePhysicalDevices@@3P6A?AW4VkResult@@PEAUVkInstance_T@@PEAIPEAPEAUVkPhysicalDevice_T@@@ZEA 00000001800c0bb8     raymarch_art_demo.obj
 0003:00000bc0       ?vkGetPhysicalDeviceProperties@@3P6AXPEAUVkPhysicalDevice_T@@PEAUVkPhysicalDeviceProperties@@@ZEA 00000001800c0bc0     raymarch_art_demo.obj
 0003:00000bc8       ?vkGetPhysicalDeviceFeatures@@3P6AXPEAUVkPhysicalDevice_T@@PEAUVkPhysicalDeviceFeatures@@@ZEA 00000001800c0bc8     raymarch_art_demo.obj
 0003:00000bd0       ?vkGetPhysicalDeviceQueueFamilyProperties@@3P6AXPEAUVkPhysicalDevice_T@@PEAIPEAUVkQueueFamilyProperties@@@ZEA 00000001800c0bd0     raymarch_art_demo.obj
 0003:00000bd8       ?vkCreateDevice@@3P6A?AW4VkResult@@PEAUVkPhysicalDevice_T@@PEBUVkDeviceCreateInfo@@PEBUVkAllocationCallbacks@@PEAPEAUVkDevice_T@@@ZEA 00000001800c0bd8     raymarch_art_demo.obj
 0003:00000be0       ?vkGetDeviceProcAddr@@3P6AP6AXXZPEAUVkDevice_T@@PEBD@ZEA 00000001800c0be0     raymarch_art_demo.obj
 0003:00000be8       ?vkEnumerateDeviceExtensionProperties@@3P6A?AW4VkResult@@PEAUVkPhysicalDevice_T@@PEBDPEAIPEAUVkExtensionProperties@@@ZEA 00000001800c0be8     raymarch_art_demo.obj
 0003:00000bf0       ?vkDestroySurfaceKHR@@3P6AXPEAUVkInstance_T@@PEAUVkSurfaceKHR_T@@PEBUVkAllocationCallbacks@@@ZEA 00000001800c0bf0     raymarch_art_demo.obj
 0003:00000bf8       ?vkGetPhysicalDeviceSurfaceSupportKHR@@3P6A?AW4VkResult@@PEAUVkPhysicalDevice_T@@IPEAUVkSurfaceKHR_T@@PEAI@ZEA 00000001800c0bf8     raymarch_art_demo.obj
 0003:00000c00       ?vkGetPhysicalDeviceSurfaceCapabilitiesKHR@@3P6A?AW4VkResult@@PEAUVkPhysicalDevice_T@@PEAUVkSurfaceKHR_T@@PEAUVkSurfaceCapabilitiesKHR@@@ZEA 00000001800c0c00     raymarch_art_demo.obj
 0003:00000c08       ?vkGetPhysicalDeviceSurfaceFormatsKHR@@3P6A?AW4VkResult@@PEAUVkPhysicalDevice_T@@PEAUVkSurfaceKHR_T@@PEAIPEAUVkSurfaceFormatKHR@@@ZEA 00000001800c0c08     raymarch_art_demo.obj
 0003:00000c10       ?vkGetPhysicalDeviceSurfacePresentModesKHR@@3P6A?AW4VkResult@@PEAUVkPhysicalDevice_T@@PEAUVkSurfaceKHR_T@@PEAIPEAW4VkPresentModeKHR@@@ZEA 00000001800c0c10     raymarch_art_demo.obj
 0003:00000c18       ?vkCreateWin32SurfaceKHR@@3P6A?AW4VkResult@@PEAUVkInstance_T@@PEBUVkWin32SurfaceCreateInfoKHR@@PEBUVkAllocationCallbacks@@PEAPEAUVkSurfaceKHR_T@@@ZEA 00000001800c0c18     raymarch_art_demo.obj
 0003:00000c20       ?vkGetPhysicalDeviceMemoryProperties@@3P6AXPEAUVkPhysicalDevice_T@@PEAUVkPhysicalDeviceMemoryProperties@@@ZEA 00000001800c0c20     raymarch_art_demo.obj
 0003:00000c28       ?vkGetPhysicalDeviceFormatProperties@@3P6AXPEAUVkPhysicalDevice_T@@W4VkFormat@@PEAUVkFormatProperties@@@ZEA 00000001800c0c28     raymarch_art_demo.obj
 0003:00000c30       ?vkGetDeviceQueue@@3P6AXPEAUVkDevice_T@@IIPEAPEAUVkQueue_T@@@ZEA 00000001800c0c30     raymarch_art_demo.obj
 0003:00000c38       ?vkDestroyDevice@@3P6AXPEAUVkDevice_T@@PEBUVkAllocationCallbacks@@@ZEA 00000001800c0c38     raymarch_art_demo.obj
 0003:00000c40       ?vkDeviceWaitIdle@@3P6A?AW4VkResult@@PEAUVkDevice_T@@@ZEA 00000001800c0c40     raymarch_art_demo.obj
 0003:00000c48       ?vkQueueWaitIdle@@3P6A?AW4VkResult@@PEAUVkQueue_T@@@ZEA 00000001800c0c48     raymarch_art_demo.obj
 0003:00000c50       ?vkCreateSwapchainKHR@@3P6A?AW4VkResult@@PEAUVkDevice_T@@PEBUVkSwapchainCreateInfoKHR@@PEBUVkAllocationCallbacks@@PEAPEAUVkSwapchainKHR_T@@@ZEA 00000001800c0c50     raymarch_art_demo.obj
 0003:00000c58       ?vkDestroySwapchainKHR@@3P6AXPEAUVkDevice_T@@PEAUVkSwapchainKHR_T@@PEBUVkAllocationCallbacks@@@ZEA 00000001800c0c58     raymarch_art_demo.obj
 0003:00000c60       ?vkGetSwapchainImagesKHR@@3P6A?AW4VkResult@@PEAUVkDevice_T@@PEAUVkSwapchainKHR_T@@PEAIPEAPEAUVkImage_T@@@ZEA 00000001800c0c60     raymarch_art_demo.obj
 0003:00000c68       ?vkAcquireNextImageKHR@@3P6A?AW4VkResult@@PEAUVkDevice_T@@PEAUVkSwapchainKHR_T@@_KPEAUVkSemaphore_T@@PEAUVkFence_T@@PEAI@ZEA 00000001800c0c68     raymarch_art_demo.obj
 0003:00000c70       ?vkQueuePresentKHR@@3P6A?AW4VkResult@@PEAUVkQueue_T@@PEBUVkPresentInfoKHR@@@ZEA 00000001800c0c70     raymarch_art_demo.obj
 0003:00000c78       ?vkCreateSemaphore@@3P6A?AW4VkResult@@PEAUVkDevice_T@@PEBUVkSemaphoreCreateInfo@@PEBUVkAllocationCallbacks@@PEAPEAUVkSemaphore_T@@@ZEA 00000001800c0c78     raymarch_art_demo.obj
 0003:00000c80       ?vkQueueSubmit@@3P6A?AW4VkResult@@PEAUVkQueue_T@@IPEBUVkSubmitInfo@@PEAUVkFence_T@@@ZEA 00000001800c0c80     raymarch_art_demo.obj
 0003:00000c88       ?vkCreateCommandPool@@3P6A?AW4VkResult@@PEAUVkDevice_T@@PEBUVkCommandPoolCreateInfo@@PEBUVkAllocationCallbacks@@PEAPEAUVkCommandPool_T@@@ZEA 00000001800c0c88     raymarch_art_demo.obj
 0003:00000c90       ?vkAllocateCommandBuffers@@3P6A?AW4VkResult@@PEAUVkDevice_T@@PEBUVkCommandBufferAllocateInfo@@PEAPEAUVkCommandBuffer_T@@@ZEA 00000001800c0c90     raymarch_art_demo.obj
 0003:00000c98       ?vkBeginCommandBuffer@@3P6A?AW4VkResult@@PEAUVkCommandBuffer_T@@PEBUVkCommandBufferBeginInfo@@@ZEA 00000001800c0c98     raymarch_art_demo.obj
 0003:00000ca0       ?vkCmdPipelineBarrier@@3P6AXPEAUVkCommandBuffer_T@@IIIIPEBUVkMemoryBarrier@@IPEBUVkBufferMemoryBarrier@@IPEBUVkImageMemoryBarrier@@@ZEA 00000001800c0ca0     raymarch_art_demo.obj
 0003:00000ca8       ?vkCmdClearColorImage@@3P6AXPEAUVkCommandBuffer_T@@PEAUVkImage_T@@W4VkImageLayout@@PEBTVkClearColorValue@@IPEBUVkImageSubresourceRange@@@ZEA 00000001800c0ca8     raymarch_art_demo.obj
 0003:00000cb0       ?vkEndCommandBuffer@@3P6A?AW4VkResult@@PEAUVkCommandBuffer_T@@@ZEA 00000001800c0cb0     raymarch_art_demo.obj
 0003:00000cb8       ?vkCreateImageView@@3P6A?AW4VkResult@@PEAUVkDevice_T@@PEBUVkImageViewCreateInfo@@PEBUVkAllocationCallbacks@@PEAPEAUVkImageView_T@@@ZEA 00000001800c0cb8     raymarch_art_demo.obj
 0003:00000cc0       ?vkCreateRenderPass@@3P6A?AW4VkResult@@PEAUVkDevice_T@@PEBUVkRenderPassCreateInfo@@PEBUVkAllocationCallbacks@@PEAPEAUVkRenderPass_T@@@ZEA 00000001800c0cc0     raymarch_art_demo.obj
 0003:00000cc8       ?vkCreateFramebuffer@@3P6A?AW4VkResult@@PEAUVkDevice_T@@PEBUVkFramebufferCreateInfo@@PEBUVkAllocationCallbacks@@PEAPEAUVkFramebuffer_T@@@ZEA 00000001800c0cc8     raymarch_art_demo.obj
 0003:00000cd0       ?vkCreateShaderModule@@3P6A?AW4VkResult@@PEAUVkDevice_T@@PEBUVkShaderModuleCreateInfo@@PEBUVkAllocationCallbacks@@PEAPEAUVkShaderModule_T@@@ZEA 00000001800c0cd0     raymarch_art_demo.obj
 0003:00000cd8       ?vkCreatePipelineLayout@@3P6A?AW4VkResult@@PEAUVkDevice_T@@PEBUVkPipelineLayoutCreateInfo@@PEBUVkAllocationCallbacks@@PEAPEAUVkPipelineLayout_T@@@ZEA 00000001800c0cd8     raymarch_art_demo.obj
 0003:00000ce0       ?vkCreateGraphicsPipelines@@3P6A?AW4VkResult@@PEAUVkDevice_T@@PEAUVkPipelineCache_T@@IPEBUVkGraphicsPipelineCreateInfo@@PEBUVkAllocationCallbacks@@PEAPEAUVkPipeline_T@@@ZEA 00000001800c0ce0     raymarch_art_demo.obj
 0003:00000ce8       ?vkCmdBeginRenderPass@@3P6AXPEAUVkCommandBuffer_T@@PEBUVkRenderPassBeginInfo@@W4VkSubpassContents@@@ZEA 00000001800c0ce8     raymarch_art_demo.obj
 0003:00000cf0       ?vkCmdBindPipeline@@3P6AXPEAUVkCommandBuffer_T@@W4VkPipelineBindPoint@@PEAUVkPipeline_T@@@ZEA 00000001800c0cf0     raymarch_art_demo.obj
 0003:00000cf8       ?vkCmdDraw@@3P6AXPEAUVkCommandBuffer_T@@IIII@ZEA 00000001800c0cf8     raymarch_art_demo.obj
 0003:00000d00       ?vkCmdEndRenderPass@@3P6AXPEAUVkCommandBuffer_T@@@ZEA 00000001800c0d00     raymarch_art_demo.obj
 0003:00000d08       ?vkCreateFence@@3P6A?AW4VkResult@@PEAUVkDevice_T@@PEBUVkFenceCreateInfo@@PEBUVkAllocationCallbacks@@PEAPEAUVkFence_T@@@ZEA 00000001800c0d08     raymarch_art_demo.obj
 0003:00000d10       ?vkCreateBuffer@@3P6A?AW4VkResult@@PEAUVkDevice_T@@PEBUVkBufferCreateInfo@@PEBUVkAllocationCallbacks@@PEAPEAUVkBuffer_T@@@ZEA 00000001800c0d10     raymarch_art_demo.obj
 0003:00000d18       ?vkGetBufferMemoryRequirements@@3P6AXPEAUVkDevice_T@@PEAUVkBuffer_T@@PEAUVkMemoryRequirements@@@ZEA 00000001800c0d18     raymarch_art_demo.obj
 0003:00000d20       ?vkAllocateMemory@@3P6A?AW4VkResult@@PEAUVkDevice_T@@PEBUVkMemoryAllocateInfo@@PEBUVkAllocationCallbacks@@PEAPEAUVkDeviceMemory_T@@@ZEA 00000001800c0d20     raymarch_art_demo.obj
 0003:00000d28       ?vkBindBufferMemory@@3P6A?AW4VkResult@@PEAUVkDevice_T@@PEAUVkBuffer_T@@PEAUVkDeviceMemory_T@@_K@ZEA 00000001800c0d28     raymarch_art_demo.obj
 0003:00000d30       ?vkMapMemory@@3P6A?AW4VkResult@@PEAUVkDevice_T@@PEAUVkDeviceMemory_T@@_K2IPEAPEAX@ZEA 00000001800c0d30     raymarch_art_demo.obj
 0003:00000d38       ?vkFlushMappedMemoryRanges@@3P6A?AW4VkResult@@PEAUVkDevice_T@@IPEBUVkMappedMemoryRange@@@ZEA 00000001800c0d38     raymarch_art_demo.obj
 0003:00000d40       ?vkUnmapMemory@@3P6AXPEAUVkDevice_T@@PEAUVkDeviceMemory_T@@@ZEA 00000001800c0d40     raymarch_art_demo.obj
 0003:00000d48       ?vkCmdSetViewport@@3P6AXPEAUVkCommandBuffer_T@@IIPEBUVkViewport@@@ZEA 00000001800c0d48     raymarch_art_demo.obj
 0003:00000d50       ?vkCmdSetScissor@@3P6AXPEAUVkCommandBuffer_T@@IIPEBUVkRect2D@@@ZEA 00000001800c0d50     raymarch_art_demo.obj
 0003:00000d58       ?vkCmdBindVertexBuffers@@3P6AXPEAUVkCommandBuffer_T@@IIPEBQEAUVkBuffer_T@@PEB_K@ZEA 00000001800c0d58     raymarch_art_demo.obj
 0003:00000d60       ?vkWaitForFences@@3P6A?AW4VkResult@@PEAUVkDevice_T@@IPEBQEAUVkFence_T@@I_K@ZEA 00000001800c0d60     raymarch_art_demo.obj
 0003:00000d68       ?vkResetFences@@3P6A?AW4VkResult@@PEAUVkDevice_T@@IPEBQEAUVkFence_T@@@ZEA 00000001800c0d68     raymarch_art_demo.obj
 0003:00000d70       ?vkFreeMemory@@3P6AXPEAUVkDevice_T@@PEAUVkDeviceMemory_T@@PEBUVkAllocationCallbacks@@@ZEA 00000001800c0d70     raymarch_art_demo.obj
 0003:00000d78       ?vkDestroyBuffer@@3P6AXPEAUVkDevice_T@@PEAUVkBuffer_T@@PEBUVkAllocationCallbacks@@@ZEA 00000001800c0d78     raymarch_art_demo.obj
 0003:00000d80       ?vkDestroyFence@@3P6AXPEAUVkDevice_T@@PEAUVkFence_T@@PEBUVkAllocationCallbacks@@@ZEA 00000001800c0d80     raymarch_art_demo.obj
 0003:00000d88       ?vkDestroyFramebuffer@@3P6AXPEAUVkDevice_T@@PEAUVkFramebuffer_T@@PEBUVkAllocationCallbacks@@@ZEA 00000001800c0d88     raymarch_art_demo.obj
 0003:00000d90       ?vkCmdCopyBuffer@@3P6AXPEAUVkCommandBuffer_T@@PEAUVkBuffer_T@@1IPEBUVkBufferCopy@@@ZEA 00000001800c0d90     raymarch_art_demo.obj
 0003:00000d98       ?vkCreateImage@@3P6A?AW4VkResult@@PEAUVkDevice_T@@PEBUVkImageCreateInfo@@PEBUVkAllocationCallbacks@@PEAPEAUVkImage_T@@@ZEA 00000001800c0d98     raymarch_art_demo.obj
 0003:00000da0       ?vkGetImageMemoryRequirements@@3P6AXPEAUVkDevice_T@@PEAUVkImage_T@@PEAUVkMemoryRequirements@@@ZEA 00000001800c0da0     raymarch_art_demo.obj
 0003:00000da8       ?vkBindImageMemory@@3P6A?AW4VkResult@@PEAUVkDevice_T@@PEAUVkImage_T@@PEAUVkDeviceMemory_T@@_K@ZEA 00000001800c0da8     raymarch_art_demo.obj
 0003:00000db0       ?vkCreateSampler@@3P6A?AW4VkResult@@PEAUVkDevice_T@@PEBUVkSamplerCreateInfo@@PEBUVkAllocationCallbacks@@PEAPEAUVkSampler_T@@@ZEA 00000001800c0db0     raymarch_art_demo.obj
 0003:00000db8       ?vkCmdCopyBufferToImage@@3P6AXPEAUVkCommandBuffer_T@@PEAUVkBuffer_T@@PEAUVkImage_T@@W4VkImageLayout@@IPEBUVkBufferImageCopy@@@ZEA 00000001800c0db8     raymarch_art_demo.obj
 0003:00000dc0       ?vkCreateDescriptorSetLayout@@3P6A?AW4VkResult@@PEAUVkDevice_T@@PEBUVkDescriptorSetLayoutCreateInfo@@PEBUVkAllocationCallbacks@@PEAPEAUVkDescriptorSetLayout_T@@@ZEA 00000001800c0dc0     raymarch_art_demo.obj
 0003:00000dc8       ?vkCreateDescriptorPool@@3P6A?AW4VkResult@@PEAUVkDevice_T@@PEBUVkDescriptorPoolCreateInfo@@PEBUVkAllocationCallbacks@@PEAPEAUVkDescriptorPool_T@@@ZEA 00000001800c0dc8     raymarch_art_demo.obj
 0003:00000dd0       ?vkAllocateDescriptorSets@@3P6A?AW4VkResult@@PEAUVkDevice_T@@PEBUVkDescriptorSetAllocateInfo@@PEAPEAUVkDescriptorSet_T@@@ZEA 00000001800c0dd0     raymarch_art_demo.obj
 0003:00000dd8       ?vkUpdateDescriptorSets@@3P6AXPEAUVkDevice_T@@IPEBUVkWriteDescriptorSet@@IPEBUVkCopyDescriptorSet@@@ZEA 00000001800c0dd8     raymarch_art_demo.obj
 0003:00000de0       ?vkCmdBindDescriptorSets@@3P6AXPEAUVkCommandBuffer_T@@W4VkPipelineBindPoint@@PEAUVkPipelineLayout_T@@IIPEBQEAUVkDescriptorSet_T@@IPEBI@ZEA 00000001800c0de0     raymarch_art_demo.obj
 0003:00000de8       ?vkDestroyDescriptorPool@@3P6AXPEAUVkDevice_T@@PEAUVkDescriptorPool_T@@PEBUVkAllocationCallbacks@@@ZEA 00000001800c0de8     raymarch_art_demo.obj
 0003:00000df0       ?vkDestroyDescriptorSetLayout@@3P6AXPEAUVkDevice_T@@PEAUVkDescriptorSetLayout_T@@PEBUVkAllocationCallbacks@@@ZEA 00000001800c0df0     raymarch_art_demo.obj
 0003:00000df8       ?vkDestroySampler@@3P6AXPEAUVkDevice_T@@PEAUVkSampler_T@@PEBUVkAllocationCallbacks@@@ZEA 00000001800c0df8     raymarch_art_demo.obj
 0003:00000e00       ?vkDestroyImage@@3P6AXPEAUVkDevice_T@@PEAUVkImage_T@@PEBUVkAllocationCallbacks@@@ZEA 00000001800c0e00     raymarch_art_demo.obj
 0003:00000e08       ?vkCmdNextSubpass@@3P6AXPEAUVkCommandBuffer_T@@W4VkSubpassContents@@@ZEA 00000001800c0e08     raymarch_art_demo.obj
 0003:00000e10       ?vkFreeCommandBuffers@@3P6AXPEAUVkDevice_T@@PEAUVkCommandPool_T@@IPEBQEAUVkCommandBuffer_T@@@ZEA 00000001800c0e10     raymarch_art_demo.obj
 0003:00000e18       ?vkCmdExecuteCommands@@3P6AXPEAUVkCommandBuffer_T@@IPEBQEAU1@@ZEA 00000001800c0e18     raymarch_art_demo.obj
 0003:00000e20       ?vkCreateComputePipelines@@3P6A?AW4VkResult@@PEAUVkDevice_T@@PEAUVkPipelineCache_T@@IPEBUVkComputePipelineCreateInfo@@PEBUVkAllocationCallbacks@@PEAPEAUVkPipeline_T@@@ZEA 00000001800c0e20     raymarch_art_demo.obj
 0003:00000e28       ?vkCmdDispatch@@3P6AXPEAUVkCommandBuffer_T@@III@ZEA 00000001800c0e28     raymarch_art_demo.obj
 0003:00000e30       ?vkCmdFillBuffer@@3P6AXPEAUVkCommandBuffer_T@@PEAUVkBuffer_T@@_K2I@ZEA 00000001800c0e30     raymarch_art_demo.obj
 0003:00000e38       ?vkCmdPushConstants@@3P6AXPEAUVkCommandBuffer_T@@PEAUVkPipelineLayout_T@@IIIPEBX@ZEA 00000001800c0e38     raymarch_art_demo.obj
 0003:00000e40       ?vkDestroyShaderModule@@3P6AXPEAUVkDevice_T@@PEAUVkShaderModule_T@@PEBUVkAllocationCallbacks@@@ZEA 00000001800c0e40     raymarch_art_demo.obj
 0003:00000e48       ?vkCreateBufferView@@3P6A?AW4VkResult@@PEAUVkDevice_T@@PEBUVkBufferViewCreateInfo@@PEBUVkAllocationCallbacks@@PEAPEAUVkBufferView_T@@@ZEA 00000001800c0e48     raymarch_art_demo.obj
 0003:00000e50       ?vkCmdBindIndexBuffer@@3P6AXPEAUVkCommandBuffer_T@@PEAUVkBuffer_T@@_KW4VkIndexType@@@ZEA 00000001800c0e50     raymarch_art_demo.obj
 0003:00000e58       ?vkCmdDrawIndexed@@3P6AXPEAUVkCommandBuffer_T@@IIIHI@ZEA 00000001800c0e58     raymarch_art_demo.obj
 0003:00000e60       ?vkDestroyImageView@@3P6AXPEAUVkDevice_T@@PEAUVkImageView_T@@PEBUVkAllocationCallbacks@@@ZEA 00000001800c0e60     raymarch_art_demo.obj
 0003:00000e68       ?vkCreateQueryPool@@3P6A?AW4VkResult@@PEAUVkDevice_T@@PEBUVkQueryPoolCreateInfo@@PEBUVkAllocationCallbacks@@PEAPEAUVkQueryPool_T@@@ZEA 00000001800c0e68     raymarch_art_demo.obj
 0003:00000e70       ?vkCmdResetQueryPool@@3P6AXPEAUVkCommandBuffer_T@@PEAUVkQueryPool_T@@II@ZEA 00000001800c0e70     raymarch_art_demo.obj
 0003:00000e78       ?vkGetQueryPoolResults@@3P6A?AW4VkResult@@PEAUVkDevice_T@@PEAUVkQueryPool_T@@II_KPEAX2I@ZEA 00000001800c0e78     raymarch_art_demo.obj
 0003:00000e80       ?vkCmdWriteTimestamp@@3P6AXPEAUVkCommandBuffer_T@@W4VkPipelineStageFlagBits@@PEAUVkQueryPool_T@@I@ZEA 00000001800c0e80     raymarch_art_demo.obj
 0003:00000e88       ?vkDestroyRenderPass@@3P6AXPEAUVkDevice_T@@PEAUVkRenderPass_T@@PEBUVkAllocationCallbacks@@@ZEA 00000001800c0e88     raymarch_art_demo.obj
 0003:00000e90       ?vkCmdDrawIndirect@@3P6AXPEAUVkCommandBuffer_T@@PEAUVkBuffer_T@@_KII@ZEA 00000001800c0e90     raymarch_art_demo.obj
 0003:00000e98       ?vkCmdWaitEvents@@3P6AXPEAUVkCommandBuffer_T@@IPEBQEAUVkEvent_T@@IIIPEBUVkMemoryBarrier@@IPEBUVkBufferMemoryBarrier@@IPEBUVkImageMemoryBarrier@@@ZEA 00000001800c0e98     raymarch_art_demo.obj
 0003:00000ea0       ?vkCmdResetEvent@@3P6AXPEAUVkCommandBuffer_T@@PEAUVkEvent_T@@I@ZEA 00000001800c0ea0     raymarch_art_demo.obj
 0003:00000ea8       ?vkCmdSetEvent@@3P6AXPEAUVkCommandBuffer_T@@PEAUVkEvent_T@@I@ZEA 00000001800c0ea8     raymarch_art_demo.obj
 0003:00000eb0       ?vkCreateEvent@@3P6A?AW4VkResult@@PEAUVkDevice_T@@PEBUVkEventCreateInfo@@PEBUVkAllocationCallbacks@@PEAPEAUVkEvent_T@@@ZEA 00000001800c0eb0     raymarch_art_demo.obj
 0003:00000eb8       ?vkCmdCopyImage@@3P6AXPEAUVkCommandBuffer_T@@PEAUVkImage_T@@W4VkImageLayout@@12IPEBUVkImageCopy@@@ZEA 00000001800c0eb8     raymarch_art_demo.obj
 0003:00000ec0       ?vkCmdSetDepthBias@@3P6AXPEAUVkCommandBuffer_T@@MMM@ZEA 00000001800c0ec0     raymarch_art_demo.obj
 0003:00000ee8       _tls_index                 00000001800c0ee8     LIBCMTD:tlssup.obj
 0003:00001460       ?__type_info_root_node@@3U__type_info_node@@A 00000001800c1460     LIBCMTD:tncleanup.obj
 0003:00001470       ?_OptionsStorage@?1??__local_stdio_printf_options@@9@4_KA 00000001800c1470     LIBCMTD:default_local_stdio_options.obj
 0003:00001478       ?_OptionsStorage@?1??__local_stdio_scanf_options@@9@4_KA 00000001800c1478     LIBCMTD:default_local_stdio_options.obj
 0003:00001480       __scrt_current_native_startup_state 00000001800c1480     LIBCMTD:utility.obj
 0003:00001488       __scrt_native_startup_lock 00000001800c1488     LIBCMTD:utility.obj
 0003:000014c8       __scrt_debugger_hook_flag  00000001800c14c8     LIBCMTD:utility_desktop.obj
 0003:000014cc       __favor                    00000001800c14cc     LIBCMTD:cpu_disp.obj
 0003:000014d0       ?__WinRTOutOfMemoryExceptionCallback@@3P6APEAXXZEA 00000001800c14d0     libvcruntimed:ehhelpers.obj
 0003:000014d8       ?pArgList@UnDecorator@@0PEAVReplicator@@EA 00000001800c14d8     libvcruntimed:undname.obj
 0003:000014e0       ?pZNameList@UnDecorator@@0PEAVReplicator@@EA 00000001800c14e0     libvcruntimed:undname.obj
 0003:000014e8       ?pTemplateArgList@UnDecorator@@0PEAVReplicator@@EA 00000001800c14e8     libvcruntimed:undname.obj
 0003:000014f0       ?gName@UnDecorator@@0PEBDEB 00000001800c14f0     libvcruntimed:undname.obj
 0003:000014f8       ?name@UnDecorator@@0PEBDEB 00000001800c14f8     libvcruntimed:undname.obj
 0003:00001500       ?disableFlags@UnDecorator@@0KA 00000001800c1500     libvcruntimed:undname.obj
 0003:00001504       ?fExplicitTemplateParams@UnDecorator@@0_NA 00000001800c1504     libvcruntimed:undname.obj
 0003:00001505       ?fGetTemplateArgumentList@UnDecorator@@0_NA 00000001800c1505     libvcruntimed:undname.obj
 0003:00001508       ?m_pGetParameter@UnDecorator@@0P6APEADJ@ZEA 00000001800c1508     libvcruntimed:undname.obj
 0003:00001510       ?m_CHPENameOffset@UnDecorator@@0KA 00000001800c1510     libvcruntimed:undname.obj
 0003:00001514       ?m_recursionLevel@UnDecorator@@0KA 00000001800c1514     libvcruntimed:undname.obj
 0003:00001640       __pPurecall                00000001800c1640     libvcruntimed:purevirt_data.obj
 0003:00001658       ?c_exit_complete@?1???R<lambda_6e4b09c48022b2350581041d5f6b0c4c>@@QEBA@XZ@4_NA 00000001800c1658     libucrtd:exit.obj
 0003:00001768       _environ_table             00000001800c1768     libucrtd:environment_initialization.obj
 0003:00001770       _wenviron_table            00000001800c1770     libucrtd:environment_initialization.obj
 0003:00001778       __dcrt_initial_wide_environment 00000001800c1778     libucrtd:environment_initialization.obj
 0003:00001780       __dcrt_initial_narrow_environment 00000001800c1780     libucrtd:environment_initialization.obj
 0003:00001788       __acrt_atexit_table        00000001800c1788     libucrtd:onexit.obj
 0003:000017a0       __acrt_at_quick_exit_table 00000001800c17a0     libucrtd:onexit.obj
 0003:000017e8       _pfnDumpClient             00000001800c17e8     libucrtd:debug_heap.obj
 0003:00001800       __acrt_locale_changed_data 00000001800c1800     libucrtd:wsetlocale.obj
 0003:00001808       __acrt_current_locale_data 00000001800c1808     libucrtd:nlsdata.obj
 0003:00001810       _nstream                   00000001800c1810     libucrtd:_file.obj
 0003:00001818       __piob                     00000001800c1818     libucrtd:_file.obj
 0003:00001820       _cflush                    00000001800c1820     libucrtd:_file.obj
 0003:00001830       __pioinfo                  00000001800c1830     libucrtd:ioinit.obj
 0003:00001c30       _nhandle                   00000001800c1c30     libucrtd:ioinit.obj
 0003:00002290       __fma3_is_available        00000001800c2290     libucrtd:fma3_available.obj
 0003:00002294       __use_fma3_lib             00000001800c2294     libucrtd:fma3_available.obj
 0003:000024e0       _mbctype                   00000001800c24e0     libucrtd:mbctype.obj
 0003:000024e8       _mbcasemap                 00000001800c24e8     libucrtd:mbctype.obj
 0003:000024f0       __acrt_current_multibyte_data 00000001800c24f0     libucrtd:mbctype.obj
 0003:00002500       _pgmptr                    00000001800c2500     libucrtd:argv_data.obj
 0003:00002508       __argc                     00000001800c2508     libucrtd:argv_data.obj
 0003:00002510       __argv                     00000001800c2510     libucrtd:argv_data.obj
 0003:00002518       __wargv                    00000001800c2518     libucrtd:argv_data.obj
 0003:00002520       _acmdln                    00000001800c2520     libucrtd:argv_data.obj
 0003:00002528       _wcmdln                    00000001800c2528     libucrtd:argv_data.obj
 0003:000026c0       __acrt_heap                00000001800c26c0     libucrtd:heap_handle.obj
 0003:000026d8       __acrt_stdout_buffer       00000001800c26d8     libucrtd:_sftbuf.obj
 0003:000026e0       __acrt_stderr_buffer       00000001800c26e0     libucrtd:_sftbuf.obj
 0003:00002700       _pfnReportHook             00000001800c2700     libucrtd:dbgrptt.obj
 0003:00002708       _pReportHookList           00000001800c2708     libucrtd:dbgrptt.obj
 0003:00002710       _pReportHookListW          00000001800c2710     libucrtd:dbgrptt.obj
 0003:00002718       __acrt_lconv_static_null   00000001800c2718     libucrtd:localeconv.obj
 0003:0000271c       __acrt_lconv_static_W_null 00000001800c271c     libucrtd:localeconv.obj
 0003:00002720       _commode                   00000001800c2720     libucrtd:ncommode.obj
 0003:00002724       _umaskval                  00000001800c2724     libucrtd:umask.obj
 0003:00002730       _fmode                     00000001800c2730     libucrtd:txtmode.obj
 0003:00002740       __scrt_ucrt_dll_is_in_use  00000001800c2740     <common>
 0003:00002748       __dyn_tls_init_callback    00000001800c2748     <common>

 entry point at        0001:00042d70

 Static symbols

 0000:fff2f000       .debug$S                   0000000180000000     kernel32:KERNEL32.dll
 0000:fff2f000       .debug$S                   0000000180000000     kernel32:KERNEL32.dll
 0000:fff2f000       .debug$S                   0000000180000000     kernel32:KERNEL32.dll
 0000:fff2f000       .debug$S                   0000000180000000     kernel32:KERNEL32.dll
 0000:fff2f000       .debug$S                   0000000180000000     kernel32:KERNEL32.dll
 0000:fff2f000       .debug$S                   0000000180000000     kernel32:KERNEL32.dll
 0000:fff2f000       .debug$S                   0000000180000000     kernel32:KERNEL32.dll
 0000:fff2f000       .debug$S                   0000000180000000     kernel32:KERNEL32.dll
 0000:fff2f000       .debug$S                   0000000180000000     kernel32:KERNEL32.dll
 0000:fff2f000       .debug$S                   0000000180000000     raymarch_art_demo.exp
 0000:fff2f000       .debug$S                   0000000180000000     kernel32:KERNEL32.dll
 0000:fff2f000       .debug$S                   0000000180000000     kernel32:KERNEL32.dll
 0000:fff2f000       .debug$S                   0000000180000000     kernel32:KERNEL32.dll
 0000:fff2f000       .debug$S                   0000000180000000     kernel32:KERNEL32.dll
 0000:fff2f000       .debug$S                   0000000180000000     kernel32:KERNEL32.dll
 0000:fff2f000       .debug$S                   0000000180000000     kernel32:KERNEL32.dll
 0000:fff2f000       .debug$S                   0000000180000000     kernel32:KERNEL32.dll
 0000:fff2f000       .debug$S                   0000000180000000     kernel32:KERNEL32.dll
 0000:fff2f000       .debug$S                   0000000180000000     kernel32:KERNEL32.dll
 0000:fff2f000       .debug$S                   0000000180000000     kernel32:KERNEL32.dll
 0000:fff2f000       .debug$S                   0000000180000000     kernel32:KERNEL32.dll
 0000:fff2f000       .debug$S                   0000000180000000     kernel32:KERNEL32.dll
 0000:fff2f000       .debug$S                   0000000180000000     kernel32:KERNEL32.dll
 0000:fff2f000       .debug$S                   0000000180000000     kernel32:KERNEL32.dll
 0000:fff2f000       .debug$S                   0000000180000000     kernel32:KERNEL32.dll
 0000:fff2f000       .debug$S                   0000000180000000     kernel32:KERNEL32.dll
 0000:fff2f000       .debug$S                   0000000180000000     kernel32:KERNEL32.dll
 0000:fff2f000       .debug$S                   0000000180000000     kernel32:KERNEL32.dll
 0000:fff2f000       .debug$S                   0000000180000000     kernel32:KERNEL32.dll
 0000:fff2f000       .debug$S                   0000000180000000     kernel32:KERNEL32.dll
 0000:fff2f000       .debug$S                   0000000180000000     kernel32:KERNEL32.dll
 0000:fff2f000       .debug$S                   0000000180000000     kernel32:KERNEL32.dll
 0000:fff2f000       .debug$S                   0000000180000000     kernel32:KERNEL32.dll
 0000:fff2f000       .debug$S                   0000000180000000     kernel32:KERNEL32.dll
 0000:fff2f000       .debug$S                   0000000180000000     kernel32:KERNEL32.dll
 0000:fff2f000       .debug$S                   0000000180000000     kernel32:KERNEL32.dll
 0000:fff2f000       .debug$S                   0000000180000000     kernel32:KERNEL32.dll
 0000:fff2f000       .debug$S                   0000000180000000     kernel32:KERNEL32.dll
 0000:fff2f000       .debug$S                   0000000180000000     kernel32:KERNEL32.dll
 0000:fff2f000       .debug$S                   0000000180000000     kernel32:KERNEL32.dll
 0000:fff2f000       .debug$S                   0000000180000000     kernel32:KERNEL32.dll
 0000:fff2f000       .debug$S                   0000000180000000     kernel32:KERNEL32.dll
 0000:fff2f000       .debug$S                   0000000180000000     kernel32:KERNEL32.dll
 0000:fff2f000       .debug$S                   0000000180000000     kernel32:KERNEL32.dll
 0000:fff2f000       .debug$S                   0000000180000000     kernel32:KERNEL32.dll
 0000:fff2f000       .debug$S                   0000000180000000     kernel32:KERNEL32.dll
 0000:fff2f000       .debug$S                   0000000180000000     kernel32:KERNEL32.dll
 0000:fff2f000       .debug$S                   0000000180000000     kernel32:KERNEL32.dll
 0000:fff2f000       .debug$S                   0000000180000000     kernel32:KERNEL32.dll
 0000:fff2f000       .debug$S                   0000000180000000     kernel32:KERNEL32.dll
 0000:fff2f000       .debug$S                   0000000180000000     kernel32:KERNEL32.dll
 0000:fff2f000       .debug$S                   0000000180000000     kernel32:KERNEL32.dll
 0000:fff2f000       .debug$S                   0000000180000000     kernel32:KERNEL32.dll
 0000:fff2f000       .debug$S                   0000000180000000     kernel32:KERNEL32.dll
 0000:fff2f000       .debug$S                   0000000180000000     kernel32:KERNEL32.dll
 0000:fff2f000       .debug$S                   0000000180000000     kernel32:KERNEL32.dll
 0000:fff2f000       .debug$S                   0000000180000000     kernel32:KERNEL32.dll
 0000:fff2f000       .debug$S                   0000000180000000     kernel32:KERNEL32.dll
 0000:fff2f000       .debug$S                   0000000180000000     kernel32:KERNEL32.dll
 0000:fff2f000       .debug$S                   0000000180000000     kernel32:KERNEL32.dll
 0000:fff2f000       .debug$S                   0000000180000000     kernel32:KERNEL32.dll
 0000:fff2f000       .debug$S                   0000000180000000     kernel32:KERNEL32.dll
 0000:fff2f000       .debug$S                   0000000180000000     kernel32:KERNEL32.dll
 0000:fff2f000       .debug$S                   0000000180000000     kernel32:KERNEL32.dll
 0000:fff2f000       .debug$S                   0000000180000000     kernel32:KERNEL32.dll
 0000:fff2f000       .debug$S                   0000000180000000     kernel32:KERNEL32.dll
 0000:fff2f000       .debug$S                   0000000180000000     kernel32:KERNEL32.dll
 0000:fff2f000       .debug$S                   0000000180000000     kernel32:KERNEL32.dll
 0000:fff2f000       .debug$S                   0000000180000000     kernel32:KERNEL32.dll
 0000:fff2f000       .debug$S                   0000000180000000     kernel32:KERNEL32.dll
 0000:fff2f000       .debug$S                   0000000180000000     kernel32:KERNEL32.dll
 0000:fff2f000       .debug$S                   0000000180000000     kernel32:KERNEL32.dll
 0000:fff2f000       .debug$S                   0000000180000000     kernel32:KERNEL32.dll
 0000:fff2f000       .debug$S                   0000000180000000     kernel32:KERNEL32.dll
 0000:fff2f000       .debug$S                   0000000180000000     kernel32:KERNEL32.dll
 0000:fff2f000       .debug$S                   0000000180000000     kernel32:KERNEL32.dll
 0000:fff2f000       .debug$S                   0000000180000000     kernel32:KERNEL32.dll
 0000:fff2f000       .debug$S                   0000000180000000     kernel32:KERNEL32.dll
 0000:fff2f000       .debug$S                   0000000180000000     kernel32:KERNEL32.dll
 0000:fff2f000       .debug$S                   0000000180000000     kernel32:KERNEL32.dll
 0000:fff2f000       .debug$S                   0000000180000000     kernel32:KERNEL32.dll
 0000:fff2f000       .debug$S                   0000000180000000     kernel32:KERNEL32.dll
 0000:fff2f000       .debug$S                   0000000180000000     kernel32:KERNEL32.dll
 0000:fff2f000       .debug$S                   0000000180000000     kernel32:KERNEL32.dll
 0000:fff2f000       .debug$S                   0000000180000000     kernel32:KERNEL32.dll
 0000:fff2f000       .debug$S                   0000000180000000     kernel32:KERNEL32.dll
 0000:fff2f000       .debug$S                   0000000180000000     kernel32:KERNEL32.dll
 0000:fff2f000       .debug$S                   0000000180000000     kernel32:KERNEL32.dll
 0000:fff2f000       .debug$S                   0000000180000000     kernel32:KERNEL32.dll
 0000:fff2f000       .debug$S                   0000000180000000     kernel32:KERNEL32.dll
 0000:fff2f000       .debug$S                   0000000180000000     kernel32:KERNEL32.dll
 0000:fff2f000       .debug$S                   0000000180000000     kernel32:KERNEL32.dll
 0000:fff2f000       .debug$S                   0000000180000000     kernel32:KERNEL32.dll
 0000:fff2f000       .debug$S                   0000000180000000     kernel32:KERNEL32.dll
 0000:fff2f000       .debug$S                   0000000180000000     kernel32:KERNEL32.dll
 0000:fff2f000       .debug$S                   0000000180000000     kernel32:KERNEL32.dll
 0000:fff2f000       .debug$S                   0000000180000000     kernel32:KERNEL32.dll
 0000:fff2f000       .debug$S                   0000000180000000     kernel32:KERNEL32.dll
 0000:fff2f000       .debug$S                   0000000180000000     kernel32:KERNEL32.dll
 0001:00000000       ?VkCheckResult@@YAXW4VkResult@@@Z 0000000180001000 f   raymarch_art_demo.obj
 0001:000015e0       ?stbi__cpuid3@@YAHXZ       00000001800025e0 f   raymarch_art_demo.obj
 0001:00001640       ?stbi__sse2_available@@YAHXZ 0000000180002640 f   raymarch_art_demo.obj
 0001:00001680       ?stbi__refill_buffer@@YAXPEAUstbi__context@@@Z 0000000180002680 f   raymarch_art_demo.obj
 0001:00001770       ?stbi__start_mem@@YAXPEAUstbi__context@@PEBEH@Z 0000000180002770 f   raymarch_art_demo.obj
 0001:00001810       ?stbi__start_callbacks@@YAXPEAUstbi__context@@PEAUstbi_io_callbacks@@PEAX@Z 0000000180002810 f   raymarch_art_demo.obj
 0001:000018d0       ?stbi__stdio_read@@YAHPEAXPEADH@Z 00000001800028d0 f   raymarch_art_demo.obj
 0001:00001910       ?stbi__stdio_skip@@YAXPEAXH@Z 0000000180002910 f   raymarch_art_demo.obj
 0001:00001960       ?stbi__stdio_eof@@YAHPEAX@Z 0000000180002960 f   raymarch_art_demo.obj
 0001:000019b0       ?stbi__start_file@@YAXPEAUstbi__context@@PEAU_iobuf@@@Z 00000001800029b0 f   raymarch_art_demo.obj
 0001:000019e0       ?stbi__rewind@@YAXPEAUstbi__context@@@Z 00000001800029e0 f   raymarch_art_demo.obj
 0001:00001a20       ?stbi__jpeg_test@@YAHPEAUstbi__context@@@Z 0000000180002a20 f   raymarch_art_demo.obj
 0001:00001a90       ?stbi__jpeg_load@@YAPEAXPEAUstbi__context@@PEAH11HPEAUstbi__result_info@@@Z 0000000180002a90 f   raymarch_art_demo.obj
 0001:00001b10       ?stbi__jpeg_info@@YAHPEAUstbi__context@@PEAH11@Z 0000000180002b10 f   raymarch_art_demo.obj
 0001:00001b80       ?stbi__png_test@@YAHPEAUstbi__context@@@Z 0000000180002b80 f   raymarch_art_demo.obj
 0001:00001bb0       ?stbi__png_load@@YAPEAXPEAUstbi__context@@PEAH11HPEAUstbi__result_info@@@Z 0000000180002bb0 f   raymarch_art_demo.obj
 0001:00001c20       ?stbi__png_info@@YAHPEAUstbi__context@@PEAH11@Z 0000000180002c20 f   raymarch_art_demo.obj
 0001:00001c70       ?stbi__png_is16@@YAHPEAUstbi__context@@@Z 0000000180002c70 f   raymarch_art_demo.obj
 0001:00001cd0       ?stbi__bmp_test@@YAHPEAUstbi__context@@@Z 0000000180002cd0 f   raymarch_art_demo.obj
 0001:00001d00       ?stbi__bmp_load@@YAPEAXPEAUstbi__context@@PEAH11HPEAUstbi__result_info@@@Z 0000000180002d00 f   raymarch_art_demo.obj
 0001:00002f30       ?stbi__bmp_info@@YAHPEAUstbi__context@@PEAH11@Z 0000000180003f30 f   raymarch_art_demo.obj
 0001:00003030       ?stbi__tga_test@@YAHPEAUstbi__context@@@Z 0000000180004030 f   raymarch_art_demo.obj
 0001:000031d0       ?stbi__tga_load@@YAPEAXPEAUstbi__context@@PEAH11HPEAUstbi__result_info@@@Z 00000001800041d0 f   raymarch_art_demo.obj
 0001:00003c50       ?stbi__tga_info@@YAHPEAUstbi__context@@PEAH11@Z 0000000180004c50 f   raymarch_art_demo.obj
 0001:00003ec0       ?stbi__psd_test@@YAHPEAUstbi__context@@@Z 0000000180004ec0 f   raymarch_art_demo.obj
 0001:00003f10       ?stbi__psd_load@@YAPEAXPEAUstbi__context@@PEAH11HPEAUstbi__result_info@@H@Z 0000000180004f10 f   raymarch_art_demo.obj
 0001:00004ab0       ?stbi__psd_info@@YAHPEAUstbi__context@@PEAH11@Z 0000000180005ab0 f   raymarch_art_demo.obj
 0001:00004c00       ?stbi__psd_is16@@YAHPEAUstbi__context@@@Z 0000000180005c00 f   raymarch_art_demo.obj
 0001:00004cd0       ?stbi__hdr_test@@YAHPEAUstbi__context@@@Z 0000000180005cd0 f   raymarch_art_demo.obj
 0001:00004d30       ?stbi__hdr_load@@YAPEAMPEAUstbi__context@@PEAH11HPEAUstbi__result_info@@@Z 0000000180005d30 f   raymarch_art_demo.obj
 0001:00005690       ?stbi__hdr_info@@YAHPEAUstbi__context@@PEAH11@Z 0000000180006690 f   raymarch_art_demo.obj
 0001:000058d0       ?stbi__pic_test@@YAHPEAUstbi__context@@@Z 00000001800068d0 f   raymarch_art_demo.obj
 0001:00005900       ?stbi__pic_load@@YAPEAXPEAUstbi__context@@PEAH11HPEAUstbi__result_info@@@Z 0000000180006900 f   raymarch_art_demo.obj
 0001:00005b90       ?stbi__pic_info@@YAHPEAUstbi__context@@PEAH11@Z 0000000180006b90 f   raymarch_art_demo.obj
 0001:00005e20       ?stbi__gif_test@@YAHPEAUstbi__context@@@Z 0000000180006e20 f   raymarch_art_demo.obj
 0001:00005e50       ?stbi__gif_load@@YAPEAXPEAUstbi__context@@PEAH11HPEAUstbi__result_info@@@Z 0000000180006e50 f   raymarch_art_demo.obj
 0001:00005fa0       ?stbi__load_gif_main@@YAPEAXPEAUstbi__context@@PEAPEAHPEAH222H@Z 0000000180006fa0 f   raymarch_art_demo.obj
 0001:00006350       ?stbi__gif_info@@YAHPEAUstbi__context@@PEAH11@Z 0000000180007350 f   raymarch_art_demo.obj
 0001:00006390       ?stbi__pnm_test@@YAHPEAUstbi__context@@@Z 0000000180007390 f   raymarch_art_demo.obj
 0001:00006400       ?stbi__pnm_load@@YAPEAXPEAUstbi__context@@PEAH11HPEAUstbi__result_info@@@Z 0000000180007400 f   raymarch_art_demo.obj
 0001:00006640       ?stbi__pnm_info@@YAHPEAUstbi__context@@PEAH11@Z 0000000180007640 f   raymarch_art_demo.obj
 0001:000067b0       ?stbi__err@@YAHPEBD@Z      00000001800077b0 f   raymarch_art_demo.obj
 0001:000067f0       ?stbi__malloc@@YAPEAX_K@Z  00000001800077f0 f   raymarch_art_demo.obj
 0001:00006810       ?stbi__addsizes_valid@@YAHHH@Z 0000000180007810 f   raymarch_art_demo.obj
 0001:00006860       ?stbi__mul2sizes_valid@@YAHHH@Z 0000000180007860 f   raymarch_art_demo.obj
 0001:000068c0       ?stbi__mad2sizes_valid@@YAHHHH@Z 00000001800078c0 f   raymarch_art_demo.obj
 0001:00006920       ?stbi__mad3sizes_valid@@YAHHHHH@Z 0000000180007920 f   raymarch_art_demo.obj
 0001:000069a0       ?stbi__mad4sizes_valid@@YAHHHHHH@Z 00000001800079a0 f   raymarch_art_demo.obj
 0001:00006a40       ?stbi__malloc_mad2@@YAPEAXHHH@Z 0000000180007a40 f   raymarch_art_demo.obj
 0001:00006a90       ?stbi__malloc_mad3@@YAPEAXHHHH@Z 0000000180007a90 f   raymarch_art_demo.obj
 0001:00006af0       ?stbi__malloc_mad4@@YAPEAXHHHHH@Z 0000000180007af0 f   raymarch_art_demo.obj
 0001:00006b60       ?stbi__ldr_to_hdr@@YAPEAMPEAEHHH@Z 0000000180007b60 f   raymarch_art_demo.obj
 0001:00006d40       ?stbi__hdr_to_ldr@@YAPEAEPEAMHHH@Z 0000000180007d40 f   raymarch_art_demo.obj
 0001:00006f80       ?stbi__load_main@@YAPEAXPEAUstbi__context@@PEAH11HPEAUstbi__result_info@@H@Z 0000000180007f80 f   raymarch_art_demo.obj
 0001:000072c0       ?stbi__convert_16_to_8@@YAPEAEPEAGHHH@Z 00000001800082c0 f   raymarch_art_demo.obj
 0001:00007390       ?stbi__convert_8_to_16@@YAPEAGPEAEHHH@Z 0000000180008390 f   raymarch_art_demo.obj
 0001:00007470       ?stbi__vertical_flip@@YAXPEAXHHH@Z 0000000180008470 f   raymarch_art_demo.obj
 0001:00007610       ?stbi__vertical_flip_slices@@YAXPEAXHHHH@Z 0000000180008610 f   raymarch_art_demo.obj
 0001:000076a0       ?stbi__load_and_postprocess_8bit@@YAPEAEPEAUstbi__context@@PEAH11H@Z 00000001800086a0 f   raymarch_art_demo.obj
 0001:00007870       ?stbi__load_and_postprocess_16bit@@YAPEAGPEAUstbi__context@@PEAH11H@Z 0000000180008870 f   raymarch_art_demo.obj
 0001:00007a50       ?stbi__float_postprocess@@YAXPEAMPEAH11H@Z 0000000180008a50 f   raymarch_art_demo.obj
 0001:00007b20       ?stbi__fopen@@YAPEAU_iobuf@@PEBD0@Z 0000000180008b20 f   raymarch_art_demo.obj
 0001:00007b60       ?stbi__loadf_main@@YAPEAMPEAUstbi__context@@PEAH11H@Z 0000000180008b60 f   raymarch_art_demo.obj
 0001:00007cd0       ?stbi__get8@@YAEPEAUstbi__context@@@Z 0000000180008cd0 f   raymarch_art_demo.obj
 0001:00007d80       ?stbi__at_eof@@YAHPEAUstbi__context@@@Z 0000000180008d80 f   raymarch_art_demo.obj
 0001:00007e00       ?stbi__skip@@YAXPEAUstbi__context@@H@Z 0000000180008e00 f   raymarch_art_demo.obj
 0001:00007ee0       ?stbi__getn@@YAHPEAUstbi__context@@PEAEH@Z 0000000180008ee0 f   raymarch_art_demo.obj
 0001:00008040       ?stbi__get16be@@YAHPEAUstbi__context@@@Z 0000000180009040 f   raymarch_art_demo.obj
 0001:00008090       ?stbi__get32be@@YAIPEAUstbi__context@@@Z 0000000180009090 f   raymarch_art_demo.obj
 0001:000080d0       ?stbi__get16le@@YAHPEAUstbi__context@@@Z 00000001800090d0 f   raymarch_art_demo.obj
 0001:00008110       ?stbi__get32le@@YAIPEAUstbi__context@@@Z 0000000180009110 f   raymarch_art_demo.obj
 0001:00008150       ?stbi__compute_y@@YAEHHH@Z 0000000180009150 f   raymarch_art_demo.obj
 0001:00008180       ?stbi__convert_format@@YAPEAEPEAEHHII@Z 0000000180009180 f   raymarch_art_demo.obj
 0001:00008b7c       $LN66                      0000000180009b7c     raymarch_art_demo.obj
 0001:00008bf0       ?stbi__compute_y_16@@YAGHHH@Z 0000000180009bf0 f   raymarch_art_demo.obj
 0001:00008c20       ?stbi__convert_format16@@YAPEAGPEAGHHII@Z 0000000180009c20 f   raymarch_art_demo.obj
 0001:00009650       $LN66                      000000018000a650     raymarch_art_demo.obj
 0001:000096c0       ?stbi__build_huffman@@YAHPEAUstbi__huffman@@PEAH@Z 000000018000a6c0 f   raymarch_art_demo.obj
 0001:00009950       ?stbi__build_fast_ac@@YAXPEAFPEAUstbi__huffman@@@Z 000000018000a950 f   raymarch_art_demo.obj
 0001:00009ad0       ?stbi__grow_buffer_unsafe@@YAXPEAUstbi__jpeg@@@Z 000000018000aad0 f   raymarch_art_demo.obj
 0001:00009be0       ?stbi__jpeg_huff_decode@@YAHPEAUstbi__jpeg@@PEAUstbi__huffman@@@Z 000000018000abe0 f   raymarch_art_demo.obj
 0001:00009e80       ?stbi__extend_receive@@YAHPEAUstbi__jpeg@@H@Z 000000018000ae80 f   raymarch_art_demo.obj
 0001:00009f80       ?stbi__jpeg_get_bits@@YAHPEAUstbi__jpeg@@H@Z 000000018000af80 f   raymarch_art_demo.obj
 0001:0000a040       ?stbi__jpeg_get_bit@@YAHPEAUstbi__jpeg@@@Z 000000018000b040 f   raymarch_art_demo.obj
 0001:0000a0c0       ?stbi__jpeg_decode_block@@YAHPEAUstbi__jpeg@@QEAFPEAUstbi__huffman@@2PEAFHPEAG@Z 000000018000b0c0 f   raymarch_art_demo.obj
 0001:0000a3b0       ?stbi__jpeg_decode_block_prog_dc@@YAHPEAUstbi__jpeg@@QEAFPEAUstbi__huffman@@H@Z 000000018000b3b0 f   raymarch_art_demo.obj
 0001:0000a530       ?stbi__jpeg_decode_block_prog_ac@@YAHPEAUstbi__jpeg@@QEAFPEAUstbi__huffman@@PEAF@Z 000000018000b530 f   raymarch_art_demo.obj
 0001:0000ab80       ?stbi__clamp@@YAEH@Z       000000018000bb80 f   raymarch_art_demo.obj
 0001:0000abc0       ?stbi__idct_block@@YAXPEAEHQEAF@Z 000000018000bbc0 f   raymarch_art_demo.obj
 0001:0000b670       ?stbi__idct_simd@@YAXPEAEHQEAF@Z 000000018000c670 f   raymarch_art_demo.obj
 0001:0000e180       ?stbi__get_marker@@YAEPEAUstbi__jpeg@@@Z 000000018000f180 f   raymarch_art_demo.obj
 0001:0000e210       ?stbi__jpeg_reset@@YAXPEAUstbi__jpeg@@@Z 000000018000f210 f   raymarch_art_demo.obj
 0001:0000e310       ?stbi__parse_entropy_coded_data@@YAHPEAUstbi__jpeg@@@Z 000000018000f310 f   raymarch_art_demo.obj
 0001:0000ef70       ?stbi__jpeg_dequantize@@YAXPEAFPEAG@Z 000000018000ff70 f   raymarch_art_demo.obj
 0001:0000efd0       ?stbi__jpeg_finish@@YAXPEAUstbi__jpeg@@@Z 000000018000ffd0 f   raymarch_art_demo.obj
 0001:0000f1a0       ?stbi__process_marker@@YAHPEAUstbi__jpeg@@H@Z 00000001800101a0 f   raymarch_art_demo.obj
 0001:0000f860       ?stbi__process_scan_header@@YAHPEAUstbi__jpeg@@@Z 0000000180010860 f   raymarch_art_demo.obj
 0001:0000fba0       ?stbi__free_jpeg_components@@YAHPEAUstbi__jpeg@@HH@Z 0000000180010ba0 f   raymarch_art_demo.obj
 0001:0000fd10       ?stbi__process_frame_header@@YAHPEAUstbi__jpeg@@H@Z 0000000180010d10 f   raymarch_art_demo.obj
 0001:00010590       ?stbi__decode_jpeg_header@@YAHPEAUstbi__jpeg@@H@Z 0000000180011590 f   raymarch_art_demo.obj
 0001:000106f0       ?stbi__decode_jpeg_image@@YAHPEAUstbi__jpeg@@@Z 00000001800116f0 f   raymarch_art_demo.obj
 0001:000108e0       ?resample_row_1@@YAPEAEPEAE00HH@Z 00000001800118e0 f   raymarch_art_demo.obj
 0001:00010900       ?stbi__resample_row_v_2@@YAPEAEPEAE00HH@Z 0000000180011900 f   raymarch_art_demo.obj
 0001:00010980       ?stbi__resample_row_h_2@@YAPEAEPEAE00HH@Z 0000000180011980 f   raymarch_art_demo.obj
 0001:00010b60       ?stbi__resample_row_hv_2@@YAPEAEPEAE00HH@Z 0000000180011b60 f   raymarch_art_demo.obj
 0001:00010cf0       ?stbi__resample_row_hv_2_simd@@YAPEAEPEAE00HH@Z 0000000180011cf0 f   raymarch_art_demo.obj
 0001:00011360       ?stbi__resample_row_generic@@YAPEAEPEAE00HH@Z 0000000180012360 f   raymarch_art_demo.obj
 0001:000113f0       ?stbi__YCbCr_to_RGB_row@@YAXPEAEPEBE11HH@Z 00000001800123f0 f   raymarch_art_demo.obj
 0001:000115c0       ?stbi__YCbCr_to_RGB_simd@@YAXPEAEPEBE11HH@Z 00000001800125c0 f   raymarch_art_demo.obj
 0001:00011d90       ?stbi__setup_jpeg@@YAXPEAUstbi__jpeg@@@Z 0000000180012d90 f   raymarch_art_demo.obj
 0001:00011e20       ?stbi__cleanup_jpeg@@YAXPEAUstbi__jpeg@@@Z 0000000180012e20 f   raymarch_art_demo.obj
 0001:00011e50       ?stbi__blinn_8x8@@YAEEE@Z  0000000180012e50 f   raymarch_art_demo.obj
 0001:00011e90       ?load_jpeg_image@@YAPEAEPEAUstbi__jpeg@@PEAH11H@Z 0000000180012e90 f   raymarch_art_demo.obj
 0001:00013020       ?stbi__jpeg_info_raw@@YAHPEAUstbi__jpeg@@PEAH11@Z 0000000180014020 f   raymarch_art_demo.obj
 0001:000130e0       ?stbi__bitreverse16@@YAHH@Z 00000001800140e0 f   raymarch_art_demo.obj
 0001:00013170       ?stbi__bit_reverse@@YAHHH@Z 0000000180014170 f   raymarch_art_demo.obj
 0001:000131c0       ?stbi__zbuild_huffman@@YAHPEAUstbi__zhuffman@@PEBEH@Z 00000001800141c0 f   raymarch_art_demo.obj
 0001:00013550       ?stbi__zeof@@YAHPEAUstbi__zbuf@@@Z 0000000180014550 f   raymarch_art_demo.obj
 0001:00013590       ?stbi__zget8@@YAEPEAUstbi__zbuf@@@Z 0000000180014590 f   raymarch_art_demo.obj
 0001:000135f0       ?stbi__fill_bits@@YAXPEAUstbi__zbuf@@@Z 00000001800145f0 f   raymarch_art_demo.obj
 0001:00013690       ?stbi__zreceive@@YAIPEAUstbi__zbuf@@H@Z 0000000180014690 f   raymarch_art_demo.obj
 0001:00013730       ?stbi__zhuffman_decode_slowpath@@YAHPEAUstbi__zbuf@@PEAUstbi__zhuffman@@@Z 0000000180014730 f   raymarch_art_demo.obj
 0001:00013860       ?stbi__zhuffman_decode@@YAHPEAUstbi__zbuf@@PEAUstbi__zhuffman@@@Z 0000000180014860 f   raymarch_art_demo.obj
 0001:00013930       ?stbi__zexpand@@YAHPEAUstbi__zbuf@@PEADH@Z 0000000180014930 f   raymarch_art_demo.obj
 0001:00013a80       ?stbi__parse_huffman_block@@YAHPEAUstbi__zbuf@@@Z 0000000180014a80 f   raymarch_art_demo.obj
 0001:00013d50       ?stbi__compute_huffman_codes@@YAHPEAUstbi__zbuf@@@Z 0000000180014d50 f   raymarch_art_demo.obj
 0001:00014070       ?stbi__parse_uncompressed_block@@YAHPEAUstbi__zbuf@@@Z 0000000180015070 f   raymarch_art_demo.obj
 0001:00014270       ?stbi__parse_zlib_header@@YAHPEAUstbi__zbuf@@@Z 0000000180015270 f   raymarch_art_demo.obj
 0001:00014330       ?stbi__parse_zlib@@YAHPEAUstbi__zbuf@@H@Z 0000000180015330 f   raymarch_art_demo.obj
 0001:00014460       ?stbi__do_zlib@@YAHPEAUstbi__zbuf@@PEADHHH@Z 0000000180015460 f   raymarch_art_demo.obj
 0001:000144e0       ?stbi__get_chunk_header@@YA?AUstbi__pngchunk@@PEAUstbi__context@@@Z 00000001800154e0 f   raymarch_art_demo.obj
 0001:00014520       ?stbi__check_png_header@@YAHPEAUstbi__context@@@Z 0000000180015520 f   raymarch_art_demo.obj
 0001:00014590       ?stbi__paeth@@YAHHHH@Z     0000000180015590 f   raymarch_art_demo.obj
 0001:00014630       ?stbi__create_png_image_raw@@YAHPEAUstbi__png@@PEAEIHIIHH@Z 0000000180015630 f   raymarch_art_demo.obj
 0001:00015e40       $LN168                     0000000180016e40     raymarch_art_demo.obj
 0001:00015e5c       $LN167                     0000000180016e5c     raymarch_art_demo.obj
 0001:00015e78       $LN166                     0000000180016e78     raymarch_art_demo.obj
 0001:00015ea0       ?stbi__create_png_image@@YAHPEAUstbi__png@@PEAEIHHHH@Z 0000000180016ea0 f   raymarch_art_demo.obj
 0001:00016380       ?stbi__compute_transparency@@YAHPEAUstbi__png@@QEAEH@Z 0000000180017380 f   raymarch_art_demo.obj
 0001:00016550       ?stbi__compute_transparency16@@YAHPEAUstbi__png@@QEAGH@Z 0000000180017550 f   raymarch_art_demo.obj
 0001:00016720       ?stbi__expand_png_palette@@YAHPEAUstbi__png@@PEAEHH@Z 0000000180017720 f   raymarch_art_demo.obj
 0001:00016960       ?stbi__de_iphone@@YAXPEAUstbi__png@@@Z 0000000180017960 f   raymarch_art_demo.obj
 0001:00016c40       ?stbi__parse_png_file@@YAHPEAUstbi__png@@HH@Z 0000000180017c40 f   raymarch_art_demo.obj
 0001:00017960       ?stbi__do_png@@YAPEAXPEAUstbi__png@@PEAH11HPEAUstbi__result_info@@@Z 0000000180018960 f   raymarch_art_demo.obj
 0001:00017bb0       ?stbi__png_info_raw@@YAHPEAUstbi__png@@PEAH11@Z 0000000180018bb0 f   raymarch_art_demo.obj
 0001:00017c50       ?stbi__bmp_test_raw@@YAHPEAUstbi__context@@@Z 0000000180018c50 f   raymarch_art_demo.obj
 0001:00017d10       ?stbi__high_bit@@YAHI@Z    0000000180018d10 f   raymarch_art_demo.obj
 0001:00017dc0       ?stbi__bitcount@@YAHI@Z    0000000180018dc0 f   raymarch_art_demo.obj
 0001:00017e50       ?stbi__shiftsigned@@YAHIHH@Z 0000000180018e50 f   raymarch_art_demo.obj
 0001:00017f30       ?stbi__bmp_parse_header@@YAPEAXPEAUstbi__context@@PEAUstbi__bmp_data@@@Z 0000000180018f30 f   raymarch_art_demo.obj
 0001:00018460       ?stbi__tga_get_comp@@YAHHHPEAH@Z 0000000180019460 f   raymarch_art_demo.obj
 0001:00018500       ?stbi__tga_read_rgb16@@YAXPEAUstbi__context@@PEAE@Z 0000000180019500 f   raymarch_art_demo.obj
 0001:000185d0       ?stbi__psd_decode_rle@@YAHPEAUstbi__context@@PEAEH@Z 00000001800195d0 f   raymarch_art_demo.obj
 0001:00018720       ?stbi__pic_is4@@YAHPEAUstbi__context@@PEBD@Z 0000000180019720 f   raymarch_art_demo.obj
 0001:00018780       ?stbi__pic_test_core@@YAHPEAUstbi__context@@@Z 0000000180019780 f   raymarch_art_demo.obj
 0001:00018800       ?stbi__readval@@YAPEAEPEAUstbi__context@@HPEAE@Z 0000000180019800 f   raymarch_art_demo.obj
 0001:000188b0       ?stbi__copyval@@YAXHPEAEPEBE@Z 00000001800198b0 f   raymarch_art_demo.obj
 0001:00018930       ?stbi__pic_load_core@@YAPEAEPEAUstbi__context@@HHPEAHPEAE@Z 0000000180019930 f   raymarch_art_demo.obj
 0001:00018f70       ?stbi__gif_test_raw@@YAHPEAUstbi__context@@@Z 0000000180019f70 f   raymarch_art_demo.obj
 0001:00019010       ?stbi__gif_parse_colortable@@YAXPEAUstbi__context@@QEAY03EHH@Z 000000018001a010 f   raymarch_art_demo.obj
 0001:00019110       ?stbi__gif_header@@YAHPEAUstbi__context@@PEAUstbi__gif@@PEAHH@Z 000000018001a110 f   raymarch_art_demo.obj
 0001:00019330       ?stbi__gif_info_raw@@YAHPEAUstbi__context@@PEAH11@Z 000000018001a330 f   raymarch_art_demo.obj
 0001:000193e0       ?stbi__out_gif_code@@YAXPEAUstbi__gif@@G@Z 000000018001a3e0 f   raymarch_art_demo.obj
 0001:00019680       ?stbi__process_gif_raster@@YAPEAEPEAUstbi__context@@PEAUstbi__gif@@@Z 000000018001a680 f   raymarch_art_demo.obj
 0001:00019ad0       ?stbi__gif_load_next@@YAPEAEPEAUstbi__context@@PEAUstbi__gif@@PEAHHPEAE@Z 000000018001aad0 f   raymarch_art_demo.obj
 0001:0001a4a0       ?stbi__hdr_test_core@@YAHPEAUstbi__context@@PEBD@Z 000000018001b4a0 f   raymarch_art_demo.obj
 0001:0001a520       ?stbi__hdr_gettoken@@YAPEADPEAUstbi__context@@PEAD@Z 000000018001b520 f   raymarch_art_demo.obj
 0001:0001a5e0       ?stbi__hdr_convert@@YAXPEAMPEAEH@Z 000000018001b5e0 f   raymarch_art_demo.obj
 0001:0001a850       ?stbi__pnm_isspace@@YAHD@Z 000000018001b850 f   raymarch_art_demo.obj
 0001:0001a8c0       ?stbi__pnm_skip_whitespace@@YAXPEAUstbi__context@@PEAD@Z 000000018001b8c0 f   raymarch_art_demo.obj
 0001:0001a970       ?stbi__pnm_isdigit@@YAHD@Z 000000018001b970 f   raymarch_art_demo.obj
 0001:0001a9b0       ?stbi__pnm_getinteger@@YAHPEAUstbi__context@@PEAD@Z 000000018001b9b0 f   raymarch_art_demo.obj
 0001:0001aa20       ?stbi__info_main@@YAHPEAUstbi__context@@PEAH11@Z 000000018001ba20 f   raymarch_art_demo.obj
 0001:0001abb0       ?stbi__is_16_main@@YAHPEAUstbi__context@@@Z 000000018001bbb0 f   raymarch_art_demo.obj
 0001:00020050       ?stbtt__buf_get8@@YAEPEAUstbtt__buf@@@Z 0000000180021050 f   raymarch_art_demo.obj
 0001:000200b0       ?stbtt__buf_peek8@@YAEPEAUstbtt__buf@@@Z 00000001800210b0 f   raymarch_art_demo.obj
 0001:000200f0       ?stbtt__buf_seek@@YAXPEAUstbtt__buf@@H@Z 00000001800210f0 f   raymarch_art_demo.obj
 0001:00020170       ?stbtt__buf_skip@@YAXPEAUstbtt__buf@@H@Z 0000000180021170 f   raymarch_art_demo.obj
 0001:000201a0       ?stbtt__buf_get@@YAIPEAUstbtt__buf@@H@Z 00000001800211a0 f   raymarch_art_demo.obj
 0001:00020240       ?stbtt__new_buf@@YA?AUstbtt__buf@@PEBX_K@Z 0000000180021240 f   raymarch_art_demo.obj
 0001:000202c0       ?stbtt__buf_range@@YA?AUstbtt__buf@@PEBU1@HH@Z 00000001800212c0 f   raymarch_art_demo.obj
 0001:000203c0       ?stbtt__cff_get_index@@YA?AUstbtt__buf@@PEAU1@@Z 00000001800213c0 f   raymarch_art_demo.obj
 0001:000204c0       ?stbtt__cff_int@@YAIPEAUstbtt__buf@@@Z 00000001800214c0 f   raymarch_art_demo.obj
 0001:000205f0       ?stbtt__cff_skip_operand@@YAXPEAUstbtt__buf@@@Z 00000001800215f0 f   raymarch_art_demo.obj
 0001:000206a0       ?stbtt__dict_get@@YA?AUstbtt__buf@@PEAU1@H@Z 00000001800216a0 f   raymarch_art_demo.obj
 0001:00020820       ?stbtt__dict_get_ints@@YAXPEAUstbtt__buf@@HHPEAI@Z 0000000180021820 f   raymarch_art_demo.obj
 0001:000208d0       ?stbtt__cff_index_count@@YAHPEAUstbtt__buf@@@Z 00000001800218d0 f   raymarch_art_demo.obj
 0001:00020900       ?stbtt__cff_index_get@@YA?AUstbtt__buf@@U1@H@Z 0000000180021900 f   raymarch_art_demo.obj
 0001:00020a50       ?ttUSHORT@@YAGPEAE@Z       0000000180021a50 f   raymarch_art_demo.obj
 0001:00020a90       ?ttSHORT@@YAFPEAE@Z        0000000180021a90 f   raymarch_art_demo.obj
 0001:00020ad0       ?ttULONG@@YAIPEAE@Z        0000000180021ad0 f   raymarch_art_demo.obj
 0001:00020b40       ?ttLONG@@YAHPEAE@Z         0000000180021b40 f   raymarch_art_demo.obj
 0001:00020bb0       ?stbtt__isfont@@YAHPEAE@Z  0000000180021bb0 f   raymarch_art_demo.obj
 0001:00020eb0       ?stbtt__find_table@@YAIPEAEIPEBD@Z 0000000180021eb0 f   raymarch_art_demo.obj
 0001:00021020       ?stbtt_GetFontOffsetForIndex_internal@@YAHPEAEH@Z 0000000180022020 f   raymarch_art_demo.obj
 0001:000211a0       ?stbtt_GetNumberOfFonts_internal@@YAHPEAE@Z 00000001800221a0 f   raymarch_art_demo.obj
 0001:000212d0       ?stbtt__get_subrs@@YA?AUstbtt__buf@@U1@0@Z 00000001800222d0 f   raymarch_art_demo.obj
 0001:000214c0       ?stbtt__get_svg@@YAHPEAUstbtt_fontinfo@@@Z 00000001800224c0 f   raymarch_art_demo.obj
 0001:00021550       ?stbtt_InitFont_internal@@YAHPEAUstbtt_fontinfo@@PEAEH@Z 0000000180022550 f   raymarch_art_demo.obj
 0001:00021e20       ?stbtt_setvertex@@YAXPEAUstbtt_vertex@@EHHHH@Z 0000000180022e20 f   raymarch_art_demo.obj
 0001:00021e80       ?stbtt__GetGlyfOffset@@YAHPEBUstbtt_fontinfo@@H@Z 0000000180022e80 f   raymarch_art_demo.obj
 0001:00022010       ?stbtt__GetGlyphInfoT2@@YAHPEBUstbtt_fontinfo@@HPEAH111@Z 0000000180023010 f   raymarch_art_demo.obj
 0001:000221a0       ?stbtt__close_shape@@YAHPEAUstbtt_vertex@@HHHHHHHHH@Z 00000001800231a0 f   raymarch_art_demo.obj
 0001:00022350       ?stbtt__GetGlyphShapeTT@@YAHPEBUstbtt_fontinfo@@HPEAPEAUstbtt_vertex@@@Z 0000000180023350 f   raymarch_art_demo.obj
 0001:000236c0       ?stbtt__track_vertex@@YAXPEAUstbtt__csctx@@HH@Z 00000001800246c0 f   raymarch_art_demo.obj
 0001:00023780       ?stbtt__csctx_v@@YAXPEAUstbtt__csctx@@EHHHHHH@Z 0000000180024780 f   raymarch_art_demo.obj
 0001:00023880       ?stbtt__csctx_close_shape@@YAXPEAUstbtt__csctx@@@Z 0000000180024880 f   raymarch_art_demo.obj
 0001:00023910       ?stbtt__csctx_rmove_to@@YAXPEAUstbtt__csctx@@MM@Z 0000000180024910 f   raymarch_art_demo.obj
 0001:000239f0       ?stbtt__csctx_rline_to@@YAXPEAUstbtt__csctx@@MM@Z 00000001800249f0 f   raymarch_art_demo.obj
 0001:00023a90       ?stbtt__csctx_rccurve_to@@YAXPEAUstbtt__csctx@@MMMMMM@Z 0000000180024a90 f   raymarch_art_demo.obj
 0001:00023b90       ?stbtt__get_subr@@YA?AUstbtt__buf@@U1@H@Z 0000000180024b90 f   raymarch_art_demo.obj
 0001:00023cd0       ?stbtt__cid_get_glyph_subrs@@YA?AUstbtt__buf@@PEBUstbtt_fontinfo@@H@Z 0000000180024cd0 f   raymarch_art_demo.obj
 0001:00023f10       ?stbtt__run_charstring@@YAHPEBUstbtt_fontinfo@@HPEAUstbtt__csctx@@@Z 0000000180024f10 f   raymarch_art_demo.obj
 0001:000252a4       $LN103                     00000001800262a4     raymarch_art_demo.obj
 0001:00025330       ?stbtt__GetGlyphShapeT2@@YAHPEBUstbtt_fontinfo@@HPEAPEAUstbtt_vertex@@@Z 0000000180026330 f   raymarch_art_demo.obj
 0001:000254d0       ?stbtt__GetGlyphKernInfoAdvance@@YAHPEBUstbtt_fontinfo@@HH@Z 00000001800264d0 f   raymarch_art_demo.obj
 0001:00025610       ?stbtt__GetCoverageIndex@@YAHPEAEH@Z 0000000180026610 f   raymarch_art_demo.obj
 0001:00025860       ?stbtt__GetGlyphClass@@YAHPEAEH@Z 0000000180026860 f   raymarch_art_demo.obj
 0001:00025aa0       ?stbtt__GetGlyphGPOSInfoAdvance@@YAHPEBUstbtt_fontinfo@@HH@Z 0000000180026aa0 f   raymarch_art_demo.obj
 0001:00026200       ?stbtt__hheap_alloc@@YAPEAXPEAUstbtt__hheap@@_KPEAX@Z 0000000180027200 f   raymarch_art_demo.obj
 0001:00026340       ?stbtt__hheap_free@@YAXPEAUstbtt__hheap@@PEAX@Z 0000000180027340 f   raymarch_art_demo.obj
 0001:00026370       ?stbtt__hheap_cleanup@@YAXPEAUstbtt__hheap@@PEAX@Z 0000000180027370 f   raymarch_art_demo.obj
 0001:000263d0       ?stbtt__new_active@@YAPEAUstbtt__active_edge@@PEAUstbtt__hheap@@PEAUstbtt__edge@@HMPEAX@Z 00000001800273d0 f   raymarch_art_demo.obj
 0001:00026590       ?stbtt__handle_clipped_edge@@YAXPEAMHPEAUstbtt__active_edge@@MMMM@Z 0000000180027590 f   raymarch_art_demo.obj
 0001:000269f0       ?stbtt__fill_active_edges_new@@YAXPEAM0HPEAUstbtt__active_edge@@M@Z 00000001800279f0 f   raymarch_art_demo.obj
 0001:000278c0       ?stbtt__rasterize_sorted_edges@@YAXPEAUstbtt__bitmap@@PEAUstbtt__edge@@HHHHPEAX@Z 00000001800288c0 f   raymarch_art_demo.obj
 0001:00027de0       ?stbtt__sort_edges_ins_sort@@YAXPEAUstbtt__edge@@H@Z 0000000180028de0 f   raymarch_art_demo.obj
 0001:00027f40       ?stbtt__sort_edges_quicksort@@YAXPEAUstbtt__edge@@H@Z 0000000180028f40 f   raymarch_art_demo.obj
 0001:000283a0       ?stbtt__sort_edges@@YAXPEAUstbtt__edge@@H@Z 00000001800293a0 f   raymarch_art_demo.obj
 0001:000283e0       ?stbtt__rasterize@@YAXPEAUstbtt__bitmap@@PEAUstbtt__point@@PEAHHMMMMHHHPEAX@Z 00000001800293e0 f   raymarch_art_demo.obj
 0001:000287c0       ?stbtt__add_point@@YAXPEAUstbtt__point@@HMM@Z 00000001800297c0 f   raymarch_art_demo.obj
 0001:00028820       ?stbtt__tesselate_curve@@YAHPEAUstbtt__point@@PEAHMMMMMMMH@Z 0000000180029820 f   raymarch_art_demo.obj
 0001:00028ab0       ?stbtt__tesselate_cubic@@YAXPEAUstbtt__point@@PEAHMMMMMMMMMH@Z 0000000180029ab0 f   raymarch_art_demo.obj
 0001:00028fe0       ?stbtt_FlattenCurves@@YAPEAUstbtt__point@@PEAUstbtt_vertex@@HMPEAPEAHPEAHPEAX@Z 0000000180029fe0 f   raymarch_art_demo.obj
 0001:000295b0       ?stbtt_BakeFontBitmap_internal@@YAHPEAEHM0HHHHPEAUstbtt_bakedchar@@@Z 000000018002a5b0 f   raymarch_art_demo.obj
 0001:00029960       ?stbrp_init_target@@YAXPEAUstbrp_context@@HHPEAUstbrp_node@@H@Z 000000018002a960 f   raymarch_art_demo.obj
 0001:000299c0       ?stbrp_pack_rects@@YAXPEAUstbrp_context@@PEAUstbrp_rect@@H@Z 000000018002a9c0 f   raymarch_art_demo.obj
 0001:00029b50       ?stbtt__h_prefilter@@YAXPEAEHHHI@Z 000000018002ab50 f   raymarch_art_demo.obj
 0001:00029fa0       ?stbtt__v_prefilter@@YAXPEAEHHHI@Z 000000018002afa0 f   raymarch_art_demo.obj
 0001:0002a470       ?stbtt__oversample_shift@@YAMH@Z 000000018002b470 f   raymarch_art_demo.obj
 0001:0002a4b0       ?stbtt__ray_intersect_bezier@@YAHQEAM0000QEAY01M@Z 000000018002b4b0 f   raymarch_art_demo.obj
 0001:0002abb0       ?equal@@YAHPEAM0@Z         000000018002bbb0 f   raymarch_art_demo.obj
 0001:0002ac30       ?stbtt__compute_crossings_x@@YAHMMHPEAUstbtt_vertex@@@Z 000000018002bc30 f   raymarch_art_demo.obj
 0001:0002b570       ?stbtt__cuberoot@@YAMM@Z   000000018002c570 f   raymarch_art_demo.obj
 0001:0002b5d0       ?stbtt__solve_cubic@@YAHMMMPEAM@Z 000000018002c5d0 f   raymarch_art_demo.obj
 0001:0002b8c0       ?stbtt__CompareUTF8toUTF16_bigendian_prefix@@YAHPEAEH0H@Z 000000018002c8c0 f   raymarch_art_demo.obj
 0001:0002bd00       ?stbtt_CompareUTF8toUTF16_bigendian_internal@@YAHPEADH0H@Z 000000018002cd00 f   raymarch_art_demo.obj
 0001:0002bd60       ?stbtt__matchpair@@YAHPEAEI0HHH@Z 000000018002cd60 f   raymarch_art_demo.obj
 0001:0002c0d0       ?stbtt__matches@@YAHPEAEI0H@Z 000000018002d0d0 f   raymarch_art_demo.obj
 0001:0002c310       ?stbtt_FindMatchingFont_internal@@YAHPEAEPEADH@Z 000000018002d310 f   raymarch_art_demo.obj
 0001:00036b70       $LN98                      0000000180037b70     raymarch_art_demo.obj
 0001:000428d0       $$000000                   00000001800438d0     LIBCMTD:chkstk.obj
 0001:00042940       $$000000                   0000000180043940     LIBCMTD:amdsecgs.obj
 0001:00042980       ?dllmain_crt_dispatch@@YAHQEAUHINSTANCE__@@KQEAX@Z 0000000180043980 f   LIBCMTD:dll_dllmain.obj
 0001:00042a10       ?dllmain_crt_process_attach@@YAHQEAUHINSTANCE__@@QEAX@Z 0000000180043a10 f   LIBCMTD:dll_dllmain.obj
 0001:00042b50       ?dllmain_crt_process_detach@@YAH_N@Z 0000000180043b50 f   LIBCMTD:dll_dllmain.obj
 0001:00042be0       ?dllmain_dispatch@@YAHQEAUHINSTANCE__@@KQEAX@Z 0000000180043be0 f   LIBCMTD:dll_dllmain.obj
 0001:00042d20       ?dllmain_raw@@YAHQEAUHINSTANCE__@@KQEAX@Z 0000000180043d20 f   LIBCMTD:dll_dllmain.obj
 0001:00042f90       capture_current_context    0000000180043f90 f   LIBCMTD:gs_report.obj
 0001:00043030       capture_previous_context   0000000180044030 f   LIBCMTD:gs_report.obj
 0001:000430f0       __get_entropy              00000001800440f0 f   LIBCMTD:gs_support.obj
 0001:000433c0       ?find_pe_section@@YAPEAU_IMAGE_SECTION_HEADER@@QEAE_K@Z 00000001800443c0 f   LIBCMTD:utility.obj
 0001:000434a0       ?is_potentially_valid_image_base@@YA_NQEAX@Z 00000001800444a0 f   LIBCMTD:utility.obj
 0001:000446b0       init_memcpy_functions      00000001800456b0 f   libvcruntimed:initialization.obj
 0001:000446c0       $$000000                   00000001800456c0     libvcruntimed:notify.obj
 0001:00044ad0       ??0scoped_get_last_error_reset@?A0xef8ec17e@@QEAA@XZ 0000000180045ad0 f   libvcruntimed:per_thread_data.obj
 0001:00044af0       ??1scoped_get_last_error_reset@?A0xef8ec17e@@QEAA@XZ 0000000180045af0 f   libvcruntimed:per_thread_data.obj
 0001:00044b40       ?store_and_initialize_ptd@@YA_NQEAU__vcrt_ptd@@@Z 0000000180045b40 f   libvcruntimed:per_thread_data.obj
 0001:00044fb0       ?invalid_function_sentinel@@YAPEAXXZ 0000000180045fb0 f   libvcruntimed:winapi_downlevel.obj
 0001:00044fc0       ?try_get_FlsAlloc@@YAP6AKP6AXPEAX@Z@ZXZ 0000000180045fc0 f   libvcruntimed:winapi_downlevel.obj
 0001:00044ff0       ?try_get_FlsFree@@YAP6AHK@ZXZ 0000000180045ff0 f   libvcruntimed:winapi_downlevel.obj
 0001:00045020       ?try_get_FlsGetValue@@YAP6APEAXK@ZXZ 0000000180046020 f   libvcruntimed:winapi_downlevel.obj
 0001:00045050       ?try_get_FlsSetValue@@YAP6AHKPEAX@ZXZ 0000000180046050 f   libvcruntimed:winapi_downlevel.obj
 0001:00045080       ?try_get_InitializeCriticalSectionEx@@YAP6AHPEAU_RTL_CRITICAL_SECTION@@KK@ZXZ 0000000180046080 f   libvcruntimed:winapi_downlevel.obj
 0001:000450b0       ?try_get_first_available_module@@YAPEAUHINSTANCE__@@QEBW4module_id@?A0xbfd18cd1@@0@Z 00000001800460b0 f   libvcruntimed:winapi_downlevel.obj
 0001:00045110       ?try_get_function@@YAPEAXW4function_id@?A0xbfd18cd1@@QEBDQEBW4module_id@2@2@Z 0000000180046110 f   libvcruntimed:winapi_downlevel.obj
 0001:000452b0       ?try_get_module@@YAPEAUHINSTANCE__@@W4module_id@?A0xbfd18cd1@@@Z 00000001800462b0 f   libvcruntimed:winapi_downlevel.obj
 0001:00045410       ?try_get_proc_address_from_first_available_module@@YAPEAXQEBDQEBW4module_id@?A0xbfd18cd1@@1@Z 0000000180046410 f   libvcruntimed:winapi_downlevel.obj
 0001:00045460       ?try_load_library_from_system_directory@@YAPEAUHINSTANCE__@@QEB_W@Z 0000000180046460 f   libvcruntimed:winapi_downlevel.obj
 0001:000457f0       $$000000                   00000001800467f0     libvcruntimed:memcpy.obj
 0001:000458a7       MoveSmall                  00000001800468a7     libvcruntimed:memcpy.obj
 0001:00045cc0       ??$SehTransFilter@V__FrameHandler3@@@@YAHPEAU_EXCEPTION_POINTERS@@PEAUEHExceptionRecord@@PEA_KPEAU_CONTEXT@@PEAU_xDISPATCHER_CONTEXT@@PEBU_s_FuncInfo@@PEAH@Z 0000000180046cc0 f   libvcruntimed:risctrnsctrl.obj
 0001:000469b0       ?adjustIp@@YA_KPEAU_xDISPATCHER_CONTEXT@@_K@Z 00000001800479b0 f   libvcruntimed:ehstate.obj
 0001:000469c0       ??$BuildCatchObjectHelperInternal@V__FrameHandler3@@@@YAHPEAUEHExceptionRecord@@PEAXPEBU_s_HandlerType@@PEBU_s_CatchableType@@@Z 00000001800479c0 f   libvcruntimed:frame.obj
 0001:00046e40       ??$BuildCatchObjectInternal@V__FrameHandler3@@@@YAXPEAUEHExceptionRecord@@PEAXPEBU_s_HandlerType@@PEBU_s_CatchableType@@@Z 0000000180047e40 f   libvcruntimed:frame.obj
 0001:00046f80       ??$CatchIt@V__FrameHandler3@@@@YAXPEAUEHExceptionRecord@@PEA_KPEAU_CONTEXT@@PEAU_xDISPATCHER_CONTEXT@@PEBU_s_FuncInfo@@PEBU_s_HandlerType@@PEBU_s_CatchableType@@PEBU_s_TryBlockMapEntry@@H1EE@Z 0000000180047f80 f   libvcruntimed:frame.obj
 0001:00047090       ??$FindHandler@V__FrameHandler3@@@@YAXPEAUEHExceptionRecord@@PEA_KPEAU_CONTEXT@@PEAU_xDISPATCHER_CONTEXT@@PEBU_s_FuncInfo@@EH1@Z 0000000180048090 f   libvcruntimed:frame.obj
 0001:00047810       ??$FindHandlerForForeignException@V__FrameHandler3@@@@YAXPEAUEHExceptionRecord@@PEA_KPEAU_CONTEXT@@PEAU_xDISPATCHER_CONTEXT@@PEBU_s_FuncInfo@@HH1@Z 0000000180048810 f   libvcruntimed:frame.obj
 0001:00048830       ?ExFilterRethrow@@YAHPEAU_EXCEPTION_POINTERS@@PEAUEHExceptionRecord@@PEAH@Z 0000000180049830 f   libvcruntimed:frame.obj
 0001:00048c90       ?IsInExceptionSpec@@YAEPEAUEHExceptionRecord@@PEBU_s_ESTypeList@@@Z 0000000180049c90 f   libvcruntimed:frame.obj
 0001:00048dc0       ?Is_bad_exception_allowed@@YAEPEBU_s_ESTypeList@@@Z 0000000180049dc0 f   libvcruntimed:frame.obj
 0001:00048f80       ?__RethrowException@@YAXPEAUEHExceptionRecord@@@Z 0000000180049f80 f   libvcruntimed:frame.obj
 0001:000491a0       $$000000                   000000018004a1a0     libvcruntimed:memset.obj
 0001:0004929c       MsetTab                    000000018004a29c     libvcruntimed:memset.obj
 0001:00049360       $$000000                   000000018004a360     libvcruntimed:handlers.obj
 0001:00049740       $$000000                   000000018004a740     libucrtd:strncmp.obj
 0001:0004b270       ??$common_fopen_s@D@@YAHQEAPEAU_iobuf@@QEBD1@Z 000000018004c270 f   libucrtd:fopen.obj
 0001:0004b360       ??$common_fsopen@D@@YAPEAU_iobuf@@QEBD0H@Z 000000018004c360 f   libucrtd:fopen.obj
 0001:0004b790       ?_fclose_internal@@YAHQEAU_iobuf@@AEAV__crt_cached_ptd_host@@@Z 000000018004c790 f   libucrtd:fclose.obj
 0001:0004b8f0       ?_fclose_nolock_internal@@YAHQEAU_iobuf@@AEAV__crt_cached_ptd_host@@@Z 000000018004c8f0 f   libucrtd:fclose.obj
 0001:0004ce00       memcpy_s                   000000018004de00 f   libucrtd:fread.obj
 0001:0004d020       ?common_fseek@@YAHV__crt_stdio_stream@@_JHAEAV__crt_cached_ptd_host@@@Z 000000018004e020 f   libucrtd:fseek.obj
 0001:0004d250       ?common_fseek_binary_mode_read_only_fast_track_nolock@@YA_NV__crt_stdio_stream@@_JH@Z 000000018004e250 f   libucrtd:fseek.obj
 0001:0004d4d0       ?common_fseek_nolock@@YAHV__crt_stdio_stream@@_JHAEAV__crt_cached_ptd_host@@@Z 000000018004e4d0 f   libucrtd:fseek.obj
 0001:0004d7a0       ??$common_ftell@J@@YAJV__crt_stdio_stream@@AEAV__crt_cached_ptd_host@@@Z 000000018004e7a0 f   libucrtd:ftell.obj
 0001:0004d8d0       ??$common_ftell_nolock@J@@YAJV__crt_stdio_stream@@AEAV__crt_cached_ptd_host@@@Z 000000018004e8d0 f   libucrtd:ftell.obj
 0001:0004d930       ??$common_ftell_nolock@_J@@YA_JV__crt_stdio_stream@@AEAV__crt_cached_ptd_host@@@Z 000000018004e930 f   libucrtd:ftell.obj
 0001:0004dce0       ??$count_newlines_of_type@D@@YA_JQEBD0@Z 000000018004ece0 f   libucrtd:ftell.obj
 0001:0004ddb0       ??$count_newlines_of_type@_W@@YA_JQEBD0@Z 000000018004edb0 f   libucrtd:ftell.obj
 0001:0004de90       ?buffer_character_size@@YA_KW4__crt_lowio_text_mode@@@Z 000000018004ee90 f   libucrtd:ftell.obj
 0001:0004ded0       ?buffer_contains_wide_characters@@YA_NW4__crt_lowio_text_mode@@@Z 000000018004eed0 f   libucrtd:ftell.obj
 0001:0004df00       ?common_ftell_read_mode_nolock@@YA_JV__crt_stdio_stream@@_J1AEAV__crt_cached_ptd_host@@@Z 000000018004ef00 f   libucrtd:ftell.obj
 0001:0004e220       ?common_ftell_translated_utf8_nolock@@YA_JV__crt_stdio_stream@@_JAEAV__crt_cached_ptd_host@@@Z 000000018004f220 f   libucrtd:ftell.obj
 0001:0004e4e0       ?count_newline_bytes@@YA_JQEBD0W4__crt_lowio_text_mode@@@Z 000000018004f4e0 f   libucrtd:ftell.obj
 0001:0004eae0       ??$common_assert@_W@@YAXQEB_W0IQEAX@Z 000000018004fae0 f   libucrtd:assert.obj
 0001:0004eb70       ??$common_assert_to_message_box@_W@@YAXQEB_W0IQEAX@Z 000000018004fb70 f   libucrtd:assert.obj
 0001:0004ec70       ??$common_assert_to_message_box_build_string@_W@@YAXQEA_W_KQEB_W2IQEAX@Z 000000018004fc70 f   libucrtd:assert.obj
 0001:0004fad0       ??$common_assert_to_stderr@_W@@YAXQEB_W0I@Z 0000000180050ad0 f   libucrtd:assert.obj
 0001:00050010       ?common_assert_to_stderr_direct@@YAXQEB_W0I@Z 0000000180051010 f   libucrtd:assert.obj
 0001:00050110       ?get_assert_format@@YAPEB_W_W@Z 0000000180051110 f   libucrtd:assert.obj
 0001:00050120       ?get_banner_text@@YAPEB_W_W@Z 0000000180051120 f   libucrtd:assert.obj
 0001:00050130       ?get_box_intro@@YAPEB_W_W@Z 0000000180051130 f   libucrtd:assert.obj
 0001:00050140       ?get_dot_dot_dot@@YAPEB_W_W@Z 0000000180051140 f   libucrtd:assert.obj
 0001:00050150       ?get_double_newline@@YAPEB_W_W@Z 0000000180051150 f   libucrtd:assert.obj
 0001:00050160       ?get_expression_intro@@YAPEB_W_W@Z 0000000180051160 f   libucrtd:assert.obj
 0001:00050170       ?get_file_intro@@YAPEB_W_W@Z 0000000180051170 f   libucrtd:assert.obj
 0001:00050180       ?get_help_intro@@YAPEB_W_W@Z 0000000180051180 f   libucrtd:assert.obj
 0001:00050190       ?get_info_intro@@YAPEB_W_W@Z 0000000180051190 f   libucrtd:assert.obj
 0001:000501a0       ?get_line_intro@@YAPEB_W_W@Z 00000001800511a0 f   libucrtd:assert.obj
 0001:000501b0       ?get_newline@@YAPEB_W_W@Z  00000001800511b0 f   libucrtd:assert.obj
 0001:000501c0       ?get_program_intro@@YAPEB_W_W@Z 00000001800511c0 f   libucrtd:assert.obj
 0001:000501d0       ?get_program_name_unknown_text@@YAPEB_W_W@Z 00000001800511d0 f   libucrtd:assert.obj
 0001:00050380       memcpy_s                   0000000180051380 f   libucrtd:assert.obj
 0001:00050920       raise_fpsw_flags           0000000180051920 f   libucrtd:acosf.obj
 0001:000509b0       valf_with_flags            00000001800519b0 f   libucrtd:acosf.obj
 0001:00050b50       $$000000                   0000000180051b50     libucrtd:cos.obj
 0001:000510d0       $$000000                   00000001800520d0     libucrtd:cosf.obj
 0001:00051cd0       get_fpsw_inline            0000000180052cd0 f   libucrtd:fmodf.obj
 0001:00051ce0       set_fpsw_inline            0000000180052ce0 f   libucrtd:fmodf.obj
 0001:00051d00       $$000000                   0000000180052d00     libucrtd:pow.obj
 0001:000533a0       $$000000                   00000001800543a0     libucrtd:powf.obj
 0001:000543b0       $$000000                   00000001800553b0     libucrtd:tanf.obj
 0001:00054b20       ?xcptlookup@@YAPEAU__crt_signal_action_t@@KQEAU1@@Z 0000000180055b20 f   libucrtd:exception_filter.obj
 0001:00054e6c       $LN33                      0000000180055e6c     libucrtd:exception_filter.obj
 0001:00054eb0       ??$?RV<lambda_d80eeec6fff315bfe5c115232f3240e3>@@AEAV<lambda_6e4b09c48022b2350581041d5f6b0c4c>@@V<lambda_2358e3775559c9db80273638284d5e45>@@@?$__crt_seh_guarded_call@X@@QEAAX$$QEAV<lambda_d80eeec6fff315bfe5c115232f3240e3>@@AEAV<lambda_6e4b09c48022b2350581041d5f6b0c4c>@@$$QEAV<lambda_2358e3775559c9db80273638284d5e45>@@@Z 0000000180055eb0 f   libucrtd:exit.obj
 0001:00054ef0       ??$__acrt_lock_and_call@V<lambda_6e4b09c48022b2350581041d5f6b0c4c>@@@@YAXW4__acrt_lock_id@@$$QEAV<lambda_6e4b09c48022b2350581041d5f6b0c4c>@@@Z 0000000180055ef0 f   libucrtd:exit.obj
 0001:00055000       ??0<lambda_2358e3775559c9db80273638284d5e45>@@QEAA@AEBW4__acrt_lock_id@@@Z 0000000180056000 f   libucrtd:exit.obj
 0001:00055020       ??0<lambda_6e4b09c48022b2350581041d5f6b0c4c>@@QEAA@AEBW4_crt_exit_cleanup_mode@@AEBW4_crt_exit_return_mode@@AEA_N@Z 0000000180056020 f   libucrtd:exit.obj
 0001:00055070       ??0<lambda_d80eeec6fff315bfe5c115232f3240e3>@@QEAA@AEBW4__acrt_lock_id@@@Z 0000000180056070 f   libucrtd:exit.obj
 0001:000550d0       ??R<lambda_2358e3775559c9db80273638284d5e45>@@QEBAXXZ 00000001800560d0 f   libucrtd:exit.obj
 0001:000550f0       ??R<lambda_6e4b09c48022b2350581041d5f6b0c4c>@@QEBA@XZ 00000001800560f0 f   libucrtd:exit.obj
 0001:00055210       ??R<lambda_d80eeec6fff315bfe5c115232f3240e3>@@QEBAXXZ 0000000180056210 f   libucrtd:exit.obj
 0001:00055240       ?atexit_exception_filter@@YAHK@Z 0000000180056240 f   libucrtd:exit.obj
 0001:000552e0       ?common_exit@@YAXHW4_crt_exit_cleanup_mode@@W4_crt_exit_return_mode@@@Z 00000001800562e0 f   libucrtd:exit.obj
 0001:00055380       ?exit_or_terminate_process@@YAXI@Z 0000000180056380 f   libucrtd:exit.obj
 0001:000553f0       ?is_managed_app@@YA_NXZ    00000001800563f0 f   libucrtd:exit.obj
 0001:000554a0       ?should_call_terminate_process@@YA_NXZ 00000001800564a0 f   libucrtd:exit.obj
 0001:00055500       ?try_cor_exit_process@@YAXI@Z 0000000180056500 f   libucrtd:exit.obj
 0001:000556a0       ??$common_configure_argv@D@@YAHW4_crt_argv_mode@@@Z 00000001800566a0 f   libucrtd:argv_parsing.obj
 0001:00055a70       ??$parse_command_line@D@@YAXPEADPEAPEAD0PEA_K2@Z 0000000180056a70 f   libucrtd:argv_parsing.obj
 0001:00055f60       ??0<lambda_df1553121bfa390f1154bd84936f2730>@@QEAA@AEAV?$__crt_unique_heap_ptr@PEADU__crt_internal_free_policy@@@@@Z 0000000180056f60 f   libucrtd:argv_parsing.obj
 0001:00056020       ??R<lambda_df1553121bfa390f1154bd84936f2730>@@QEBAHXZ 0000000180057020 f   libucrtd:argv_parsing.obj
 0001:000560e0       ?do_locale_initialization@@YAXD@Z 00000001800570e0 f   libucrtd:argv_parsing.obj
 0001:00056100       ?expand_argv_wildcards@@YAHQEAPEADQEAPEAPEAD@Z 0000000180057100 f   libucrtd:argv_parsing.obj
 0001:00056160       ?get_argv@@YAAEAPEAPEADD@Z 0000000180057160 f   libucrtd:argv_parsing.obj
 0001:00056170       ?get_command_line@@YAPEADD@Z 0000000180057170 f   libucrtd:argv_parsing.obj
 0001:00056210       ?should_copy_another_character@@YA_ND@Z 0000000180057210 f   libucrtd:argv_parsing.obj
 0001:000563b0       ??$common_initialize_environment_nolock@D@@YAHXZ 00000001800573b0 f   libucrtd:environment_initialization.obj
 0001:000564d0       ??$count_variables_in_environment_block@D@@YA?B_KQEAD@Z 00000001800574d0 f   libucrtd:environment_initialization.obj
 0001:00056550       ??$create_environment@D@@YAQEAPEADQEAD@Z 0000000180057550 f   libucrtd:environment_initialization.obj
 0001:00056760       ??$free_environment@D@@YAXQEAPEAD@Z 0000000180057760 f   libucrtd:environment_initialization.obj
 0001:000567c0       ??$free_environment@_W@@YAXQEAPEA_W@Z 00000001800577c0 f   libucrtd:environment_initialization.obj
 0001:00056990       ??$uninitialize_environment_internal@D@@YAXAEAPEAPEAD@Z 0000000180057990 f   libucrtd:environment_initialization.obj
 0001:000569d0       ??$uninitialize_environment_internal@_W@@YAXAEAPEAPEA_W@Z 00000001800579d0 f   libucrtd:environment_initialization.obj
 0001:00056a70       ?get_dual_state_environment_nolock@@YAAEAV?$dual_state_global@PEAPEAD@__crt_state_management@@D@Z 0000000180057a70 f   libucrtd:environment_initialization.obj
 0001:00056a80       ?get_environment_nolock@@YAAEAPEAPEADD@Z 0000000180057a80 f   libucrtd:environment_initialization.obj
 0001:00056aa0       ?get_initial_environment@@YAAEAPEAPEADD@Z 0000000180057aa0 f   libucrtd:environment_initialization.obj
 0001:00056ab0       ?get_initial_environment@@YAAEAPEAPEA_W_W@Z 0000000180057ab0 f   libucrtd:environment_initialization.obj
 0001:00056b40       ?pre_initialize@@YAXD@Z    0000000180057b40 f   libucrtd:environment_initialization.obj
 0001:00056c00       ??$?RV<lambda_6a47f4c8fd0152770a780fc1d70204eb>@@AEAV<lambda_d121dba8a4adeaf3a9819e48611155df>@@V<lambda_6aaa2265f5b6a89667e7d7630012e97a>@@@?$__crt_seh_guarded_call@H@@QEAAH$$QEAV<lambda_6a47f4c8fd0152770a780fc1d70204eb>@@AEAV<lambda_d121dba8a4adeaf3a9819e48611155df>@@$$QEAV<lambda_6aaa2265f5b6a89667e7d7630012e97a>@@@Z 0000000180057c00 f   libucrtd:onexit.obj
 0001:00056c50       ??$__acrt_lock_and_call@V<lambda_d121dba8a4adeaf3a9819e48611155df>@@@@YAHW4__acrt_lock_id@@$$QEAV<lambda_d121dba8a4adeaf3a9819e48611155df>@@@Z 0000000180057c50 f   libucrtd:onexit.obj
 0001:00056cb0       ??0<lambda_6a47f4c8fd0152770a780fc1d70204eb>@@QEAA@AEBW4__acrt_lock_id@@@Z 0000000180057cb0 f   libucrtd:onexit.obj
 0001:00056cd0       ??0<lambda_6aaa2265f5b6a89667e7d7630012e97a>@@QEAA@AEBW4__acrt_lock_id@@@Z 0000000180057cd0 f   libucrtd:onexit.obj
 0001:00056cf0       ??0<lambda_d121dba8a4adeaf3a9819e48611155df>@@QEAA@AEBQEAU_onexit_table_t@@@Z 0000000180057cf0 f   libucrtd:onexit.obj
 0001:00056d20       ??R<lambda_6a47f4c8fd0152770a780fc1d70204eb>@@QEBAXXZ 0000000180057d20 f   libucrtd:onexit.obj
 0001:00056d40       ??R<lambda_6aaa2265f5b6a89667e7d7630012e97a>@@QEBAXXZ 0000000180057d40 f   libucrtd:onexit.obj
 0001:00056d60       ??R<lambda_d121dba8a4adeaf3a9819e48611155df>@@QEBAHXZ 0000000180057d60 f   libucrtd:onexit.obj
 0001:00057050       initialize_global_variables 0000000180058050 f   libucrtd:initialization.obj
 0001:00057070       initialize_c               0000000180058070 f   libucrtd:initialization.obj
 0001:000570a0       uninitialize_c             00000001800580a0 f   libucrtd:initialization.obj
 0001:000570b0       initialize_environment     00000001800580b0 f   libucrtd:initialization.obj
 0001:000570c0       uninitialize_environment   00000001800580c0 f   libucrtd:initialization.obj
 0001:000570f0       initialize_global_state_isolation 00000001800580f0 f   libucrtd:initialization.obj
 0001:00057100       uninitialize_global_state_isolation 0000000180058100 f   libucrtd:initialization.obj
 0001:00057110       initialize_pointers        0000000180058110 f   libucrtd:initialization.obj
 0001:00057170       uninitialize_vcruntime     0000000180058170 f   libucrtd:initialization.obj
 0001:00057190       uninitialize_allocated_memory 0000000180058190 f   libucrtd:initialization.obj
 0001:000571d0       uninitialize_allocated_io_buffers 00000001800581d0 f   libucrtd:initialization.obj
 0001:00057250       report_memory_leaks        0000000180058250 f   libucrtd:initialization.obj
 0001:00057280       ??$uninitialize@V<lambda_af27fe6ede5d83bbdbd622796c194e9c>@@@?$dual_state_global@PEAU__crt_multibyte_data@@@__crt_state_management@@QEAAX$$QEAV<lambda_af27fe6ede5d83bbdbd622796c194e9c>@@@Z 0000000180058280 f   libucrtd:initialization.obj
 0001:000572e0       ??R<lambda_af27fe6ede5d83bbdbd622796c194e9c>@@QEBAXAEAPEAU__crt_multibyte_data@@@Z 00000001800582e0 f   libucrtd:initialization.obj
 0001:000575f0       ?block_from_header@@YAPEAEQEAU_CrtMemBlockHeader@@@Z 00000001800585f0 f   libucrtd:debug_heap.obj
 0001:00057600       ?check_block@@YA_NQEAU_CrtMemBlockHeader@@@Z 0000000180058600 f   libucrtd:debug_heap.obj
 0001:00057b70       ?check_bytes@@YA_NQEBEE_K@Z 0000000180058b70 f   libucrtd:debug_heap.obj
 0001:00057be0       ?dump_all_object_since_nolock@@YAXQEBU_CrtMemState@@@Z 0000000180058be0 f   libucrtd:debug_heap.obj
 0001:00058060       ?free_dbg_nolock@@YAXQEAXH@Z 0000000180059060 f   libucrtd:debug_heap.obj
 0001:000587e0       ?header_from_block@@YAPEAU_CrtMemBlockHeader@@QEBX@Z 00000001800597e0 f   libucrtd:debug_heap.obj
 0001:000587f0       ?heap_alloc_dbg@@YAPEAX_KHQEBDH@Z 00000001800597f0 f   libucrtd:debug_heap.obj
 0001:00058890       ?heap_alloc_dbg_internal@@YAPEAX_KHQEBDH@Z 0000000180059890 f   libucrtd:debug_heap.obj
 0001:00058ce0       ?is_bad_read_pointer@@YA_NQEBX_K@Z 0000000180059ce0 f   libucrtd:debug_heap.obj
 0001:00058df0       ?is_block_an_aligned_allocation@@YA_NQEBX@Z 0000000180059df0 f   libucrtd:debug_heap.obj
 0001:00058e30       ?is_block_type_valid@@YA_NH@Z 0000000180059e30 f   libucrtd:debug_heap.obj
 0001:00058e80       ?print_block_data@@YAXQEAU__crt_locale_pointers@@QEAU_CrtMemBlockHeader@@@Z 0000000180059e80 f   libucrtd:debug_heap.obj
 0001:000590b0       ?realloc_dbg_nolock@@YAPEAXQEAXQEA_KHQEBDH_N@Z 000000018005a0b0 f   libucrtd:debug_heap.obj
 0001:000598f0       ?validate_heap_if_required_nolock@@YAXXZ 000000018005a8f0 f   libucrtd:debug_heap.obj
 0001:0005a5a0       ??$common_tcscpy_s@D@@YAHQEAD_KQEBD@Z 000000018005b5a0 f   libucrtd:strcpy_s.obj
 0001:0005aab0       $$000000                   000000018005bab0     libucrtd:strcmp.obj
 0001:0005ab30       $$000000                   000000018005bb30     libucrtd:strlen.obj
 0001:0005ade0       ??$?RV<lambda_613eff765f5c257adf68e381dfe80f05>@@AEAV<lambda_ebf663be9fcd9e0b17ed57bdb95b0759>@@V<lambda_872abebd861b7db59b42e49ea65623b0>@@@?$__crt_seh_guarded_call@H@@QEAAH$$QEAV<lambda_613eff765f5c257adf68e381dfe80f05>@@AEAV<lambda_ebf663be9fcd9e0b17ed57bdb95b0759>@@$$QEAV<lambda_872abebd861b7db59b42e49ea65623b0>@@@Z 000000018005bde0 f   libucrtd:output.obj
 0001:0005ae30       ??$__acrt_lock_stream_and_call@V<lambda_ebf663be9fcd9e0b17ed57bdb95b0759>@@@@YAHQEAU_iobuf@@$$QEAV<lambda_ebf663be9fcd9e0b17ed57bdb95b0759>@@@Z 000000018005be30 f   libucrtd:output.obj
 0001:0005af30       ??$common_vfprintf@Vstandard_base@__crt_stdio_output@@_W@@YAH_KQEAU_iobuf@@QEB_WAEAV__crt_cached_ptd_host@@QEAD@Z 000000018005bf30 f   libucrtd:output.obj
 0001:0005b160       ??$common_vsnprintf_s@D@@YAH_KQEAD00QEBDAEAV__crt_cached_ptd_host@@1@Z 000000018005c160 f   libucrtd:output.obj
 0001:0005b840       ??$common_vsnprintf_s@_W@@YAH_KQEA_W00QEB_WAEAV__crt_cached_ptd_host@@QEAD@Z 000000018005c840 f   libucrtd:output.obj
 0001:0005bf30       ??$common_vsprintf@Vformat_validation_base@__crt_stdio_output@@D@@YAH_KQEAD0QEBDAEAV__crt_cached_ptd_host@@1@Z 000000018005cf30 f   libucrtd:output.obj
 0001:0005c3f0       ??$common_vsprintf@Vformat_validation_base@__crt_stdio_output@@_W@@YAH_KQEA_W0QEB_WAEAV__crt_cached_ptd_host@@QEAD@Z 000000018005d3f0 f   libucrtd:output.obj
 0001:0005c8a0       ??$common_vsprintf@Vstandard_base@__crt_stdio_output@@_W@@YAH_KQEA_W0QEB_WAEAV__crt_cached_ptd_host@@QEAD@Z 000000018005d8a0 f   libucrtd:output.obj
 0001:0005cd50       ??$common_vsprintf_s@D@@YAH_KQEAD0QEBDAEAV__crt_cached_ptd_host@@1@Z 000000018005dd50 f   libucrtd:output.obj
 0001:00064560       ??0<lambda_613eff765f5c257adf68e381dfe80f05>@@QEAA@AEBQEAU_iobuf@@@Z 0000000180065560 f   libucrtd:output.obj
 0001:00064580       ??0<lambda_872abebd861b7db59b42e49ea65623b0>@@QEAA@AEBQEAU_iobuf@@@Z 0000000180065580 f   libucrtd:output.obj
 0001:000645a0       ??0<lambda_ebf663be9fcd9e0b17ed57bdb95b0759>@@QEAA@AEBQEAU_iobuf@@AEAV__crt_cached_ptd_host@@AEB_KAEBQEB_WAEBQEAD@Z 00000001800655a0 f   libucrtd:output.obj
 0001:00064e40       ??R<lambda_613eff765f5c257adf68e381dfe80f05>@@QEBAXXZ 0000000180065e40 f   libucrtd:output.obj
 0001:00064e60       ??R<lambda_872abebd861b7db59b42e49ea65623b0>@@QEBAXXZ 0000000180065e60 f   libucrtd:output.obj
 0001:00064e80       ??R<lambda_ebf663be9fcd9e0b17ed57bdb95b0759>@@QEBAHXZ 0000000180065e80 f   libucrtd:output.obj
 0001:00066004       $LN39                      0000000180067004     libucrtd:output.obj
 0001:000663c8       $LN39                      00000001800673c8     libucrtd:output.obj
 0001:00066788       $LN39                      0000000180067788     libucrtd:output.obj
 0001:00066b48       $LN39                      0000000180067b48     libucrtd:output.obj
 0001:00067e8c       $LN54                      0000000180068e8c     libucrtd:output.obj
 0001:00067eb4       $LN53                      0000000180068eb4     libucrtd:output.obj
 0001:0006834c       $LN54                      000000018006934c     libucrtd:output.obj
 0001:00068374       $LN53                      0000000180069374     libucrtd:output.obj
 0001:0006880c       $LN54                      000000018006980c     libucrtd:output.obj
 0001:00068834       $LN53                      0000000180069834     libucrtd:output.obj
 0001:00068ccc       $LN54                      0000000180069ccc     libucrtd:output.obj
 0001:00068cf4       $LN53                      0000000180069cf4     libucrtd:output.obj
 0001:00069188       $LN44                      000000018006a188     libucrtd:output.obj
 0001:000691b8       $LN43                      000000018006a1b8     libucrtd:output.obj
 0001:0006970c       $LN44                      000000018006a70c     libucrtd:output.obj
 0001:0006973c       $LN43                      000000018006a73c     libucrtd:output.obj
 0001:00069c9c       $LN44                      000000018006ac9c     libucrtd:output.obj
 0001:00069ccc       $LN43                      000000018006accc     libucrtd:output.obj
 0001:0006a22c       $LN44                      000000018006b22c     libucrtd:output.obj
 0001:0006a25c       $LN43                      000000018006b25c     libucrtd:output.obj
 0001:0006a660       $LN19                      000000018006b660     libucrtd:output.obj
